---
triple:          'arm64-apple-darwin'
binary-path:     '/Users/nyles/General Workshop/Personal/SelfTeach/GameProgramingC++/Assignment1/SFMLGame/src/main'
relocations:
  - { offsetInCU: 0x51, offset: 0x51, size: 0x8, addend: 0x0, symName: __ZN2sf5Color5BlackE, symObjAddr: 0x13A4F, symBinAddr: 0x100017297, symSize: 0x0 }
  - { offsetInCU: 0x536F, offset: 0x536F, size: 0x8, addend: 0x0, symName: __ZNSt3__114in_place_indexILm0EEE, symObjAddr: 0x13B20, symBinAddr: 0x100017368, symSize: 0x0 }
  - { offsetInCU: 0x53B4, offset: 0x53B4, size: 0x8, addend: 0x0, symName: __ZNSt3__114in_place_indexILm1EEE, symObjAddr: 0x13B21, symBinAddr: 0x100017369, symSize: 0x0 }
  - { offsetInCU: 0x53F9, offset: 0x53F9, size: 0x8, addend: 0x0, symName: __ZNSt3__114in_place_indexILm2EEE, symObjAddr: 0x13B22, symBinAddr: 0x10001736A, symSize: 0x0 }
  - { offsetInCU: 0x543E, offset: 0x543E, size: 0x8, addend: 0x0, symName: __ZNSt3__114in_place_indexILm3EEE, symObjAddr: 0x13B23, symBinAddr: 0x10001736B, symSize: 0x0 }
  - { offsetInCU: 0x5483, offset: 0x5483, size: 0x8, addend: 0x0, symName: __ZNSt3__114in_place_indexILm4EEE, symObjAddr: 0x13B24, symBinAddr: 0x10001736C, symSize: 0x0 }
  - { offsetInCU: 0x54C8, offset: 0x54C8, size: 0x8, addend: 0x0, symName: __ZNSt3__114in_place_indexILm5EEE, symObjAddr: 0x13B25, symBinAddr: 0x10001736D, symSize: 0x0 }
  - { offsetInCU: 0x550D, offset: 0x550D, size: 0x8, addend: 0x0, symName: __ZNSt3__114in_place_indexILm6EEE, symObjAddr: 0x13B26, symBinAddr: 0x10001736E, symSize: 0x0 }
  - { offsetInCU: 0x5552, offset: 0x5552, size: 0x8, addend: 0x0, symName: __ZNSt3__114in_place_indexILm7EEE, symObjAddr: 0x13B27, symBinAddr: 0x10001736F, symSize: 0x0 }
  - { offsetInCU: 0x5597, offset: 0x5597, size: 0x8, addend: 0x0, symName: __ZNSt3__114in_place_indexILm8EEE, symObjAddr: 0x13B28, symBinAddr: 0x100017370, symSize: 0x0 }
  - { offsetInCU: 0x55DC, offset: 0x55DC, size: 0x8, addend: 0x0, symName: __ZNSt3__114in_place_indexILm9EEE, symObjAddr: 0x13B29, symBinAddr: 0x100017371, symSize: 0x0 }
  - { offsetInCU: 0x5621, offset: 0x5621, size: 0x8, addend: 0x0, symName: __ZNSt3__114in_place_indexILm10EEE, symObjAddr: 0x13B2A, symBinAddr: 0x100017372, symSize: 0x0 }
  - { offsetInCU: 0x5666, offset: 0x5666, size: 0x8, addend: 0x0, symName: __ZNSt3__114in_place_indexILm11EEE, symObjAddr: 0x13B2B, symBinAddr: 0x100017373, symSize: 0x0 }
  - { offsetInCU: 0x56AB, offset: 0x56AB, size: 0x8, addend: 0x0, symName: __ZNSt3__114in_place_indexILm12EEE, symObjAddr: 0x13B2C, symBinAddr: 0x100017374, symSize: 0x0 }
  - { offsetInCU: 0x56F0, offset: 0x56F0, size: 0x8, addend: 0x0, symName: __ZNSt3__114in_place_indexILm13EEE, symObjAddr: 0x13B2D, symBinAddr: 0x100017375, symSize: 0x0 }
  - { offsetInCU: 0x5735, offset: 0x5735, size: 0x8, addend: 0x0, symName: __ZNSt3__114in_place_indexILm14EEE, symObjAddr: 0x13B2E, symBinAddr: 0x100017376, symSize: 0x0 }
  - { offsetInCU: 0x577A, offset: 0x577A, size: 0x8, addend: 0x0, symName: __ZNSt3__114in_place_indexILm15EEE, symObjAddr: 0x13B2F, symBinAddr: 0x100017377, symSize: 0x0 }
  - { offsetInCU: 0x57BF, offset: 0x57BF, size: 0x8, addend: 0x0, symName: __ZNSt3__114in_place_indexILm16EEE, symObjAddr: 0x13B30, symBinAddr: 0x100017378, symSize: 0x0 }
  - { offsetInCU: 0x5804, offset: 0x5804, size: 0x8, addend: 0x0, symName: __ZNSt3__114in_place_indexILm17EEE, symObjAddr: 0x13B31, symBinAddr: 0x100017379, symSize: 0x0 }
  - { offsetInCU: 0x5849, offset: 0x5849, size: 0x8, addend: 0x0, symName: __ZNSt3__114in_place_indexILm18EEE, symObjAddr: 0x13B32, symBinAddr: 0x10001737A, symSize: 0x0 }
  - { offsetInCU: 0x588E, offset: 0x588E, size: 0x8, addend: 0x0, symName: __ZNSt3__114in_place_indexILm19EEE, symObjAddr: 0x13B33, symBinAddr: 0x10001737B, symSize: 0x0 }
  - { offsetInCU: 0x58D3, offset: 0x58D3, size: 0x8, addend: 0x0, symName: __ZNSt3__114in_place_indexILm20EEE, symObjAddr: 0x13B34, symBinAddr: 0x10001737C, symSize: 0x0 }
  - { offsetInCU: 0x5918, offset: 0x5918, size: 0x8, addend: 0x0, symName: __ZNSt3__114in_place_indexILm21EEE, symObjAddr: 0x13B35, symBinAddr: 0x10001737D, symSize: 0x0 }
  - { offsetInCU: 0x595D, offset: 0x595D, size: 0x8, addend: 0x0, symName: __ZNSt3__114in_place_indexILm22EEE, symObjAddr: 0x13B36, symBinAddr: 0x10001737E, symSize: 0x0 }
  - { offsetInCU: 0x28661, offset: 0x28661, size: 0x8, addend: 0x0, symName: __ZNSt3__124__put_character_sequenceB8ue170006IcNS_11char_traitsIcEEEERNS_13basic_ostreamIT_T0_EES7_PKS4_m, symObjAddr: 0x9EAC, symBinAddr: 0x10000D148, symSize: 0x1EC }
  - { offsetInCU: 0x2BBE9, offset: 0x2BBE9, size: 0x8, addend: 0x0, symName: __ZNSt3__17getlineB8ue170006IcNS_11char_traitsIcEENS_9allocatorIcEEEERNS_13basic_istreamIT_T0_EES9_RNS_12basic_stringIS6_S7_T1_EES6_, symObjAddr: 0x518, symBinAddr: 0x1000037B4, symSize: 0x238 }
  - { offsetInCU: 0x2C6FE, offset: 0x2C6FE, size: 0x8, addend: 0x0, symName: __ZNSt3__1lsB8ue170006INS_11char_traitsIcEEEERNS_13basic_ostreamIcT_EES6_PKc, symObjAddr: 0x29E4, symBinAddr: 0x100005C80, symSize: 0x48 }
  - { offsetInCU: 0x2C744, offset: 0x2C744, size: 0x8, addend: 0x0, symName: __ZNSt3__17getlineB8ue170006IcNS_11char_traitsIcEENS_9allocatorIcEEEERNS_13basic_istreamIT_T0_EES9_RNS_12basic_stringIS6_S7_T1_EE, symObjAddr: 0x2A2C, symBinAddr: 0x100005CC8, symSize: 0x5C }
  - { offsetInCU: 0x2C79C, offset: 0x2C79C, size: 0x8, addend: 0x0, symName: __ZNSt3__14endlB8ue170006IcNS_11char_traitsIcEEEERNS_13basic_ostreamIT_T0_EES7_, symObjAddr: 0x2C78, symBinAddr: 0x100005F14, symSize: 0x58 }
  - { offsetInCU: 0x2C7DC, offset: 0x2C7DC, size: 0x8, addend: 0x0, symName: __ZNSt3__111make_sharedB8ue170006IN2sf11CircleShapeEJRKiEvEENS_10shared_ptrIT_EEDpOT0_, symObjAddr: 0x2D38, symBinAddr: 0x100005FD4, symSize: 0x40 }
  - { offsetInCU: 0x2CA3B, offset: 0x2CA3B, size: 0x8, addend: 0x0, symName: __ZNSt3__111make_sharedB8ue170006IN2sf4TextEJRNS1_4FontERKNS_12basic_stringIcNS_11char_traitsIcEENS_9allocatorIcEEEEiEvEENS_10shared_ptrIT_EEDpOT0_, symObjAddr: 0x2DF0, symBinAddr: 0x10000608C, symSize: 0x50 }
  - { offsetInCU: 0x2CAA6, offset: 0x2CAA6, size: 0x8, addend: 0x0, symName: __ZNSt3__111make_sharedB8ue170006IN2sf14RectangleShapeEJNS1_7Vector2IfEEEvEENS_10shared_ptrIT_EEDpOT0_, symObjAddr: 0x3028, symBinAddr: 0x1000062C4, symSize: 0x40 }
  - { offsetInCU: 0x2CD05, offset: 0x2CD05, size: 0x8, addend: 0x0, symName: __ZNSt3__111make_sharedB8ue170006IN2sf4TextEJRNS1_4FontERKNS_12basic_stringIcNS_11char_traitsIcEENS_9allocatorIcEEEEfEvEENS_10shared_ptrIT_EEDpOT0_, symObjAddr: 0x30C8, symBinAddr: 0x100006364, symSize: 0x50 }
  - { offsetInCU: 0x2CD70, offset: 0x2CD70, size: 0x8, addend: 0x0, symName: __ZNSt3__1neB8ue170006IP15AssignmentShapeEEbRKNS_11__wrap_iterIT_EES7_, symObjAddr: 0x31E4, symBinAddr: 0x100006480, symSize: 0x34 }
  - { offsetInCU: 0x2CDC1, offset: 0x2CDC1, size: 0x8, addend: 0x0, symName: __ZNSt3__119__libcpp_deallocateB8ue170006EPvmm, symObjAddr: 0x39D0, symBinAddr: 0x100006C6C, symSize: 0x60 }
  - { offsetInCU: 0x2CE28, offset: 0x2CE28, size: 0x8, addend: 0x0, symName: __ZNSt3__124__is_overaligned_for_newB8ue170006Em, symObjAddr: 0x3A3C, symBinAddr: 0x100006CD8, symSize: 0x20 }
  - { offsetInCU: 0x2CE57, offset: 0x2CE57, size: 0x8, addend: 0x0, symName: __ZNSt3__127__do_deallocate_handle_sizeB8ue170006IJSt11align_val_tEEEvPvmDpT_, symObjAddr: 0x3A5C, symBinAddr: 0x100006CF8, symSize: 0x30 }
  - { offsetInCU: 0x2CEAB, offset: 0x2CEAB, size: 0x8, addend: 0x0, symName: __ZNSt3__127__do_deallocate_handle_sizeB8ue170006IJEEEvPvmDpT_, symObjAddr: 0x3A8C, symBinAddr: 0x100006D28, symSize: 0x28 }
  - { offsetInCU: 0x2CEEA, offset: 0x2CEEA, size: 0x8, addend: 0x0, symName: __ZNSt3__124__libcpp_operator_deleteB8ue170006IJPvSt11align_val_tEEEvDpT_, symObjAddr: 0x3AB4, symBinAddr: 0x100006D50, symSize: 0x2C }
  - { offsetInCU: 0x2CF34, offset: 0x2CF34, size: 0x8, addend: 0x0, symName: __ZNSt3__124__libcpp_operator_deleteB8ue170006IJPvEEEvDpT_, symObjAddr: 0x3AE0, symBinAddr: 0x100006D7C, symSize: 0x24 }
  - { offsetInCU: 0x2CF6A, offset: 0x2CF6A, size: 0x8, addend: 0x0, symName: __ZNSt3__112__to_addressB8ue170006IN2sf6VertexEEEPT_S4_, symObjAddr: 0x49CC, symBinAddr: 0x100007C68, symSize: 0x14 }
  - { offsetInCU: 0x2CFA1, offset: 0x2CFA1, size: 0x8, addend: 0x0, symName: __ZNSt3__14swapB8ue170006IPN2sf5ShapeEEENS_9enable_ifIXaasr21is_move_constructibleIT_EE5valuesr18is_move_assignableIS5_EE5valueEvE4typeERS5_S8_, symObjAddr: 0x4D30, symBinAddr: 0x100007FCC, symSize: 0x3C }
  - { offsetInCU: 0x2CFF6, offset: 0x2CFF6, size: 0x8, addend: 0x0, symName: __ZNSt3__14swapB8ue170006IPNS_19__shared_weak_countEEENS_9enable_ifIXaasr21is_move_constructibleIT_EE5valuesr18is_move_assignableIS4_EE5valueEvE4typeERS4_S7_, symObjAddr: 0x4D6C, symBinAddr: 0x100008008, symSize: 0x3C }
  - { offsetInCU: 0x2D04B, offset: 0x2D04B, size: 0x8, addend: 0x0, symName: __ZNSt3__14swapB8ue170006IPN2sf4TextEEENS_9enable_ifIXaasr21is_move_constructibleIT_EE5valuesr18is_move_assignableIS5_EE5valueEvE4typeERS5_S8_, symObjAddr: 0x4DEC, symBinAddr: 0x100008088, symSize: 0x3C }
  - { offsetInCU: 0x2D0A0, offset: 0x2D0A0, size: 0x8, addend: 0x0, symName: __ZNSt3__1eqB8ue170006IP15AssignmentShapeEEbRKNS_11__wrap_iterIT_EES7_, symObjAddr: 0x4E60, symBinAddr: 0x1000080FC, symSize: 0x48 }
  - { offsetInCU: 0x2D0E6, offset: 0x2D0E6, size: 0x8, addend: 0x0, symName: __ZNSt3__112__to_addressB8ue170006IhEEPT_S2_, symObjAddr: 0x53A0, symBinAddr: 0x10000863C, symSize: 0x14 }
  - { offsetInCU: 0x2D1DD, offset: 0x2D1DD, size: 0x8, addend: 0x0, symName: __ZNSt3__112__to_addressB8ue170006IN2sf4Font3RowEEEPT_S5_, symObjAddr: 0x5C54, symBinAddr: 0x100008EF0, symSize: 0x14 }
  - { offsetInCU: 0x2D2D4, offset: 0x2D2D4, size: 0x8, addend: 0x0, symName: __ZNSt3__17launderB8ue170006INS_4pairIKyN2sf5GlyphEEEEEPT_S7_, symObjAddr: 0x6088, symBinAddr: 0x100009324, symSize: 0x24 }
  - { offsetInCU: 0x2D30B, offset: 0x2D30B, size: 0x8, addend: 0x0, symName: __ZNSt3__19__launderB8ue170006INS_4pairIKyN2sf5GlyphEEEEEPT_S7_, symObjAddr: 0x60AC, symBinAddr: 0x100009348, symSize: 0x14 }
  - { offsetInCU: 0x2D343, offset: 0x2D343, size: 0x8, addend: 0x0, symName: __ZNSt3__17launderB8ue170006INS_4pairIKjN2sf4Font4PageEEEEEPT_S8_, symObjAddr: 0x63D0, symBinAddr: 0x10000966C, symSize: 0x24 }
  - { offsetInCU: 0x2D37A, offset: 0x2D37A, size: 0x8, addend: 0x0, symName: __ZNSt3__19__launderB8ue170006INS_4pairIKjN2sf4Font4PageEEEEEPT_S8_, symObjAddr: 0x63F4, symBinAddr: 0x100009690, symSize: 0x14 }
  - { offsetInCU: 0x2D3B2, offset: 0x2D3B2, size: 0x8, addend: 0x0, symName: __ZNSt3__134__libcpp_atomic_refcount_decrementB8ue170006IlEET_RS1_, symObjAddr: 0x6818, symBinAddr: 0x100009AB4, symSize: 0x30 }
  - { offsetInCU: 0x2D41C, offset: 0x2D41C, size: 0x8, addend: 0x0, symName: __ZNSt3__110__str_findB8ue170006IcmNS_11char_traitsIcEELm18446744073709551615EEET0_PKT_S3_S6_S3_S3_, symObjAddr: 0x6C40, symBinAddr: 0x100009EDC, symSize: 0xE4 }
  - { offsetInCU: 0x2D4C3, offset: 0x2D4C3, size: 0x8, addend: 0x0, symName: __ZNSt3__118__search_substringB8ue170006IcNS_11char_traitsIcEEEEPKT_S5_S5_S5_S5_, symObjAddr: 0x6D4C, symBinAddr: 0x100009FE8, symSize: 0x154 }
  - { offsetInCU: 0x2D55D, offset: 0x2D55D, size: 0x8, addend: 0x0, symName: __ZNSt3__118__constexpr_memchrB8ue170006IKccEEPT_S3_T0_m, symObjAddr: 0x6F44, symBinAddr: 0x10000A1E0, symSize: 0x40 }
  - { offsetInCU: 0x2D5D9, offset: 0x2D5D9, size: 0x8, addend: 0x0, symName: __ZNSt3__112__to_addressB8ue170006IKcEEPT_S3_, symObjAddr: 0x6F84, symBinAddr: 0x10000A220, symSize: 0x14 }
  - { offsetInCU: 0x2D82F, offset: 0x2D82F, size: 0x8, addend: 0x0, symName: __ZNSt3__112__to_addressB8ue170006INS_12basic_stringIcNS_11char_traitsIcEENS_9allocatorIcEEEEEEPT_S8_, symObjAddr: 0x7D98, symBinAddr: 0x10000B034, symSize: 0x14 }
  - { offsetInCU: 0x2D866, offset: 0x2D866, size: 0x8, addend: 0x0, symName: __ZNSt3__13maxB8ue170006ImEERKT_S3_S3_, symObjAddr: 0x85B0, symBinAddr: 0x10000B84C, symSize: 0x2C }
  - { offsetInCU: 0x2D8AC, offset: 0x2D8AC, size: 0x8, addend: 0x0, symName: __ZNSt3__13minB8ue170006ImEERKT_S3_S3_, symObjAddr: 0x85DC, symBinAddr: 0x10000B878, symSize: 0x2C }
  - { offsetInCU: 0x2DADC, offset: 0x2DADC, size: 0x8, addend: 0x0, symName: __ZNSt3__13minB8ue170006ImNS_6__lessIvvEEEERKT_S5_S5_T0_, symObjAddr: 0x8668, symBinAddr: 0x10000B904, symSize: 0x54 }
  - { offsetInCU: 0x2DBB2, offset: 0x2DBB2, size: 0x8, addend: 0x0, symName: __ZNSt3__120__throw_length_errorB8ue170006EPKc, symObjAddr: 0x8748, symBinAddr: 0x10000B9E4, symSize: 0x64 }
  - { offsetInCU: 0x2DBDD, offset: 0x2DBDD, size: 0x8, addend: 0x0, symName: __ZNSt3__13maxB8ue170006ImNS_6__lessIvvEEEERKT_S5_S5_T0_, symObjAddr: 0x882C, symBinAddr: 0x10000BAC8, symSize: 0x54 }
  - { offsetInCU: 0x2DC3B, offset: 0x2DC3B, size: 0x8, addend: 0x0, symName: __ZNSt3__119__allocate_at_leastB8ue170006INS_9allocatorINS_12basic_stringIcNS_11char_traitsIcEENS1_IcEEEEEEEENS_19__allocation_resultINS_16allocator_traitsIT_E7pointerEEERSA_m, symObjAddr: 0x899C, symBinAddr: 0x10000BC38, symSize: 0x40 }
  - { offsetInCU: 0x2DC81, offset: 0x2DC81, size: 0x8, addend: 0x0, symName: __ZNSt3__117__libcpp_allocateB8ue170006Emm, symObjAddr: 0x8B24, symBinAddr: 0x10000BDC0, symSize: 0x60 }
  - { offsetInCU: 0x2DCDC, offset: 0x2DCDC, size: 0x8, addend: 0x0, symName: __ZNSt3__121__libcpp_operator_newB8ue170006IJmSt11align_val_tEEEPvDpT_, symObjAddr: 0x8B84, symBinAddr: 0x10000BE20, symSize: 0x2C }
  - { offsetInCU: 0x2DD29, offset: 0x2DD29, size: 0x8, addend: 0x0, symName: __ZNSt3__121__libcpp_operator_newB8ue170006IJmEEEPvDpT_, symObjAddr: 0x8BB0, symBinAddr: 0x10000BE4C, symSize: 0x24 }
  - { offsetInCU: 0x2DD62, offset: 0x2DD62, size: 0x8, addend: 0x0, symName: __ZNSt3__142__uninitialized_allocator_move_if_noexceptB8ue170006INS_9allocatorINS_12basic_stringIcNS_11char_traitsIcEENS1_IcEEEEEENS_16reverse_iteratorIPS6_EESA_SA_EET2_RT_T0_T1_SB_, symObjAddr: 0x8C38, symBinAddr: 0x10000BED4, symSize: 0x12C }
  - { offsetInCU: 0x2DE02, offset: 0x2DE02, size: 0x8, addend: 0x0, symName: __ZNSt3__14swapB8ue170006IPNS_12basic_stringIcNS_11char_traitsIcEENS_9allocatorIcEEEEEENS_9enable_ifIXaasr21is_move_constructibleIT_EE5valuesr18is_move_assignableIS9_EE5valueEvE4typeERS9_SC_, symObjAddr: 0x8DB0, symBinAddr: 0x10000C04C, symSize: 0x3C }
  - { offsetInCU: 0x2DE57, offset: 0x2DE57, size: 0x8, addend: 0x0, symName: __ZNSt3__122__make_exception_guardB8ue170006INS_29_AllocatorDestroyRangeReverseINS_9allocatorINS_12basic_stringIcNS_11char_traitsIcEENS2_IcEEEEEENS_16reverse_iteratorIPS7_EEEEEENS_28__exception_guard_exceptionsIT_EESE_, symObjAddr: 0x8EB4, symBinAddr: 0x10000C150, symSize: 0x4C }
  - { offsetInCU: 0x2DE8F, offset: 0x2DE8F, size: 0x8, addend: 0x0, symName: __ZNSt3__1neB8ue170006IPNS_12basic_stringIcNS_11char_traitsIcEENS_9allocatorIcEEEES7_EEbRKNS_16reverse_iteratorIT_EERKNS8_IT0_EE, symObjAddr: 0x8F44, symBinAddr: 0x10000C1E0, symSize: 0x48 }
  - { offsetInCU: 0x2DEDE, offset: 0x2DEDE, size: 0x8, addend: 0x0, symName: __ZNSt3__112__to_addressB8ue170006INS_16reverse_iteratorIPNS_12basic_stringIcNS_11char_traitsIcEENS_9allocatorIcEEEEEEvEEu7__decayIDTclsr19__to_address_helperIT_EE6__callclsr3stdE7declvalIRKSA_EEEEESC_, symObjAddr: 0x8FC0, symBinAddr: 0x10000C25C, symSize: 0x24 }
  - { offsetInCU: 0x2DF3F, offset: 0x2DF3F, size: 0x8, addend: 0x0, symName: __ZNSt3__119__allocator_destroyB8ue170006INS_9allocatorINS_12basic_stringIcNS_11char_traitsIcEENS1_IcEEEEEENS_16reverse_iteratorINS8_IPS6_EEEESB_EEvRT_T0_T1_, symObjAddr: 0x931C, symBinAddr: 0x10000C5B8, symSize: 0x70 }
  - { offsetInCU: 0x2DFA5, offset: 0x2DFA5, size: 0x8, addend: 0x0, symName: __ZNSt3__1neB8ue170006INS_16reverse_iteratorIPNS_12basic_stringIcNS_11char_traitsIcEENS_9allocatorIcEEEEEES9_EEbRKNS1_IT_EERKNS1_IT0_EE, symObjAddr: 0x93C8, symBinAddr: 0x10000C664, symSize: 0x60 }
  - { offsetInCU: 0x2DFF4, offset: 0x2DFF4, size: 0x8, addend: 0x0, symName: __ZNSt3__112__to_addressB8ue170006INS_16reverse_iteratorINS1_IPNS_12basic_stringIcNS_11char_traitsIcEENS_9allocatorIcEEEEEEEEvEEu7__decayIDTclsr19__to_address_helperIT_EE6__callclsr3stdE7declvalIRKSB_EEEEESD_, symObjAddr: 0x9428, symBinAddr: 0x10000C6C4, symSize: 0x24 }
  - { offsetInCU: 0x2E055, offset: 0x2E055, size: 0x8, addend: 0x0, symName: __ZNSt3__112__to_addressB8ue170006I15AssignmentShapeEEPT_S3_, symObjAddr: 0x9D00, symBinAddr: 0x10000CF9C, symSize: 0x14 }
  - { offsetInCU: 0x2E08C, offset: 0x2E08C, size: 0x8, addend: 0x0, symName: __ZNSt3__116__pad_and_outputB8ue170006IcNS_11char_traitsIcEEEENS_19ostreambuf_iteratorIT_T0_EES6_PKS4_S8_S8_RNS_8ios_baseES4_, symObjAddr: 0xA0E8, symBinAddr: 0x10000D384, symSize: 0x240 }
  - { offsetInCU: 0x2E15B, offset: 0x2E15B, size: 0x8, addend: 0x0, symName: __ZNSt3__112__to_addressB8ue170006IcEEPT_S2_, symObjAddr: 0xA52C, symBinAddr: 0x10000D7C8, symSize: 0x14 }
  - { offsetInCU: 0x2E192, offset: 0x2E192, size: 0x8, addend: 0x0, symName: __ZNSt3__19use_facetB8ue170006INS_5ctypeIcEEEERKT_RKNS_6localeE, symObjAddr: 0xA618, symBinAddr: 0x10000D8B4, symSize: 0x2C }
  - { offsetInCU: 0x2E661, offset: 0x2E661, size: 0x8, addend: 0x0, symName: __ZNSt3__118__constexpr_strlenB8ue170006EPKc, symObjAddr: 0xA67C, symBinAddr: 0x10000D918, symSize: 0x24 }
  - { offsetInCU: 0x2E68F, offset: 0x2E68F, size: 0x8, addend: 0x0, symName: __ZNSt3__119__str_find_first_ofB8ue170006IcmNS_11char_traitsIcEELm18446744073709551615EEET0_PKT_S3_S6_S3_S3_, symObjAddr: 0xA6CC, symBinAddr: 0x10000D968, symSize: 0xF0 }
  - { offsetInCU: 0x2E736, offset: 0x2E736, size: 0x8, addend: 0x0, symName: __ZNSt3__118__find_first_of_ceB8ue170006IPKcS2_RDoFbccEEET_S5_S5_T0_S6_OT1_, symObjAddr: 0xA7BC, symBinAddr: 0x10000DA58, symSize: 0xD0 }
  - { offsetInCU: 0x2E7F6, offset: 0x2E7F6, size: 0x8, addend: 0x0, symName: __ZNSt3__18distanceB8ue170006IPKcEENS_15iterator_traitsIT_E15difference_typeES4_S4_, symObjAddr: 0xAC64, symBinAddr: 0x10000DF00, symSize: 0x2C }
  - { offsetInCU: 0x2E83C, offset: 0x2E83C, size: 0x8, addend: 0x0, symName: __ZNSt3__110__distanceB8ue170006IPKcEENS_15iterator_traitsIT_E15difference_typeES4_S4_NS_26random_access_iterator_tagE, symObjAddr: 0xAE5C, symBinAddr: 0x10000E0F8, symSize: 0x20 }
  - { offsetInCU: 0x2E88D, offset: 0x2E88D, size: 0x8, addend: 0x0, symName: __ZNSt3__121__is_pointer_in_rangeB8ue170006IccLi0EEEbPKT_S3_PKT0_, symObjAddr: 0xAE7C, symBinAddr: 0x10000E118, symSize: 0x68 }
  - { offsetInCU: 0x2E8F1, offset: 0x2E8F1, size: 0x8, addend: 0x0, symName: __ZNSt3__119__allocate_at_leastB8ue170006INS_9allocatorIcEEEENS_19__allocation_resultINS_16allocator_traitsIT_E7pointerEEERS5_m, symObjAddr: 0xB174, symBinAddr: 0x10000E410, symSize: 0x40 }
  - { offsetInCU: 0x2E937, offset: 0x2E937, size: 0x8, addend: 0x0, symName: __ZNSt3__115allocate_sharedB8ue170006IN2sf11CircleShapeENS_9allocatorIS2_EEJRKiEvEENS_10shared_ptrIT_EERKT0_DpOT1_, symObjAddr: 0xB368, symBinAddr: 0x10000E604, symSize: 0x98 }
  - { offsetInCU: 0x2ECE2, offset: 0x2ECE2, size: 0x8, addend: 0x0, symName: __ZNSt3__115allocate_sharedB8ue170006IN2sf4TextENS_9allocatorIS2_EEJRNS1_4FontERKNS_12basic_stringIcNS_11char_traitsIcEENS3_IcEEEEiEvEENS_10shared_ptrIT_EERKT0_DpOT1_, symObjAddr: 0xBD88, symBinAddr: 0x10000F024, symSize: 0xA8 }
  - { offsetInCU: 0x2F0B6, offset: 0x2F0B6, size: 0x8, addend: 0x0, symName: __ZNSt3__134__libcpp_atomic_refcount_incrementB8ue170006IlEET_RS1_, symObjAddr: 0xC794, symBinAddr: 0x10000FA30, symSize: 0x30 }
  - { offsetInCU: 0x2F0ED, offset: 0x2F0ED, size: 0x8, addend: 0x0, symName: __ZNSt3__119__allocate_at_leastB8ue170006INS_9allocatorI15AssignmentShapeEEEENS_19__allocation_resultINS_16allocator_traitsIT_E7pointerEEERS6_m, symObjAddr: 0xD10C, symBinAddr: 0x1000103A8, symSize: 0x40 }
  - { offsetInCU: 0x2F133, offset: 0x2F133, size: 0x8, addend: 0x0, symName: __ZNSt3__142__uninitialized_allocator_move_if_noexceptB8ue170006INS_9allocatorI15AssignmentShapeEENS_16reverse_iteratorIPS2_EES6_S6_EET2_RT_T0_T1_S7_, symObjAddr: 0xD2C4, symBinAddr: 0x100010560, symSize: 0x12C }
  - { offsetInCU: 0x2F1D3, offset: 0x2F1D3, size: 0x8, addend: 0x0, symName: __ZNSt3__14swapB8ue170006IP15AssignmentShapeEENS_9enable_ifIXaasr21is_move_constructibleIT_EE5valuesr18is_move_assignableIS4_EE5valueEvE4typeERS4_S7_, symObjAddr: 0xD43C, symBinAddr: 0x1000106D8, symSize: 0x3C }
  - { offsetInCU: 0x2F228, offset: 0x2F228, size: 0x8, addend: 0x0, symName: __ZNSt3__122__make_exception_guardB8ue170006INS_29_AllocatorDestroyRangeReverseINS_9allocatorI15AssignmentShapeEENS_16reverse_iteratorIPS3_EEEEEENS_28__exception_guard_exceptionsIT_EESA_, symObjAddr: 0xD540, symBinAddr: 0x1000107DC, symSize: 0x4C }
  - { offsetInCU: 0x2F260, offset: 0x2F260, size: 0x8, addend: 0x0, symName: __ZNSt3__1neB8ue170006IP15AssignmentShapeS2_EEbRKNS_16reverse_iteratorIT_EERKNS3_IT0_EE, symObjAddr: 0xD5D0, symBinAddr: 0x10001086C, symSize: 0x48 }
  - { offsetInCU: 0x2F2AF, offset: 0x2F2AF, size: 0x8, addend: 0x0, symName: __ZNSt3__112__to_addressB8ue170006INS_16reverse_iteratorIP15AssignmentShapeEEvEEu7__decayIDTclsr19__to_address_helperIT_EE6__callclsr3stdE7declvalIRKS5_EEEEES7_, symObjAddr: 0xD618, symBinAddr: 0x1000108B4, symSize: 0x24 }
  - { offsetInCU: 0x2F310, offset: 0x2F310, size: 0x8, addend: 0x0, symName: __ZNSt3__119__allocator_destroyB8ue170006INS_9allocatorI15AssignmentShapeEENS_16reverse_iteratorINS4_IPS2_EEEES7_EEvRT_T0_T1_, symObjAddr: 0xD8C8, symBinAddr: 0x100010B64, symSize: 0x70 }
  - { offsetInCU: 0x2F376, offset: 0x2F376, size: 0x8, addend: 0x0, symName: __ZNSt3__1neB8ue170006INS_16reverse_iteratorIP15AssignmentShapeEES4_EEbRKNS1_IT_EERKNS1_IT0_EE, symObjAddr: 0xD974, symBinAddr: 0x100010C10, symSize: 0x60 }
  - { offsetInCU: 0x2F3C5, offset: 0x2F3C5, size: 0x8, addend: 0x0, symName: __ZNSt3__112__to_addressB8ue170006INS_16reverse_iteratorINS1_IP15AssignmentShapeEEEEvEEu7__decayIDTclsr19__to_address_helperIT_EE6__callclsr3stdE7declvalIRKS6_EEEEES8_, symObjAddr: 0xD9D4, symBinAddr: 0x100010C70, symSize: 0x24 }
  - { offsetInCU: 0x2F426, offset: 0x2F426, size: 0x8, addend: 0x0, symName: __ZNSt3__115allocate_sharedB8ue170006IN2sf14RectangleShapeENS_9allocatorIS2_EEJNS1_7Vector2IfEEEvEENS_10shared_ptrIT_EERKT0_DpOT1_, symObjAddr: 0xDD3C, symBinAddr: 0x100010FD8, symSize: 0x98 }
  - { offsetInCU: 0x2F7D1, offset: 0x2F7D1, size: 0x8, addend: 0x0, symName: __ZNSt3__115allocate_sharedB8ue170006IN2sf4TextENS_9allocatorIS2_EEJRNS1_4FontERKNS_12basic_stringIcNS_11char_traitsIcEENS3_IcEEEEfEvEENS_10shared_ptrIT_EERKT0_DpOT1_, symObjAddr: 0xE6DC, symBinAddr: 0x100011978, symSize: 0xA8 }
  - { offsetInCU: 0x2F873, offset: 0x2F873, size: 0x8, addend: 0x0, symName: '__ZNSt3__15visitB8ue170006IRN2sf4priv11OverloadSetIJZ6drivervE3$_0ZNS1_10WindowBase12handleEventsIJRKS4_EEEvDpOT_EUlRKNS2_23DelayOverloadResolutionEE_EEEJRKNS_7variantIJNS1_5Event6ClosedENSJ_7ResizedENSJ_9FocusLostENSJ_11FocusGainedENSJ_11TextEnteredENSJ_10KeyPressedENSJ_11KeyReleasedENSJ_18MouseWheelScrolledENSJ_18MouseButtonPressedENSJ_19MouseButtonReleasedENSJ_10MouseMovedENSJ_13MouseMovedRawENSJ_12MouseEnteredENSJ_9MouseLeftENSJ_21JoystickButtonPressedENSJ_22JoystickButtonReleasedENSJ_13JoystickMovedENSJ_17JoystickConnectedENSJ_20JoystickDisconnectedENSJ_10TouchBeganENSJ_10TouchMovedENSJ_10TouchEndedENSJ_13SensorChangedEEEEEvEEDcOT_DpOT0_', symObjAddr: 0xE9A8, symBinAddr: 0x100011C44, symSize: 0x34 }
  - { offsetInCU: 0x2F8CB, offset: 0x2F8CB, size: 0x8, addend: 0x0, symName: __ZNSt3__120__throw_if_valuelessB8ue170006IJRKNS_7variantIJN2sf5Event6ClosedENS3_7ResizedENS3_9FocusLostENS3_11FocusGainedENS3_11TextEnteredENS3_10KeyPressedENS3_11KeyReleasedENS3_18MouseWheelScrolledENS3_18MouseButtonPressedENS3_19MouseButtonReleasedENS3_10MouseMovedENS3_13MouseMovedRawENS3_12MouseEnteredENS3_9MouseLeftENS3_21JoystickButtonPressedENS3_22JoystickButtonReleasedENS3_13JoystickMovedENS3_17JoystickConnectedENS3_20JoystickDisconnectedENS3_10TouchBeganENS3_10TouchMovedENS3_10TouchEndedENS3_13SensorChangedEEEEEEEvDpOT_, symObjAddr: 0xE9DC, symBinAddr: 0x100011C78, symSize: 0x44 }
  - { offsetInCU: 0x2F910, offset: 0x2F910, size: 0x8, addend: 0x0, symName: __ZNSt3__112__as_variantB8ue170006IJN2sf5Event6ClosedENS2_7ResizedENS2_9FocusLostENS2_11FocusGainedENS2_11TextEnteredENS2_10KeyPressedENS2_11KeyReleasedENS2_18MouseWheelScrolledENS2_18MouseButtonPressedENS2_19MouseButtonReleasedENS2_10MouseMovedENS2_13MouseMovedRawENS2_12MouseEnteredENS2_9MouseLeftENS2_21JoystickButtonPressedENS2_22JoystickButtonReleasedENS2_13JoystickMovedENS2_17JoystickConnectedENS2_20JoystickDisconnectedENS2_10TouchBeganENS2_10TouchMovedENS2_10TouchEndedENS2_13SensorChangedEEEERKNS_7variantIJDpT_EEESV_, symObjAddr: 0xEA5C, symBinAddr: 0x100011CF8, symSize: 0x14 }
  - { offsetInCU: 0x2F9B8, offset: 0x2F9B8, size: 0x8, addend: 0x0, symName: __ZNSt3__126__throw_bad_variant_accessB8ue170006Ev, symObjAddr: 0xEA98, symBinAddr: 0x100011D34, symSize: 0x38 }
  - { offsetInCU: 0x2FA1A, offset: 0x2FA1A, size: 0x8, addend: 0x0, symName: '__ZNSt3__18__invokeB8ue170006INS_16__variant_detail12__visitation9__variant15__value_visitorIRN2sf4priv11OverloadSetIJZ6drivervE3$_0ZNS5_10WindowBase12handleEventsIJRKS8_EEEvDpOT_EUlRKNS6_23DelayOverloadResolutionEE_EEEEEJRKNS1_5__altILm0ENS5_5Event6ClosedEEEEEEDTclclsr3stdE7declvalIT_EEspclsr3stdE7declvalIT0_EEEEOST_DpOSU_', symObjAddr: 0xF2AC, symBinAddr: 0x100012548, symSize: 0x2C }
  - { offsetInCU: 0x2FA68, offset: 0x2FA68, size: 0x8, addend: 0x0, symName: '__ZNSt3__18__invokeB8ue170006IRN2sf4priv11OverloadSetIJZ6drivervE3$_0ZNS1_10WindowBase12handleEventsIJRKS4_EEEvDpOT_EUlRKNS2_23DelayOverloadResolutionEE_EEEJRKNS1_5Event6ClosedEEEEDTclclsr3stdE7declvalIT_EEspclsr3stdE7declvalIT0_EEEEOSM_DpOSN_', symObjAddr: 0xF33C, symBinAddr: 0x1000125D8, symSize: 0x2C }
  - { offsetInCU: 0x2FAB6, offset: 0x2FAB6, size: 0x8, addend: 0x0, symName: '__ZNSt3__18__invokeB8ue170006INS_16__variant_detail12__visitation9__variant15__value_visitorIRN2sf4priv11OverloadSetIJZ6drivervE3$_0ZNS5_10WindowBase12handleEventsIJRKS8_EEEvDpOT_EUlRKNS6_23DelayOverloadResolutionEE_EEEEEJRKNS1_5__altILm1ENS5_5Event7ResizedEEEEEEDTclclsr3stdE7declvalIT_EEspclsr3stdE7declvalIT0_EEEEOST_DpOSU_', symObjAddr: 0xF3A8, symBinAddr: 0x100012644, symSize: 0x2C }
  - { offsetInCU: 0x2FB04, offset: 0x2FB04, size: 0x8, addend: 0x0, symName: '__ZNSt3__18__invokeB8ue170006IRN2sf4priv11OverloadSetIJZ6drivervE3$_0ZNS1_10WindowBase12handleEventsIJRKS4_EEEvDpOT_EUlRKNS2_23DelayOverloadResolutionEE_EEEJRKNS1_5Event7ResizedEEEEDTclclsr3stdE7declvalIT_EEspclsr3stdE7declvalIT0_EEEEOSM_DpOSN_', symObjAddr: 0xF438, symBinAddr: 0x1000126D4, symSize: 0x44 }
  - { offsetInCU: 0x2FB52, offset: 0x2FB52, size: 0x8, addend: 0x0, symName: '__ZNSt3__18__invokeB8ue170006INS_16__variant_detail12__visitation9__variant15__value_visitorIRN2sf4priv11OverloadSetIJZ6drivervE3$_0ZNS5_10WindowBase12handleEventsIJRKS8_EEEvDpOT_EUlRKNS6_23DelayOverloadResolutionEE_EEEEEJRKNS1_5__altILm2ENS5_5Event9FocusLostEEEEEEDTclclsr3stdE7declvalIT_EEspclsr3stdE7declvalIT0_EEEEOST_DpOSU_', symObjAddr: 0xF514, symBinAddr: 0x1000127B0, symSize: 0x2C }
  - { offsetInCU: 0x2FBA0, offset: 0x2FBA0, size: 0x8, addend: 0x0, symName: '__ZNSt3__18__invokeB8ue170006IRN2sf4priv11OverloadSetIJZ6drivervE3$_0ZNS1_10WindowBase12handleEventsIJRKS4_EEEvDpOT_EUlRKNS2_23DelayOverloadResolutionEE_EEEJRKNS1_5Event9FocusLostEEEEDTclclsr3stdE7declvalIT_EEspclsr3stdE7declvalIT0_EEEEOSM_DpOSN_', symObjAddr: 0xF5A4, symBinAddr: 0x100012840, symSize: 0x44 }
  - { offsetInCU: 0x2FBEE, offset: 0x2FBEE, size: 0x8, addend: 0x0, symName: '__ZNSt3__18__invokeB8ue170006INS_16__variant_detail12__visitation9__variant15__value_visitorIRN2sf4priv11OverloadSetIJZ6drivervE3$_0ZNS5_10WindowBase12handleEventsIJRKS8_EEEvDpOT_EUlRKNS6_23DelayOverloadResolutionEE_EEEEEJRKNS1_5__altILm3ENS5_5Event11FocusGainedEEEEEEDTclclsr3stdE7declvalIT_EEspclsr3stdE7declvalIT0_EEEEOST_DpOSU_', symObjAddr: 0xF690, symBinAddr: 0x10001292C, symSize: 0x2C }
  - { offsetInCU: 0x2FC3C, offset: 0x2FC3C, size: 0x8, addend: 0x0, symName: '__ZNSt3__18__invokeB8ue170006IRN2sf4priv11OverloadSetIJZ6drivervE3$_0ZNS1_10WindowBase12handleEventsIJRKS4_EEEvDpOT_EUlRKNS2_23DelayOverloadResolutionEE_EEEJRKNS1_5Event11FocusGainedEEEEDTclclsr3stdE7declvalIT_EEspclsr3stdE7declvalIT0_EEEEOSM_DpOSN_', symObjAddr: 0xF720, symBinAddr: 0x1000129BC, symSize: 0x44 }
  - { offsetInCU: 0x2FC8A, offset: 0x2FC8A, size: 0x8, addend: 0x0, symName: '__ZNSt3__18__invokeB8ue170006INS_16__variant_detail12__visitation9__variant15__value_visitorIRN2sf4priv11OverloadSetIJZ6drivervE3$_0ZNS5_10WindowBase12handleEventsIJRKS8_EEEvDpOT_EUlRKNS6_23DelayOverloadResolutionEE_EEEEEJRKNS1_5__altILm4ENS5_5Event11TextEnteredEEEEEEDTclclsr3stdE7declvalIT_EEspclsr3stdE7declvalIT0_EEEEOST_DpOSU_', symObjAddr: 0xF830, symBinAddr: 0x100012ACC, symSize: 0x2C }
  - { offsetInCU: 0x2FCD8, offset: 0x2FCD8, size: 0x8, addend: 0x0, symName: '__ZNSt3__18__invokeB8ue170006IRN2sf4priv11OverloadSetIJZ6drivervE3$_0ZNS1_10WindowBase12handleEventsIJRKS4_EEEvDpOT_EUlRKNS2_23DelayOverloadResolutionEE_EEEJRKNS1_5Event11TextEnteredEEEEDTclclsr3stdE7declvalIT_EEspclsr3stdE7declvalIT0_EEEEOSM_DpOSN_', symObjAddr: 0xF8C0, symBinAddr: 0x100012B5C, symSize: 0x44 }
  - { offsetInCU: 0x2FD26, offset: 0x2FD26, size: 0x8, addend: 0x0, symName: '__ZNSt3__18__invokeB8ue170006INS_16__variant_detail12__visitation9__variant15__value_visitorIRN2sf4priv11OverloadSetIJZ6drivervE3$_0ZNS5_10WindowBase12handleEventsIJRKS8_EEEvDpOT_EUlRKNS6_23DelayOverloadResolutionEE_EEEEEJRKNS1_5__altILm5ENS5_5Event10KeyPressedEEEEEEDTclclsr3stdE7declvalIT_EEspclsr3stdE7declvalIT0_EEEEOST_DpOSU_', symObjAddr: 0xF9F4, symBinAddr: 0x100012C90, symSize: 0x2C }
  - { offsetInCU: 0x2FD74, offset: 0x2FD74, size: 0x8, addend: 0x0, symName: '__ZNSt3__18__invokeB8ue170006IRN2sf4priv11OverloadSetIJZ6drivervE3$_0ZNS1_10WindowBase12handleEventsIJRKS4_EEEvDpOT_EUlRKNS2_23DelayOverloadResolutionEE_EEEJRKNS1_5Event10KeyPressedEEEEDTclclsr3stdE7declvalIT_EEspclsr3stdE7declvalIT0_EEEEOSM_DpOSN_', symObjAddr: 0xFA84, symBinAddr: 0x100012D20, symSize: 0x44 }
  - { offsetInCU: 0x2FDC2, offset: 0x2FDC2, size: 0x8, addend: 0x0, symName: '__ZNSt3__18__invokeB8ue170006INS_16__variant_detail12__visitation9__variant15__value_visitorIRN2sf4priv11OverloadSetIJZ6drivervE3$_0ZNS5_10WindowBase12handleEventsIJRKS8_EEEvDpOT_EUlRKNS6_23DelayOverloadResolutionEE_EEEEEJRKNS1_5__altILm6ENS5_5Event11KeyReleasedEEEEEEDTclclsr3stdE7declvalIT_EEspclsr3stdE7declvalIT0_EEEEOST_DpOSU_', symObjAddr: 0xFBDC, symBinAddr: 0x100012E78, symSize: 0x2C }
  - { offsetInCU: 0x2FE10, offset: 0x2FE10, size: 0x8, addend: 0x0, symName: '__ZNSt3__18__invokeB8ue170006IRN2sf4priv11OverloadSetIJZ6drivervE3$_0ZNS1_10WindowBase12handleEventsIJRKS4_EEEvDpOT_EUlRKNS2_23DelayOverloadResolutionEE_EEEJRKNS1_5Event11KeyReleasedEEEEDTclclsr3stdE7declvalIT_EEspclsr3stdE7declvalIT0_EEEEOSM_DpOSN_', symObjAddr: 0xFC6C, symBinAddr: 0x100012F08, symSize: 0x44 }
  - { offsetInCU: 0x2FE5E, offset: 0x2FE5E, size: 0x8, addend: 0x0, symName: '__ZNSt3__18__invokeB8ue170006INS_16__variant_detail12__visitation9__variant15__value_visitorIRN2sf4priv11OverloadSetIJZ6drivervE3$_0ZNS5_10WindowBase12handleEventsIJRKS8_EEEvDpOT_EUlRKNS6_23DelayOverloadResolutionEE_EEEEEJRKNS1_5__altILm7ENS5_5Event18MouseWheelScrolledEEEEEEDTclclsr3stdE7declvalIT_EEspclsr3stdE7declvalIT0_EEEEOST_DpOSU_', symObjAddr: 0xFDE8, symBinAddr: 0x100013084, symSize: 0x2C }
  - { offsetInCU: 0x2FEAC, offset: 0x2FEAC, size: 0x8, addend: 0x0, symName: '__ZNSt3__18__invokeB8ue170006IRN2sf4priv11OverloadSetIJZ6drivervE3$_0ZNS1_10WindowBase12handleEventsIJRKS4_EEEvDpOT_EUlRKNS2_23DelayOverloadResolutionEE_EEEJRKNS1_5Event18MouseWheelScrolledEEEEDTclclsr3stdE7declvalIT_EEspclsr3stdE7declvalIT0_EEEEOSM_DpOSN_', symObjAddr: 0xFE78, symBinAddr: 0x100013114, symSize: 0x44 }
  - { offsetInCU: 0x2FEFA, offset: 0x2FEFA, size: 0x8, addend: 0x0, symName: '__ZNSt3__18__invokeB8ue170006INS_16__variant_detail12__visitation9__variant15__value_visitorIRN2sf4priv11OverloadSetIJZ6drivervE3$_0ZNS5_10WindowBase12handleEventsIJRKS8_EEEvDpOT_EUlRKNS6_23DelayOverloadResolutionEE_EEEEEJRKNS1_5__altILm8ENS5_5Event18MouseButtonPressedEEEEEEDTclclsr3stdE7declvalIT_EEspclsr3stdE7declvalIT0_EEEEOST_DpOSU_', symObjAddr: 0x10018, symBinAddr: 0x1000132B4, symSize: 0x2C }
  - { offsetInCU: 0x2FF48, offset: 0x2FF48, size: 0x8, addend: 0x0, symName: '__ZNSt3__18__invokeB8ue170006IRN2sf4priv11OverloadSetIJZ6drivervE3$_0ZNS1_10WindowBase12handleEventsIJRKS4_EEEvDpOT_EUlRKNS2_23DelayOverloadResolutionEE_EEEJRKNS1_5Event18MouseButtonPressedEEEEDTclclsr3stdE7declvalIT_EEspclsr3stdE7declvalIT0_EEEEOSM_DpOSN_', symObjAddr: 0x100A8, symBinAddr: 0x100013344, symSize: 0x44 }
  - { offsetInCU: 0x2FF96, offset: 0x2FF96, size: 0x8, addend: 0x0, symName: '__ZNSt3__18__invokeB8ue170006INS_16__variant_detail12__visitation9__variant15__value_visitorIRN2sf4priv11OverloadSetIJZ6drivervE3$_0ZNS5_10WindowBase12handleEventsIJRKS8_EEEvDpOT_EUlRKNS6_23DelayOverloadResolutionEE_EEEEEJRKNS1_5__altILm9ENS5_5Event19MouseButtonReleasedEEEEEEDTclclsr3stdE7declvalIT_EEspclsr3stdE7declvalIT0_EEEEOST_DpOSU_', symObjAddr: 0x1026C, symBinAddr: 0x100013508, symSize: 0x2C }
  - { offsetInCU: 0x2FFE4, offset: 0x2FFE4, size: 0x8, addend: 0x0, symName: '__ZNSt3__18__invokeB8ue170006IRN2sf4priv11OverloadSetIJZ6drivervE3$_0ZNS1_10WindowBase12handleEventsIJRKS4_EEEvDpOT_EUlRKNS2_23DelayOverloadResolutionEE_EEEJRKNS1_5Event19MouseButtonReleasedEEEEDTclclsr3stdE7declvalIT_EEspclsr3stdE7declvalIT0_EEEEOSM_DpOSN_', symObjAddr: 0x102FC, symBinAddr: 0x100013598, symSize: 0x44 }
  - { offsetInCU: 0x30032, offset: 0x30032, size: 0x8, addend: 0x0, symName: '__ZNSt3__18__invokeB8ue170006INS_16__variant_detail12__visitation9__variant15__value_visitorIRN2sf4priv11OverloadSetIJZ6drivervE3$_0ZNS5_10WindowBase12handleEventsIJRKS8_EEEvDpOT_EUlRKNS6_23DelayOverloadResolutionEE_EEEEEJRKNS1_5__altILm10ENS5_5Event10MouseMovedEEEEEEDTclclsr3stdE7declvalIT_EEspclsr3stdE7declvalIT0_EEEEOST_DpOSU_', symObjAddr: 0x104E4, symBinAddr: 0x100013780, symSize: 0x2C }
  - { offsetInCU: 0x30080, offset: 0x30080, size: 0x8, addend: 0x0, symName: '__ZNSt3__18__invokeB8ue170006IRN2sf4priv11OverloadSetIJZ6drivervE3$_0ZNS1_10WindowBase12handleEventsIJRKS4_EEEvDpOT_EUlRKNS2_23DelayOverloadResolutionEE_EEEJRKNS1_5Event10MouseMovedEEEEDTclclsr3stdE7declvalIT_EEspclsr3stdE7declvalIT0_EEEEOSM_DpOSN_', symObjAddr: 0x10574, symBinAddr: 0x100013810, symSize: 0x44 }
  - { offsetInCU: 0x300CE, offset: 0x300CE, size: 0x8, addend: 0x0, symName: '__ZNSt3__18__invokeB8ue170006INS_16__variant_detail12__visitation9__variant15__value_visitorIRN2sf4priv11OverloadSetIJZ6drivervE3$_0ZNS5_10WindowBase12handleEventsIJRKS8_EEEvDpOT_EUlRKNS6_23DelayOverloadResolutionEE_EEEEEJRKNS1_5__altILm11ENS5_5Event13MouseMovedRawEEEEEEDTclclsr3stdE7declvalIT_EEspclsr3stdE7declvalIT0_EEEEOST_DpOSU_', symObjAddr: 0x10780, symBinAddr: 0x100013A1C, symSize: 0x2C }
  - { offsetInCU: 0x3011C, offset: 0x3011C, size: 0x8, addend: 0x0, symName: '__ZNSt3__18__invokeB8ue170006IRN2sf4priv11OverloadSetIJZ6drivervE3$_0ZNS1_10WindowBase12handleEventsIJRKS4_EEEvDpOT_EUlRKNS2_23DelayOverloadResolutionEE_EEEJRKNS1_5Event13MouseMovedRawEEEEDTclclsr3stdE7declvalIT_EEspclsr3stdE7declvalIT0_EEEEOSM_DpOSN_', symObjAddr: 0x10810, symBinAddr: 0x100013AAC, symSize: 0x44 }
  - { offsetInCU: 0x3016A, offset: 0x3016A, size: 0x8, addend: 0x0, symName: '__ZNSt3__18__invokeB8ue170006INS_16__variant_detail12__visitation9__variant15__value_visitorIRN2sf4priv11OverloadSetIJZ6drivervE3$_0ZNS5_10WindowBase12handleEventsIJRKS8_EEEvDpOT_EUlRKNS6_23DelayOverloadResolutionEE_EEEEEJRKNS1_5__altILm12ENS5_5Event12MouseEnteredEEEEEEDTclclsr3stdE7declvalIT_EEspclsr3stdE7declvalIT0_EEEEOST_DpOSU_', symObjAddr: 0x10A40, symBinAddr: 0x100013CDC, symSize: 0x2C }
  - { offsetInCU: 0x301B8, offset: 0x301B8, size: 0x8, addend: 0x0, symName: '__ZNSt3__18__invokeB8ue170006IRN2sf4priv11OverloadSetIJZ6drivervE3$_0ZNS1_10WindowBase12handleEventsIJRKS4_EEEvDpOT_EUlRKNS2_23DelayOverloadResolutionEE_EEEJRKNS1_5Event12MouseEnteredEEEEDTclclsr3stdE7declvalIT_EEspclsr3stdE7declvalIT0_EEEEOSM_DpOSN_', symObjAddr: 0x10AD0, symBinAddr: 0x100013D6C, symSize: 0x44 }
  - { offsetInCU: 0x30206, offset: 0x30206, size: 0x8, addend: 0x0, symName: '__ZNSt3__18__invokeB8ue170006INS_16__variant_detail12__visitation9__variant15__value_visitorIRN2sf4priv11OverloadSetIJZ6drivervE3$_0ZNS5_10WindowBase12handleEventsIJRKS8_EEEvDpOT_EUlRKNS6_23DelayOverloadResolutionEE_EEEEEJRKNS1_5__altILm13ENS5_5Event9MouseLeftEEEEEEDTclclsr3stdE7declvalIT_EEspclsr3stdE7declvalIT0_EEEEOST_DpOSU_', symObjAddr: 0x10D24, symBinAddr: 0x100013FC0, symSize: 0x2C }
  - { offsetInCU: 0x30254, offset: 0x30254, size: 0x8, addend: 0x0, symName: '__ZNSt3__18__invokeB8ue170006IRN2sf4priv11OverloadSetIJZ6drivervE3$_0ZNS1_10WindowBase12handleEventsIJRKS4_EEEvDpOT_EUlRKNS2_23DelayOverloadResolutionEE_EEEJRKNS1_5Event9MouseLeftEEEEDTclclsr3stdE7declvalIT_EEspclsr3stdE7declvalIT0_EEEEOSM_DpOSN_', symObjAddr: 0x10DB4, symBinAddr: 0x100014050, symSize: 0x44 }
  - { offsetInCU: 0x302A2, offset: 0x302A2, size: 0x8, addend: 0x0, symName: '__ZNSt3__18__invokeB8ue170006INS_16__variant_detail12__visitation9__variant15__value_visitorIRN2sf4priv11OverloadSetIJZ6drivervE3$_0ZNS5_10WindowBase12handleEventsIJRKS8_EEEvDpOT_EUlRKNS6_23DelayOverloadResolutionEE_EEEEEJRKNS1_5__altILm14ENS5_5Event21JoystickButtonPressedEEEEEEDTclclsr3stdE7declvalIT_EEspclsr3stdE7declvalIT0_EEEEOST_DpOSU_', symObjAddr: 0x1102C, symBinAddr: 0x1000142C8, symSize: 0x2C }
  - { offsetInCU: 0x302F0, offset: 0x302F0, size: 0x8, addend: 0x0, symName: '__ZNSt3__18__invokeB8ue170006IRN2sf4priv11OverloadSetIJZ6drivervE3$_0ZNS1_10WindowBase12handleEventsIJRKS4_EEEvDpOT_EUlRKNS2_23DelayOverloadResolutionEE_EEEJRKNS1_5Event21JoystickButtonPressedEEEEDTclclsr3stdE7declvalIT_EEspclsr3stdE7declvalIT0_EEEEOSM_DpOSN_', symObjAddr: 0x110BC, symBinAddr: 0x100014358, symSize: 0x44 }
  - { offsetInCU: 0x3033E, offset: 0x3033E, size: 0x8, addend: 0x0, symName: '__ZNSt3__18__invokeB8ue170006INS_16__variant_detail12__visitation9__variant15__value_visitorIRN2sf4priv11OverloadSetIJZ6drivervE3$_0ZNS5_10WindowBase12handleEventsIJRKS8_EEEvDpOT_EUlRKNS6_23DelayOverloadResolutionEE_EEEEEJRKNS1_5__altILm15ENS5_5Event22JoystickButtonReleasedEEEEEEDTclclsr3stdE7declvalIT_EEspclsr3stdE7declvalIT0_EEEEOST_DpOSU_', symObjAddr: 0x11358, symBinAddr: 0x1000145F4, symSize: 0x2C }
  - { offsetInCU: 0x3038C, offset: 0x3038C, size: 0x8, addend: 0x0, symName: '__ZNSt3__18__invokeB8ue170006IRN2sf4priv11OverloadSetIJZ6drivervE3$_0ZNS1_10WindowBase12handleEventsIJRKS4_EEEvDpOT_EUlRKNS2_23DelayOverloadResolutionEE_EEEJRKNS1_5Event22JoystickButtonReleasedEEEEDTclclsr3stdE7declvalIT_EEspclsr3stdE7declvalIT0_EEEEOSM_DpOSN_', symObjAddr: 0x113E8, symBinAddr: 0x100014684, symSize: 0x44 }
  - { offsetInCU: 0x303DA, offset: 0x303DA, size: 0x8, addend: 0x0, symName: '__ZNSt3__18__invokeB8ue170006INS_16__variant_detail12__visitation9__variant15__value_visitorIRN2sf4priv11OverloadSetIJZ6drivervE3$_0ZNS5_10WindowBase12handleEventsIJRKS8_EEEvDpOT_EUlRKNS6_23DelayOverloadResolutionEE_EEEEEJRKNS1_5__altILm16ENS5_5Event13JoystickMovedEEEEEEDTclclsr3stdE7declvalIT_EEspclsr3stdE7declvalIT0_EEEEOST_DpOSU_', symObjAddr: 0x116A8, symBinAddr: 0x100014944, symSize: 0x2C }
  - { offsetInCU: 0x30428, offset: 0x30428, size: 0x8, addend: 0x0, symName: '__ZNSt3__18__invokeB8ue170006IRN2sf4priv11OverloadSetIJZ6drivervE3$_0ZNS1_10WindowBase12handleEventsIJRKS4_EEEvDpOT_EUlRKNS2_23DelayOverloadResolutionEE_EEEJRKNS1_5Event13JoystickMovedEEEEDTclclsr3stdE7declvalIT_EEspclsr3stdE7declvalIT0_EEEEOSM_DpOSN_', symObjAddr: 0x11738, symBinAddr: 0x1000149D4, symSize: 0x44 }
  - { offsetInCU: 0x30476, offset: 0x30476, size: 0x8, addend: 0x0, symName: '__ZNSt3__18__invokeB8ue170006INS_16__variant_detail12__visitation9__variant15__value_visitorIRN2sf4priv11OverloadSetIJZ6drivervE3$_0ZNS5_10WindowBase12handleEventsIJRKS8_EEEvDpOT_EUlRKNS6_23DelayOverloadResolutionEE_EEEEEJRKNS1_5__altILm17ENS5_5Event17JoystickConnectedEEEEEEDTclclsr3stdE7declvalIT_EEspclsr3stdE7declvalIT0_EEEEOST_DpOSU_', symObjAddr: 0x11A1C, symBinAddr: 0x100014CB8, symSize: 0x2C }
  - { offsetInCU: 0x304C4, offset: 0x304C4, size: 0x8, addend: 0x0, symName: '__ZNSt3__18__invokeB8ue170006IRN2sf4priv11OverloadSetIJZ6drivervE3$_0ZNS1_10WindowBase12handleEventsIJRKS4_EEEvDpOT_EUlRKNS2_23DelayOverloadResolutionEE_EEEJRKNS1_5Event17JoystickConnectedEEEEDTclclsr3stdE7declvalIT_EEspclsr3stdE7declvalIT0_EEEEOSM_DpOSN_', symObjAddr: 0x11AAC, symBinAddr: 0x100014D48, symSize: 0x44 }
  - { offsetInCU: 0x30512, offset: 0x30512, size: 0x8, addend: 0x0, symName: '__ZNSt3__18__invokeB8ue170006INS_16__variant_detail12__visitation9__variant15__value_visitorIRN2sf4priv11OverloadSetIJZ6drivervE3$_0ZNS5_10WindowBase12handleEventsIJRKS8_EEEvDpOT_EUlRKNS6_23DelayOverloadResolutionEE_EEEEEJRKNS1_5__altILm18ENS5_5Event20JoystickDisconnectedEEEEEEDTclclsr3stdE7declvalIT_EEspclsr3stdE7declvalIT0_EEEEOST_DpOSU_', symObjAddr: 0x11DB4, symBinAddr: 0x100015050, symSize: 0x2C }
  - { offsetInCU: 0x30560, offset: 0x30560, size: 0x8, addend: 0x0, symName: '__ZNSt3__18__invokeB8ue170006IRN2sf4priv11OverloadSetIJZ6drivervE3$_0ZNS1_10WindowBase12handleEventsIJRKS4_EEEvDpOT_EUlRKNS2_23DelayOverloadResolutionEE_EEEJRKNS1_5Event20JoystickDisconnectedEEEEDTclclsr3stdE7declvalIT_EEspclsr3stdE7declvalIT0_EEEEOSM_DpOSN_', symObjAddr: 0x11E44, symBinAddr: 0x1000150E0, symSize: 0x44 }
  - { offsetInCU: 0x305AE, offset: 0x305AE, size: 0x8, addend: 0x0, symName: '__ZNSt3__18__invokeB8ue170006INS_16__variant_detail12__visitation9__variant15__value_visitorIRN2sf4priv11OverloadSetIJZ6drivervE3$_0ZNS5_10WindowBase12handleEventsIJRKS8_EEEvDpOT_EUlRKNS6_23DelayOverloadResolutionEE_EEEEEJRKNS1_5__altILm19ENS5_5Event10TouchBeganEEEEEEDTclclsr3stdE7declvalIT_EEspclsr3stdE7declvalIT0_EEEEOST_DpOSU_', symObjAddr: 0x12170, symBinAddr: 0x10001540C, symSize: 0x2C }
  - { offsetInCU: 0x305FC, offset: 0x305FC, size: 0x8, addend: 0x0, symName: '__ZNSt3__18__invokeB8ue170006IRN2sf4priv11OverloadSetIJZ6drivervE3$_0ZNS1_10WindowBase12handleEventsIJRKS4_EEEvDpOT_EUlRKNS2_23DelayOverloadResolutionEE_EEEJRKNS1_5Event10TouchBeganEEEEDTclclsr3stdE7declvalIT_EEspclsr3stdE7declvalIT0_EEEEOSM_DpOSN_', symObjAddr: 0x12200, symBinAddr: 0x10001549C, symSize: 0x44 }
  - { offsetInCU: 0x3064A, offset: 0x3064A, size: 0x8, addend: 0x0, symName: '__ZNSt3__18__invokeB8ue170006INS_16__variant_detail12__visitation9__variant15__value_visitorIRN2sf4priv11OverloadSetIJZ6drivervE3$_0ZNS5_10WindowBase12handleEventsIJRKS8_EEEvDpOT_EUlRKNS6_23DelayOverloadResolutionEE_EEEEEJRKNS1_5__altILm20ENS5_5Event10TouchMovedEEEEEEDTclclsr3stdE7declvalIT_EEspclsr3stdE7declvalIT0_EEEEOST_DpOSU_', symObjAddr: 0x12550, symBinAddr: 0x1000157EC, symSize: 0x2C }
  - { offsetInCU: 0x30698, offset: 0x30698, size: 0x8, addend: 0x0, symName: '__ZNSt3__18__invokeB8ue170006IRN2sf4priv11OverloadSetIJZ6drivervE3$_0ZNS1_10WindowBase12handleEventsIJRKS4_EEEvDpOT_EUlRKNS2_23DelayOverloadResolutionEE_EEEJRKNS1_5Event10TouchMovedEEEEDTclclsr3stdE7declvalIT_EEspclsr3stdE7declvalIT0_EEEEOSM_DpOSN_', symObjAddr: 0x125E0, symBinAddr: 0x10001587C, symSize: 0x44 }
  - { offsetInCU: 0x306E6, offset: 0x306E6, size: 0x8, addend: 0x0, symName: '__ZNSt3__18__invokeB8ue170006INS_16__variant_detail12__visitation9__variant15__value_visitorIRN2sf4priv11OverloadSetIJZ6drivervE3$_0ZNS5_10WindowBase12handleEventsIJRKS8_EEEvDpOT_EUlRKNS6_23DelayOverloadResolutionEE_EEEEEJRKNS1_5__altILm21ENS5_5Event10TouchEndedEEEEEEDTclclsr3stdE7declvalIT_EEspclsr3stdE7declvalIT0_EEEEOST_DpOSU_', symObjAddr: 0x12954, symBinAddr: 0x100015BF0, symSize: 0x2C }
  - { offsetInCU: 0x30734, offset: 0x30734, size: 0x8, addend: 0x0, symName: '__ZNSt3__18__invokeB8ue170006IRN2sf4priv11OverloadSetIJZ6drivervE3$_0ZNS1_10WindowBase12handleEventsIJRKS4_EEEvDpOT_EUlRKNS2_23DelayOverloadResolutionEE_EEEJRKNS1_5Event10TouchEndedEEEEDTclclsr3stdE7declvalIT_EEspclsr3stdE7declvalIT0_EEEEOSM_DpOSN_', symObjAddr: 0x129E4, symBinAddr: 0x100015C80, symSize: 0x44 }
  - { offsetInCU: 0x30782, offset: 0x30782, size: 0x8, addend: 0x0, symName: '__ZNSt3__18__invokeB8ue170006INS_16__variant_detail12__visitation9__variant15__value_visitorIRN2sf4priv11OverloadSetIJZ6drivervE3$_0ZNS5_10WindowBase12handleEventsIJRKS8_EEEvDpOT_EUlRKNS6_23DelayOverloadResolutionEE_EEEEEJRKNS1_5__altILm22ENS5_5Event13SensorChangedEEEEEEDTclclsr3stdE7declvalIT_EEspclsr3stdE7declvalIT0_EEEEOST_DpOSU_', symObjAddr: 0x12D7C, symBinAddr: 0x100016018, symSize: 0x2C }
  - { offsetInCU: 0x307D0, offset: 0x307D0, size: 0x8, addend: 0x0, symName: '__ZNSt3__18__invokeB8ue170006IRN2sf4priv11OverloadSetIJZ6drivervE3$_0ZNS1_10WindowBase12handleEventsIJRKS4_EEEvDpOT_EUlRKNS2_23DelayOverloadResolutionEE_EEEJRKNS1_5Event13SensorChangedEEEEDTclclsr3stdE7declvalIT_EEspclsr3stdE7declvalIT0_EEEEOSM_DpOSN_', symObjAddr: 0x12E0C, symBinAddr: 0x1000160A8, symSize: 0x44 }
  - { offsetInCU: 0x30F2F, offset: 0x30F2F, size: 0x8, addend: 0x0, symName: __ZSt28__throw_bad_array_new_lengthB8ue170006v, symObjAddr: 0x8AF0, symBinAddr: 0x10000BD8C, symSize: 0x34 }
  - { offsetInCU: 0x33A86, offset: 0x33A86, size: 0x8, addend: 0x0, symName: __ZNSt3__16vectorINS_12basic_stringIcNS_11char_traitsIcEENS_9allocatorIcEEEENS4_IS6_EEE26__swap_out_circular_bufferERNS_14__split_bufferIS6_RS7_EE, symObjAddr: 0x83F8, symBinAddr: 0x10000B694, symSize: 0x110 }
  - { offsetInCU: 0x33F7C, offset: 0x33F7C, size: 0x8, addend: 0x0, symName: __ZNSt3__16vectorI15AssignmentShapeNS_9allocatorIS1_EEE26__swap_out_circular_bufferERNS_14__split_bufferIS1_RS3_EE, symObjAddr: 0xCD9C, symBinAddr: 0x100010038, symSize: 0x110 }
  - { offsetInCU: 0x340CF, offset: 0x340CF, size: 0x8, addend: 0x0, symName: __Z6driverv, symObjAddr: 0xB10, symBinAddr: 0x100003DAC, symSize: 0x1C7C }
  - { offsetInCU: 0x34610, offset: 0x34610, size: 0x8, addend: 0x0, symName: '__ZN2sf10WindowBase12handleEventsIJRKZ6drivervE3$_0EEEvDpOT_', symObjAddr: 0x3118, symBinAddr: 0x1000063B4, symSize: 0x6C }
  - { offsetInCU: 0x34EBF, offset: 0x34EBF, size: 0x8, addend: 0x0, symName: __Z7toloweri, symObjAddr: 0x148, symBinAddr: 0x1000033E4, symSize: 0x24 }
  - { offsetInCU: 0x36955, offset: 0x36955, size: 0x8, addend: 0x0, symName: __Z14compareStringsNSt3__112basic_stringIcNS_11char_traitsIcEENS_9allocatorIcEEEES5_, symObjAddr: 0x0, symBinAddr: 0x10000329C, symSize: 0x124 }
  - { offsetInCU: 0x369B2, offset: 0x369B2, size: 0x8, addend: 0x0, symName: __ZNKSt3__112basic_stringIcNS_11char_traitsIcEENS_9allocatorIcEEE6lengthB8ue170006Ev, symObjAddr: 0x124, symBinAddr: 0x1000033C0, symSize: 0x24 }
  - { offsetInCU: 0x369D8, offset: 0x369D8, size: 0x8, addend: 0x0, symName: __ZNSt3__112basic_stringIcNS_11char_traitsIcEENS_9allocatorIcEEEixB8ue170006Em, symObjAddr: 0x16C, symBinAddr: 0x100003408, symSize: 0x30 }
  - { offsetInCU: 0x36A0D, offset: 0x36A0D, size: 0x8, addend: 0x0, symName: __Z21string_nth_occurrenceRKNSt3__112basic_stringIcNS_11char_traitsIcEENS_9allocatorIcEEEES7_i, symObjAddr: 0x19C, symBinAddr: 0x100003438, symSize: 0xD8 }
  - { offsetInCU: 0x36A77, offset: 0x36A77, size: 0x8, addend: 0x0, symName: __ZNKSt3__112basic_stringIcNS_11char_traitsIcEENS_9allocatorIcEEE4findB8ue170006ERKS5_m, symObjAddr: 0x274, symBinAddr: 0x100003510, symSize: 0x78 }
  - { offsetInCU: 0x36ABD, offset: 0x36ABD, size: 0x8, addend: 0x0, symName: __Z12splitString1RNSt3__112basic_stringIcNS_11char_traitsIcEENS_9allocatorIcEEEEcPS5_Ri, symObjAddr: 0x2EC, symBinAddr: 0x100003588, symSize: 0x104 }
  - { offsetInCU: 0x36C19, offset: 0x36C19, size: 0x8, addend: 0x0, symName: __ZNSt3__119basic_istringstreamIcNS_11char_traitsIcEENS_9allocatorIcEEEC1B8ue170006ERKNS_12basic_stringIcS2_S4_EEj, symObjAddr: 0x3F0, symBinAddr: 0x10000368C, symSize: 0xFC }
  - { offsetInCU: 0x36C61, offset: 0x36C61, size: 0x8, addend: 0x0, symName: __ZNSt3__112basic_stringIcNS_11char_traitsIcEENS_9allocatorIcEEEC1B8ue170006Ev, symObjAddr: 0x4EC, symBinAddr: 0x100003788, symSize: 0x2C }
  - { offsetInCU: 0x36C8B, offset: 0x36C8B, size: 0x8, addend: 0x0, symName: __ZNKSt3__19basic_iosIcNS_11char_traitsIcEEEcvbB8ue170006Ev, symObjAddr: 0x750, symBinAddr: 0x1000039EC, symSize: 0x2C }
  - { offsetInCU: 0x36CB6, offset: 0x36CB6, size: 0x8, addend: 0x0, symName: __ZNSt3__119basic_istringstreamIcNS_11char_traitsIcEENS_9allocatorIcEEED1Ev, symObjAddr: 0x77C, symBinAddr: 0x100003A18, symSize: 0x40 }
  - { offsetInCU: 0x36CE3, offset: 0x36CE3, size: 0x8, addend: 0x0, symName: __Z12splitString2RKNSt3__112basic_stringIcNS_11char_traitsIcEENS_9allocatorIcEEEEc, symObjAddr: 0x7BC, symBinAddr: 0x100003A58, symSize: 0x140 }
  - { offsetInCU: 0x36D4F, offset: 0x36D4F, size: 0x8, addend: 0x0, symName: __ZNSt3__16vectorINS_12basic_stringIcNS_11char_traitsIcEENS_9allocatorIcEEEENS4_IS6_EEEC1B8ue170006Ev, symObjAddr: 0x8FC, symBinAddr: 0x100003B98, symSize: 0x2C }
  - { offsetInCU: 0x36DB0, offset: 0x36DB0, size: 0x8, addend: 0x0, symName: __ZNSt3__118basic_stringstreamIcNS_11char_traitsIcEENS_9allocatorIcEEEC1B8ue170006ERKNS_12basic_stringIcS2_S4_EEj, symObjAddr: 0x928, symBinAddr: 0x100003BC4, symSize: 0x110 }
  - { offsetInCU: 0x36DF8, offset: 0x36DF8, size: 0x8, addend: 0x0, symName: __ZNSt3__16vectorINS_12basic_stringIcNS_11char_traitsIcEENS_9allocatorIcEEEENS4_IS6_EEE9push_backB8ue170006ERKS6_, symObjAddr: 0xA38, symBinAddr: 0x100003CD4, symSize: 0x6C }
  - { offsetInCU: 0x36E34, offset: 0x36E34, size: 0x8, addend: 0x0, symName: __ZNSt3__118basic_stringstreamIcNS_11char_traitsIcEENS_9allocatorIcEEED1Ev, symObjAddr: 0xAA4, symBinAddr: 0x100003D40, symSize: 0x40 }
  - { offsetInCU: 0x36E61, offset: 0x36E61, size: 0x8, addend: 0x0, symName: __ZNSt3__16vectorINS_12basic_stringIcNS_11char_traitsIcEENS_9allocatorIcEEEENS4_IS6_EEED1B8ue170006Ev, symObjAddr: 0xAE4, symBinAddr: 0x100003D80, symSize: 0x2C }
  - { offsetInCU: 0x36E8B, offset: 0x36E8B, size: 0x8, addend: 0x0, symName: __ZN2sf7Vector2IjEC1Ejj, symObjAddr: 0x278C, symBinAddr: 0x100005A28, symSize: 0x3C }
  - { offsetInCU: 0x36ED5, offset: 0x36ED5, size: 0x8, addend: 0x0, symName: __ZN2sf6StringD1Ev, symObjAddr: 0x27C8, symBinAddr: 0x100005A64, symSize: 0x2C }
  - { offsetInCU: 0x36F01, offset: 0x36F01, size: 0x8, addend: 0x0, symName: __ZN2sf4FontC1Ev, symObjAddr: 0x27F4, symBinAddr: 0x100005A90, symSize: 0x2C }
  - { offsetInCU: 0x36FCE, offset: 0x36FCE, size: 0x8, addend: 0x0, symName: __ZNSt3__114basic_ifstreamIcNS_11char_traitsIcEEEC1EPKcj, symObjAddr: 0x2820, symBinAddr: 0x100005ABC, symSize: 0x16C }
  - { offsetInCU: 0x37018, offset: 0x37018, size: 0x8, addend: 0x0, symName: __ZNSt3__16vectorI15AssignmentShapeNS_9allocatorIS1_EEEC1B8ue170006Ev, symObjAddr: 0x298C, symBinAddr: 0x100005C28, symSize: 0x2C }
  - { offsetInCU: 0x37042, offset: 0x37042, size: 0x8, addend: 0x0, symName: __ZNKSt3__114basic_ifstreamIcNS_11char_traitsIcEEE7is_openEv, symObjAddr: 0x29B8, symBinAddr: 0x100005C54, symSize: 0x2C }
  - { offsetInCU: 0x3706A, offset: 0x3706A, size: 0x8, addend: 0x0, symName: __ZNKSt3__112basic_stringIcNS_11char_traitsIcEENS_9allocatorIcEEE6substrB8ue170006Emm, symObjAddr: 0x2A88, symBinAddr: 0x100005D24, symSize: 0x68 }
  - { offsetInCU: 0x370AE, offset: 0x370AE, size: 0x8, addend: 0x0, symName: __ZNKSt3__112basic_stringIcNS_11char_traitsIcEENS_9allocatorIcEEE13find_first_ofB8ue170006EPKcm, symObjAddr: 0x2AF0, symBinAddr: 0x100005D8C, symSize: 0x74 }
  - { offsetInCU: 0x370F9, offset: 0x370F9, size: 0x8, addend: 0x0, symName: __ZNSt3__112basic_stringIcNS_11char_traitsIcEENS_9allocatorIcEEEC1B8ue170006ILi0EEEPKc, symObjAddr: 0x2B64, symBinAddr: 0x100005E00, symSize: 0x34 }
  - { offsetInCU: 0x37138, offset: 0x37138, size: 0x8, addend: 0x0, symName: __ZN2sf5ColorC1Ehhhh, symObjAddr: 0x2B98, symBinAddr: 0x100005E34, symSize: 0x4C }
  - { offsetInCU: 0x371A0, offset: 0x371A0, size: 0x8, addend: 0x0, symName: __ZNSt3__14__fs10filesystem4pathC1B8ue170006INS_12basic_stringIcNS_11char_traitsIcEENS_9allocatorIcEEEEvEERKT_NS2_6formatE, symObjAddr: 0x2BE4, symBinAddr: 0x100005E80, symSize: 0x3C }
  - { offsetInCU: 0x371EF, offset: 0x371EF, size: 0x8, addend: 0x0, symName: __ZNSt3__14__fs10filesystem4pathD1B8ue170006Ev, symObjAddr: 0x2C20, symBinAddr: 0x100005EBC, symSize: 0x2C }
  - { offsetInCU: 0x37219, offset: 0x37219, size: 0x8, addend: 0x0, symName: __ZNSt3__113basic_ostreamIcNS_11char_traitsIcEEElsB8ue170006EPFRS3_S4_E, symObjAddr: 0x2C4C, symBinAddr: 0x100005EE8, symSize: 0x2C }
  - { offsetInCU: 0x3724E, offset: 0x3724E, size: 0x8, addend: 0x0, symName: __ZN2sf7Vector2IfEC1Eff, symObjAddr: 0x2CD0, symBinAddr: 0x100005F6C, symSize: 0x3C }
  - { offsetInCU: 0x37298, offset: 0x37298, size: 0x8, addend: 0x0, symName: __ZN2sf4TextD1Ev, symObjAddr: 0x2D0C, symBinAddr: 0x100005FA8, symSize: 0x2C }
  - { offsetInCU: 0x372EA, offset: 0x372EA, size: 0x8, addend: 0x0, symName: __ZNSt3__110shared_ptrIN2sf5ShapeEEC1B8ue170006INS1_11CircleShapeEvEEONS0_IT_EE, symObjAddr: 0x2D78, symBinAddr: 0x100006014, symSize: 0x34 }
  - { offsetInCU: 0x3732D, offset: 0x3732D, size: 0x8, addend: 0x0, symName: __ZNSt3__110shared_ptrIN2sf11CircleShapeEED1B8ue170006Ev, symObjAddr: 0x2DAC, symBinAddr: 0x100006048, symSize: 0x2C }
  - { offsetInCU: 0x37357, offset: 0x37357, size: 0x8, addend: 0x0, symName: __ZNKSt3__110shared_ptrIN2sf5ShapeEEptB8ue170006Ev, symObjAddr: 0x2DD8, symBinAddr: 0x100006074, symSize: 0x18 }
  - { offsetInCU: 0x3737D, offset: 0x3737D, size: 0x8, addend: 0x0, symName: __ZNKSt3__110shared_ptrIN2sf4TextEEptB8ue170006Ev, symObjAddr: 0x2E40, symBinAddr: 0x1000060DC, symSize: 0x18 }
  - { offsetInCU: 0x373A3, offset: 0x373A3, size: 0x8, addend: 0x0, symName: __ZNSt3__16vectorI15AssignmentShapeNS_9allocatorIS1_EEE9push_backB8ue170006EOS1_, symObjAddr: 0x2E58, symBinAddr: 0x1000060F4, symSize: 0x6C }
  - { offsetInCU: 0x373DA, offset: 0x373DA, size: 0x8, addend: 0x0, symName: __ZNSt3__110shared_ptrIN2sf5ShapeEEC1B8ue170006ERKS3_, symObjAddr: 0x2EC4, symBinAddr: 0x100006160, symSize: 0x34 }
  - { offsetInCU: 0x37413, offset: 0x37413, size: 0x8, addend: 0x0, symName: __ZNSt3__110shared_ptrIN2sf4TextEEC1B8ue170006ERKS3_, symObjAddr: 0x2EF8, symBinAddr: 0x100006194, symSize: 0x34 }
  - { offsetInCU: 0x3744C, offset: 0x3744C, size: 0x8, addend: 0x0, symName: __ZN15AssignmentShapeC1ENSt3__110shared_ptrIN2sf5ShapeEEEffNS1_INS2_4TextEEE, symObjAddr: 0x2F2C, symBinAddr: 0x1000061C8, symSize: 0x4C }
  - { offsetInCU: 0x374B4, offset: 0x374B4, size: 0x8, addend: 0x0, symName: __ZN15AssignmentShapeD1Ev, symObjAddr: 0x2F78, symBinAddr: 0x100006214, symSize: 0x2C }
  - { offsetInCU: 0x374E0, offset: 0x374E0, size: 0x8, addend: 0x0, symName: __ZNSt3__110shared_ptrIN2sf4TextEED1B8ue170006Ev, symObjAddr: 0x2FA4, symBinAddr: 0x100006240, symSize: 0x2C }
  - { offsetInCU: 0x3750A, offset: 0x3750A, size: 0x8, addend: 0x0, symName: __ZNSt3__110shared_ptrIN2sf5ShapeEED1B8ue170006Ev, symObjAddr: 0x2FD0, symBinAddr: 0x10000626C, symSize: 0x2C }
  - { offsetInCU: 0x37534, offset: 0x37534, size: 0x8, addend: 0x0, symName: __ZNKSt3__16vectorINS_12basic_stringIcNS_11char_traitsIcEENS_9allocatorIcEEEENS4_IS6_EEEixB8ue170006Em, symObjAddr: 0x2FFC, symBinAddr: 0x100006298, symSize: 0x2C }
  - { offsetInCU: 0x37591, offset: 0x37591, size: 0x8, addend: 0x0, symName: __ZNSt3__110shared_ptrIN2sf5ShapeEEC1B8ue170006INS1_14RectangleShapeEvEEONS0_IT_EE, symObjAddr: 0x3068, symBinAddr: 0x100006304, symSize: 0x34 }
  - { offsetInCU: 0x375D4, offset: 0x375D4, size: 0x8, addend: 0x0, symName: __ZNSt3__110shared_ptrIN2sf14RectangleShapeEED1B8ue170006Ev, symObjAddr: 0x309C, symBinAddr: 0x100006338, symSize: 0x2C }
  - { offsetInCU: 0x375FE, offset: 0x375FE, size: 0x8, addend: 0x0, symName: __ZNSt3__16vectorI15AssignmentShapeNS_9allocatorIS1_EEE5beginB8ue170006Ev, symObjAddr: 0x3184, symBinAddr: 0x100006420, symSize: 0x30 }
  - { offsetInCU: 0x37626, offset: 0x37626, size: 0x8, addend: 0x0, symName: __ZNSt3__16vectorI15AssignmentShapeNS_9allocatorIS1_EEE3endB8ue170006Ev, symObjAddr: 0x31B4, symBinAddr: 0x100006450, symSize: 0x30 }
  - { offsetInCU: 0x3764E, offset: 0x3764E, size: 0x8, addend: 0x0, symName: __ZNKSt3__111__wrap_iterIP15AssignmentShapeEdeB8ue170006Ev, symObjAddr: 0x3218, symBinAddr: 0x1000064B4, symSize: 0x18 }
  - { offsetInCU: 0x37674, offset: 0x37674, size: 0x8, addend: 0x0, symName: __ZNKSt3__110shared_ptrIN2sf5ShapeEEdeB8ue170006Ev, symObjAddr: 0x3230, symBinAddr: 0x1000064CC, symSize: 0x18 }
  - { offsetInCU: 0x3769A, offset: 0x3769A, size: 0x8, addend: 0x0, symName: __ZNKSt3__110shared_ptrIN2sf4TextEEdeB8ue170006Ev, symObjAddr: 0x3248, symBinAddr: 0x1000064E4, symSize: 0x18 }
  - { offsetInCU: 0x376C0, offset: 0x376C0, size: 0x8, addend: 0x0, symName: __ZN15AssignmentShape13moveArtifactsEv, symObjAddr: 0x3260, symBinAddr: 0x1000064FC, symSize: 0xFC }
  - { offsetInCU: 0x37731, offset: 0x37731, size: 0x8, addend: 0x0, symName: __ZN15AssignmentShape11checkBoundsEN2sf7Vector2IjEE, symObjAddr: 0x335C, symBinAddr: 0x1000065F8, symSize: 0x154 }
  - { offsetInCU: 0x37775, offset: 0x37775, size: 0x8, addend: 0x0, symName: __ZNSt3__111__wrap_iterIP15AssignmentShapeEppB8ue170006Ev, symObjAddr: 0x34B0, symBinAddr: 0x10000674C, symSize: 0x20 }
  - { offsetInCU: 0x3779B, offset: 0x3779B, size: 0x8, addend: 0x0, symName: __ZNSt3__16vectorI15AssignmentShapeNS_9allocatorIS1_EEED1B8ue170006Ev, symObjAddr: 0x34D0, symBinAddr: 0x10000676C, symSize: 0x2C }
  - { offsetInCU: 0x377CA, offset: 0x377CA, size: 0x8, addend: 0x0, symName: __ZNSt3__114basic_ifstreamIcNS_11char_traitsIcEEED1Ev, symObjAddr: 0x34FC, symBinAddr: 0x100006798, symSize: 0x40 }
  - { offsetInCU: 0x377F7, offset: 0x377F7, size: 0x8, addend: 0x0, symName: __ZN2sf4FontD1Ev, symObjAddr: 0x353C, symBinAddr: 0x1000067D8, symSize: 0x2C }
  - { offsetInCU: 0x37823, offset: 0x37823, size: 0x8, addend: 0x0, symName: __ZN2sf12RenderWindowD1Ev, symObjAddr: 0x3568, symBinAddr: 0x100006804, symSize: 0x2C }
  - { offsetInCU: 0x3784F, offset: 0x3784F, size: 0x8, addend: 0x0, symName: _main, symObjAddr: 0x3594, symBinAddr: 0x100006830, symSize: 0x34 }
  - { offsetInCU: 0x37888, offset: 0x37888, size: 0x8, addend: 0x0, symName: __ZNSt3__119basic_istringstreamIcNS_11char_traitsIcEENS_9allocatorIcEEED2Ev, symObjAddr: 0x35C8, symBinAddr: 0x100006864, symSize: 0x64 }
  - { offsetInCU: 0x378C2, offset: 0x378C2, size: 0x8, addend: 0x0, symName: __ZTv0_n24_NSt3__119basic_istringstreamIcNS_11char_traitsIcEENS_9allocatorIcEEED1Ev, symObjAddr: 0x362C, symBinAddr: 0x1000068C8, symSize: 0x28 }
  - { offsetInCU: 0x378DE, offset: 0x378DE, size: 0x8, addend: 0x0, symName: __ZNSt3__115basic_stringbufIcNS_11char_traitsIcEENS_9allocatorIcEEED1Ev, symObjAddr: 0x3654, symBinAddr: 0x1000068F0, symSize: 0x2C }
  - { offsetInCU: 0x3790B, offset: 0x3790B, size: 0x8, addend: 0x0, symName: __ZNSt3__115basic_stringbufIcNS_11char_traitsIcEENS_9allocatorIcEEED2Ev, symObjAddr: 0x3680, symBinAddr: 0x10000691C, symSize: 0x48 }
  - { offsetInCU: 0x37938, offset: 0x37938, size: 0x8, addend: 0x0, symName: __ZNSt3__118basic_stringstreamIcNS_11char_traitsIcEENS_9allocatorIcEEED2Ev, symObjAddr: 0x36C8, symBinAddr: 0x100006964, symSize: 0x6C }
  - { offsetInCU: 0x37972, offset: 0x37972, size: 0x8, addend: 0x0, symName: __ZThn16_NSt3__118basic_stringstreamIcNS_11char_traitsIcEENS_9allocatorIcEEED1Ev, symObjAddr: 0x3734, symBinAddr: 0x1000069D0, symSize: 0x1C }
  - { offsetInCU: 0x37989, offset: 0x37989, size: 0x8, addend: 0x0, symName: __ZTv0_n24_NSt3__118basic_stringstreamIcNS_11char_traitsIcEENS_9allocatorIcEEED1Ev, symObjAddr: 0x3750, symBinAddr: 0x1000069EC, symSize: 0x28 }
  - { offsetInCU: 0x379A0, offset: 0x379A0, size: 0x8, addend: 0x0, symName: __ZN2sf7Vector2IjEC2Ejj, symObjAddr: 0x3778, symBinAddr: 0x100006A14, symSize: 0x2C }
  - { offsetInCU: 0x379EA, offset: 0x379EA, size: 0x8, addend: 0x0, symName: __ZN2sf6StringD2Ev, symObjAddr: 0x37A4, symBinAddr: 0x100006A40, symSize: 0x2C }
  - { offsetInCU: 0x37A16, offset: 0x37A16, size: 0x8, addend: 0x0, symName: __ZNSt3__112basic_stringIDiNS_11char_traitsIDiEENS_9allocatorIDiEEED1Ev, symObjAddr: 0x37D0, symBinAddr: 0x100006A6C, symSize: 0x2C }
  - { offsetInCU: 0x37A40, offset: 0x37A40, size: 0x8, addend: 0x0, symName: __ZNSt3__112basic_stringIDiNS_11char_traitsIDiEENS_9allocatorIDiEEED2Ev, symObjAddr: 0x37FC, symBinAddr: 0x100006A98, symSize: 0x74 }
  - { offsetInCU: 0x37A6A, offset: 0x37A6A, size: 0x8, addend: 0x0, symName: __ZNKSt3__112basic_stringIDiNS_11char_traitsIDiEENS_9allocatorIDiEEE9__is_longB8ue170006Ev, symObjAddr: 0x3870, symBinAddr: 0x100006B0C, symSize: 0x38 }
  - { offsetInCU: 0x37A90, offset: 0x37A90, size: 0x8, addend: 0x0, symName: __ZNSt3__116allocator_traitsINS_9allocatorIDiEEE10deallocateB8ue170006ERS2_PDim, symObjAddr: 0x38A8, symBinAddr: 0x100006B44, symSize: 0x34 }
  - { offsetInCU: 0x37AD2, offset: 0x37AD2, size: 0x8, addend: 0x0, symName: __ZNSt3__112basic_stringIDiNS_11char_traitsIDiEENS_9allocatorIDiEEE7__allocB8ue170006Ev, symObjAddr: 0x38DC, symBinAddr: 0x100006B78, symSize: 0x24 }
  - { offsetInCU: 0x37AF8, offset: 0x37AF8, size: 0x8, addend: 0x0, symName: __ZNSt3__112basic_stringIDiNS_11char_traitsIDiEENS_9allocatorIDiEEE18__get_long_pointerB8ue170006Ev, symObjAddr: 0x3900, symBinAddr: 0x100006B9C, symSize: 0x28 }
  - { offsetInCU: 0x37B1E, offset: 0x37B1E, size: 0x8, addend: 0x0, symName: __ZNKSt3__112basic_stringIDiNS_11char_traitsIDiEENS_9allocatorIDiEEE14__get_long_capB8ue170006Ev, symObjAddr: 0x3928, symBinAddr: 0x100006BC4, symSize: 0x30 }
  - { offsetInCU: 0x37B44, offset: 0x37B44, size: 0x8, addend: 0x0, symName: __ZNKSt3__117__compressed_pairINS_12basic_stringIDiNS_11char_traitsIDiEENS_9allocatorIDiEEE5__repES5_E5firstB8ue170006Ev, symObjAddr: 0x3958, symBinAddr: 0x100006BF4, symSize: 0x24 }
  - { offsetInCU: 0x37B6A, offset: 0x37B6A, size: 0x8, addend: 0x0, symName: __ZNKSt3__122__compressed_pair_elemINS_12basic_stringIDiNS_11char_traitsIDiEENS_9allocatorIDiEEE5__repELi0ELb0EE5__getB8ue170006Ev, symObjAddr: 0x397C, symBinAddr: 0x100006C18, symSize: 0x14 }
  - { offsetInCU: 0x37B90, offset: 0x37B90, size: 0x8, addend: 0x0, symName: __ZNSt3__19allocatorIDiE10deallocateB8ue170006EPDim, symObjAddr: 0x3990, symBinAddr: 0x100006C2C, symSize: 0x40 }
  - { offsetInCU: 0x37BD4, offset: 0x37BD4, size: 0x8, addend: 0x0, symName: __ZNSt3__117__compressed_pairINS_12basic_stringIDiNS_11char_traitsIDiEENS_9allocatorIDiEEE5__repES5_E6secondB8ue170006Ev, symObjAddr: 0x3B04, symBinAddr: 0x100006DA0, symSize: 0x24 }
  - { offsetInCU: 0x37BFA, offset: 0x37BFA, size: 0x8, addend: 0x0, symName: __ZNSt3__122__compressed_pair_elemINS_9allocatorIDiEELi1ELb1EE5__getB8ue170006Ev, symObjAddr: 0x3B28, symBinAddr: 0x100006DC4, symSize: 0x14 }
  - { offsetInCU: 0x37C20, offset: 0x37C20, size: 0x8, addend: 0x0, symName: __ZNSt3__117__compressed_pairINS_12basic_stringIDiNS_11char_traitsIDiEENS_9allocatorIDiEEE5__repES5_E5firstB8ue170006Ev, symObjAddr: 0x3B3C, symBinAddr: 0x100006DD8, symSize: 0x24 }
  - { offsetInCU: 0x37C46, offset: 0x37C46, size: 0x8, addend: 0x0, symName: __ZNSt3__122__compressed_pair_elemINS_12basic_stringIDiNS_11char_traitsIDiEENS_9allocatorIDiEEE5__repELi0ELb0EE5__getB8ue170006Ev, symObjAddr: 0x3B60, symBinAddr: 0x100006DFC, symSize: 0x14 }
  - { offsetInCU: 0x37C6C, offset: 0x37C6C, size: 0x8, addend: 0x0, symName: __ZN2sf4FontC2Ev, symObjAddr: 0x3B74, symBinAddr: 0x100006E10, symSize: 0x58 }
  - { offsetInCU: 0x37C96, offset: 0x37C96, size: 0x8, addend: 0x0, symName: __ZNSt3__110shared_ptrIN2sf4Font11FontHandlesEEC1B8ue170006Ev, symObjAddr: 0x3BCC, symBinAddr: 0x100006E68, symSize: 0x2C }
  - { offsetInCU: 0x37CC5, offset: 0x37CC5, size: 0x8, addend: 0x0, symName: __ZN2sf4Font4InfoC1Ev, symObjAddr: 0x3BF8, symBinAddr: 0x100006E94, symSize: 0x2C }
  - { offsetInCU: 0x37CF1, offset: 0x37CF1, size: 0x8, addend: 0x0, symName: __ZNSt3__113unordered_mapIjN2sf4Font4PageENS_4hashIjEENS_8equal_toIjEENS_9allocatorINS_4pairIKjS3_EEEEEC1B8ue170006Ev, symObjAddr: 0x3C24, symBinAddr: 0x100006EC0, symSize: 0x2C }
  - { offsetInCU: 0x37D1B, offset: 0x37D1B, size: 0x8, addend: 0x0, symName: __ZNSt3__16vectorIhNS_9allocatorIhEEEC1B8ue170006Ev, symObjAddr: 0x3C50, symBinAddr: 0x100006EEC, symSize: 0x2C }
  - { offsetInCU: 0x37D45, offset: 0x37D45, size: 0x8, addend: 0x0, symName: __ZNSt3__110shared_ptrIN2sf4Font11FontHandlesEEC2B8ue170006Ev, symObjAddr: 0x3C7C, symBinAddr: 0x100006F18, symSize: 0x1C }
  - { offsetInCU: 0x37D6F, offset: 0x37D6F, size: 0x8, addend: 0x0, symName: __ZN2sf4Font4InfoC2Ev, symObjAddr: 0x3C98, symBinAddr: 0x100006F34, symSize: 0x2C }
  - { offsetInCU: 0x37D9B, offset: 0x37D9B, size: 0x8, addend: 0x0, symName: __ZNSt3__113unordered_mapIjN2sf4Font4PageENS_4hashIjEENS_8equal_toIjEENS_9allocatorINS_4pairIKjS3_EEEEEC2B8ue170006Ev, symObjAddr: 0x3CC4, symBinAddr: 0x100006F60, symSize: 0x2C }
  - { offsetInCU: 0x37DC5, offset: 0x37DC5, size: 0x8, addend: 0x0, symName: __ZNSt3__112__hash_tableINS_17__hash_value_typeIjN2sf4Font4PageEEENS_22__unordered_map_hasherIjS5_NS_4hashIjEENS_8equal_toIjEELb1EEENS_21__unordered_map_equalIjS5_SA_S8_Lb1EEENS_9allocatorIS5_EEEC1Ev, symObjAddr: 0x3CF0, symBinAddr: 0x100006F8C, symSize: 0x2C }
  - { offsetInCU: 0x37DF1, offset: 0x37DF1, size: 0x8, addend: 0x0, symName: __ZNSt3__112__hash_tableINS_17__hash_value_typeIjN2sf4Font4PageEEENS_22__unordered_map_hasherIjS5_NS_4hashIjEENS_8equal_toIjEELb1EEENS_21__unordered_map_equalIjS5_SA_S8_Lb1EEENS_9allocatorIS5_EEEC2Ev, symObjAddr: 0x3D1C, symBinAddr: 0x100006FB8, symSize: 0x7C }
  - { offsetInCU: 0x37E1D, offset: 0x37E1D, size: 0x8, addend: 0x0, symName: __ZNSt3__110unique_ptrIA_PNS_16__hash_node_baseIPNS_11__hash_nodeINS_17__hash_value_typeIjN2sf4Font4PageEEEPvEEEENS_25__bucket_list_deallocatorINS_9allocatorISC_EEEEEC1B8ue170006ILb1EvEEv, symObjAddr: 0x3D98, symBinAddr: 0x100007034, symSize: 0x2C }
  - { offsetInCU: 0x37E52, offset: 0x37E52, size: 0x8, addend: 0x0, symName: __ZNSt3__117__compressed_pairINS_16__hash_node_baseIPNS_11__hash_nodeINS_17__hash_value_typeIjN2sf4Font4PageEEEPvEEEENS_9allocatorIS9_EEEC1B8ue170006ILb1EvEEv, symObjAddr: 0x3DC4, symBinAddr: 0x100007060, symSize: 0x2C }
  - { offsetInCU: 0x37E93, offset: 0x37E93, size: 0x8, addend: 0x0, symName: __ZNSt3__117__compressed_pairImNS_22__unordered_map_hasherIjNS_17__hash_value_typeIjN2sf4Font4PageEEENS_4hashIjEENS_8equal_toIjEELb1EEEEC1B8ue170006IiNS_18__default_init_tagEEEOT_OT0_, symObjAddr: 0x3DF0, symBinAddr: 0x10000708C, symSize: 0x3C }
  - { offsetInCU: 0x37EF3, offset: 0x37EF3, size: 0x8, addend: 0x0, symName: __ZNSt3__117__compressed_pairIfNS_21__unordered_map_equalIjNS_17__hash_value_typeIjN2sf4Font4PageEEENS_8equal_toIjEENS_4hashIjEELb1EEEEC1B8ue170006IfNS_18__default_init_tagEEEOT_OT0_, symObjAddr: 0x3E2C, symBinAddr: 0x1000070C8, symSize: 0x3C }
  - { offsetInCU: 0x37F4D, offset: 0x37F4D, size: 0x8, addend: 0x0, symName: __ZNSt3__110unique_ptrIA_PNS_16__hash_node_baseIPNS_11__hash_nodeINS_17__hash_value_typeIjN2sf4Font4PageEEEPvEEEENS_25__bucket_list_deallocatorINS_9allocatorISC_EEEEEC2B8ue170006ILb1EvEEv, symObjAddr: 0x3E68, symBinAddr: 0x100007104, symSize: 0x3C }
  - { offsetInCU: 0x37F88, offset: 0x37F88, size: 0x8, addend: 0x0, symName: __ZNSt3__117__compressed_pairIPPNS_16__hash_node_baseIPNS_11__hash_nodeINS_17__hash_value_typeIjN2sf4Font4PageEEEPvEEEENS_25__bucket_list_deallocatorINS_9allocatorISC_EEEEEC1B8ue170006INS_16__value_init_tagESK_EEOT_OT0_, symObjAddr: 0x3EA4, symBinAddr: 0x100007140, symSize: 0x3C }
  - { offsetInCU: 0x37FE2, offset: 0x37FE2, size: 0x8, addend: 0x0, symName: __ZNSt3__117__compressed_pairIPPNS_16__hash_node_baseIPNS_11__hash_nodeINS_17__hash_value_typeIjN2sf4Font4PageEEEPvEEEENS_25__bucket_list_deallocatorINS_9allocatorISC_EEEEEC2B8ue170006INS_16__value_init_tagESK_EEOT_OT0_, symObjAddr: 0x3EE0, symBinAddr: 0x10000717C, symSize: 0x40 }
  - { offsetInCU: 0x3803C, offset: 0x3803C, size: 0x8, addend: 0x0, symName: __ZNSt3__122__compressed_pair_elemIPPNS_16__hash_node_baseIPNS_11__hash_nodeINS_17__hash_value_typeIjN2sf4Font4PageEEEPvEEEELi0ELb0EEC2B8ue170006ENS_16__value_init_tagE, symObjAddr: 0x3F20, symBinAddr: 0x1000071BC, symSize: 0x18 }
  - { offsetInCU: 0x38071, offset: 0x38071, size: 0x8, addend: 0x0, symName: __ZNSt3__122__compressed_pair_elemINS_25__bucket_list_deallocatorINS_9allocatorIPNS_16__hash_node_baseIPNS_11__hash_nodeINS_17__hash_value_typeIjN2sf4Font4PageEEEPvEEEEEEEELi1ELb0EEC2B8ue170006ENS_16__value_init_tagE, symObjAddr: 0x3F38, symBinAddr: 0x1000071D4, symSize: 0x2C }
  - { offsetInCU: 0x380A6, offset: 0x380A6, size: 0x8, addend: 0x0, symName: __ZNSt3__125__bucket_list_deallocatorINS_9allocatorIPNS_16__hash_node_baseIPNS_11__hash_nodeINS_17__hash_value_typeIjN2sf4Font4PageEEEPvEEEEEEEC1B8ue170006Ev, symObjAddr: 0x3F64, symBinAddr: 0x100007200, symSize: 0x2C }
  - { offsetInCU: 0x380D0, offset: 0x380D0, size: 0x8, addend: 0x0, symName: __ZNSt3__125__bucket_list_deallocatorINS_9allocatorIPNS_16__hash_node_baseIPNS_11__hash_nodeINS_17__hash_value_typeIjN2sf4Font4PageEEEPvEEEEEEEC2B8ue170006Ev, symObjAddr: 0x3F90, symBinAddr: 0x10000722C, symSize: 0x40 }
  - { offsetInCU: 0x380FA, offset: 0x380FA, size: 0x8, addend: 0x0, symName: __ZNSt3__117__compressed_pairImNS_9allocatorIPNS_16__hash_node_baseIPNS_11__hash_nodeINS_17__hash_value_typeIjN2sf4Font4PageEEEPvEEEEEEEC1B8ue170006IiNS_18__default_init_tagEEEOT_OT0_, symObjAddr: 0x3FD0, symBinAddr: 0x10000726C, symSize: 0x3C }
  - { offsetInCU: 0x38154, offset: 0x38154, size: 0x8, addend: 0x0, symName: __ZNSt3__117__compressed_pairImNS_9allocatorIPNS_16__hash_node_baseIPNS_11__hash_nodeINS_17__hash_value_typeIjN2sf4Font4PageEEEPvEEEEEEEC2B8ue170006IiNS_18__default_init_tagEEEOT_OT0_, symObjAddr: 0x400C, symBinAddr: 0x1000072A8, symSize: 0x40 }
  - { offsetInCU: 0x381AE, offset: 0x381AE, size: 0x8, addend: 0x0, symName: __ZNSt3__122__compressed_pair_elemImLi0ELb0EEC2B8ue170006IivEEOT_, symObjAddr: 0x404C, symBinAddr: 0x1000072E8, symSize: 0x24 }
  - { offsetInCU: 0x381F1, offset: 0x381F1, size: 0x8, addend: 0x0, symName: __ZNSt3__122__compressed_pair_elemINS_9allocatorIPNS_16__hash_node_baseIPNS_11__hash_nodeINS_17__hash_value_typeIjN2sf4Font4PageEEEPvEEEEEELi1ELb1EEC2B8ue170006ENS_18__default_init_tagE, symObjAddr: 0x4070, symBinAddr: 0x10000730C, symSize: 0x2C }
  - { offsetInCU: 0x38226, offset: 0x38226, size: 0x8, addend: 0x0, symName: __ZNSt3__19allocatorIPNS_16__hash_node_baseIPNS_11__hash_nodeINS_17__hash_value_typeIjN2sf4Font4PageEEEPvEEEEEC2B8ue170006Ev, symObjAddr: 0x409C, symBinAddr: 0x100007338, symSize: 0x2C }
  - { offsetInCU: 0x38250, offset: 0x38250, size: 0x8, addend: 0x0, symName: __ZNSt3__116__non_trivial_ifILb1ENS_9allocatorIPNS_16__hash_node_baseIPNS_11__hash_nodeINS_17__hash_value_typeIjN2sf4Font4PageEEEPvEEEEEEEC2B8ue170006Ev, symObjAddr: 0x40C8, symBinAddr: 0x100007364, symSize: 0x14 }
  - { offsetInCU: 0x3827A, offset: 0x3827A, size: 0x8, addend: 0x0, symName: __ZNSt3__117__compressed_pairINS_16__hash_node_baseIPNS_11__hash_nodeINS_17__hash_value_typeIjN2sf4Font4PageEEEPvEEEENS_9allocatorIS9_EEEC2B8ue170006ILb1EvEEv, symObjAddr: 0x40DC, symBinAddr: 0x100007378, symSize: 0x34 }
  - { offsetInCU: 0x382AF, offset: 0x382AF, size: 0x8, addend: 0x0, symName: __ZNSt3__122__compressed_pair_elemINS_16__hash_node_baseIPNS_11__hash_nodeINS_17__hash_value_typeIjN2sf4Font4PageEEEPvEEEELi0ELb0EEC2B8ue170006ENS_16__value_init_tagE, symObjAddr: 0x4110, symBinAddr: 0x1000073AC, symSize: 0x2C }
  - { offsetInCU: 0x382E4, offset: 0x382E4, size: 0x8, addend: 0x0, symName: __ZNSt3__122__compressed_pair_elemINS_9allocatorINS_11__hash_nodeINS_17__hash_value_typeIjN2sf4Font4PageEEEPvEEEELi1ELb1EEC2B8ue170006ENS_16__value_init_tagE, symObjAddr: 0x413C, symBinAddr: 0x1000073D8, symSize: 0x2C }
  - { offsetInCU: 0x38319, offset: 0x38319, size: 0x8, addend: 0x0, symName: __ZNSt3__116__hash_node_baseIPNS_11__hash_nodeINS_17__hash_value_typeIjN2sf4Font4PageEEEPvEEEC1B8ue170006Ev, symObjAddr: 0x4168, symBinAddr: 0x100007404, symSize: 0x2C }
  - { offsetInCU: 0x38343, offset: 0x38343, size: 0x8, addend: 0x0, symName: __ZNSt3__116__hash_node_baseIPNS_11__hash_nodeINS_17__hash_value_typeIjN2sf4Font4PageEEEPvEEEC2B8ue170006Ev, symObjAddr: 0x4194, symBinAddr: 0x100007430, symSize: 0x18 }
  - { offsetInCU: 0x3836D, offset: 0x3836D, size: 0x8, addend: 0x0, symName: __ZNSt3__19allocatorINS_11__hash_nodeINS_17__hash_value_typeIjN2sf4Font4PageEEEPvEEEC2B8ue170006Ev, symObjAddr: 0x41AC, symBinAddr: 0x100007448, symSize: 0x2C }
  - { offsetInCU: 0x38397, offset: 0x38397, size: 0x8, addend: 0x0, symName: __ZNSt3__116__non_trivial_ifILb1ENS_9allocatorINS_11__hash_nodeINS_17__hash_value_typeIjN2sf4Font4PageEEEPvEEEEEC2B8ue170006Ev, symObjAddr: 0x41D8, symBinAddr: 0x100007474, symSize: 0x14 }
  - { offsetInCU: 0x383C1, offset: 0x383C1, size: 0x8, addend: 0x0, symName: __ZNSt3__117__compressed_pairImNS_22__unordered_map_hasherIjNS_17__hash_value_typeIjN2sf4Font4PageEEENS_4hashIjEENS_8equal_toIjEELb1EEEEC2B8ue170006IiNS_18__default_init_tagEEEOT_OT0_, symObjAddr: 0x41EC, symBinAddr: 0x100007488, symSize: 0x40 }
  - { offsetInCU: 0x3841B, offset: 0x3841B, size: 0x8, addend: 0x0, symName: __ZNSt3__122__compressed_pair_elemINS_22__unordered_map_hasherIjNS_17__hash_value_typeIjN2sf4Font4PageEEENS_4hashIjEENS_8equal_toIjEELb1EEELi1ELb1EEC2B8ue170006ENS_18__default_init_tagE, symObjAddr: 0x422C, symBinAddr: 0x1000074C8, symSize: 0x2C }
  - { offsetInCU: 0x38450, offset: 0x38450, size: 0x8, addend: 0x0, symName: __ZNSt3__122__unordered_map_hasherIjNS_17__hash_value_typeIjN2sf4Font4PageEEENS_4hashIjEENS_8equal_toIjEELb1EEC2B8ue170006Ev, symObjAddr: 0x4258, symBinAddr: 0x1000074F4, symSize: 0x14 }
  - { offsetInCU: 0x3847A, offset: 0x3847A, size: 0x8, addend: 0x0, symName: __ZNSt3__117__compressed_pairIfNS_21__unordered_map_equalIjNS_17__hash_value_typeIjN2sf4Font4PageEEENS_8equal_toIjEENS_4hashIjEELb1EEEEC2B8ue170006IfNS_18__default_init_tagEEEOT_OT0_, symObjAddr: 0x426C, symBinAddr: 0x100007508, symSize: 0x40 }
  - { offsetInCU: 0x384D4, offset: 0x384D4, size: 0x8, addend: 0x0, symName: __ZNSt3__122__compressed_pair_elemIfLi0ELb0EEC2B8ue170006IfvEEOT_, symObjAddr: 0x42AC, symBinAddr: 0x100007548, symSize: 0x24 }
  - { offsetInCU: 0x38517, offset: 0x38517, size: 0x8, addend: 0x0, symName: __ZNSt3__122__compressed_pair_elemINS_21__unordered_map_equalIjNS_17__hash_value_typeIjN2sf4Font4PageEEENS_8equal_toIjEENS_4hashIjEELb1EEELi1ELb1EEC2B8ue170006ENS_18__default_init_tagE, symObjAddr: 0x42D0, symBinAddr: 0x10000756C, symSize: 0x2C }
  - { offsetInCU: 0x3854C, offset: 0x3854C, size: 0x8, addend: 0x0, symName: __ZNSt3__121__unordered_map_equalIjNS_17__hash_value_typeIjN2sf4Font4PageEEENS_8equal_toIjEENS_4hashIjEELb1EEC2B8ue170006Ev, symObjAddr: 0x42FC, symBinAddr: 0x100007598, symSize: 0x14 }
  - { offsetInCU: 0x38576, offset: 0x38576, size: 0x8, addend: 0x0, symName: __ZNSt3__16vectorIhNS_9allocatorIhEEEC2B8ue170006Ev, symObjAddr: 0x4310, symBinAddr: 0x1000075AC, symSize: 0x4C }
  - { offsetInCU: 0x385A6, offset: 0x385A6, size: 0x8, addend: 0x0, symName: __ZNSt3__117__compressed_pairIPhNS_9allocatorIhEEEC1B8ue170006IDnNS_18__default_init_tagEEEOT_OT0_, symObjAddr: 0x435C, symBinAddr: 0x1000075F8, symSize: 0x3C }
  - { offsetInCU: 0x38600, offset: 0x38600, size: 0x8, addend: 0x0, symName: __ZNSt3__117__compressed_pairIPhNS_9allocatorIhEEEC2B8ue170006IDnNS_18__default_init_tagEEEOT_OT0_, symObjAddr: 0x4398, symBinAddr: 0x100007634, symSize: 0x40 }
  - { offsetInCU: 0x3865A, offset: 0x3865A, size: 0x8, addend: 0x0, symName: __ZNSt3__122__compressed_pair_elemIPhLi0ELb0EEC2B8ue170006IDnvEEOT_, symObjAddr: 0x43D8, symBinAddr: 0x100007674, symSize: 0x1C }
  - { offsetInCU: 0x3869D, offset: 0x3869D, size: 0x8, addend: 0x0, symName: __ZNSt3__122__compressed_pair_elemINS_9allocatorIhEELi1ELb1EEC2B8ue170006ENS_18__default_init_tagE, symObjAddr: 0x43F4, symBinAddr: 0x100007690, symSize: 0x2C }
  - { offsetInCU: 0x386D2, offset: 0x386D2, size: 0x8, addend: 0x0, symName: __ZNSt3__19allocatorIhEC2B8ue170006Ev, symObjAddr: 0x4420, symBinAddr: 0x1000076BC, symSize: 0x2C }
  - { offsetInCU: 0x386FC, offset: 0x386FC, size: 0x8, addend: 0x0, symName: __ZNSt3__116__non_trivial_ifILb1ENS_9allocatorIhEEEC2B8ue170006Ev, symObjAddr: 0x444C, symBinAddr: 0x1000076E8, symSize: 0x14 }
  - { offsetInCU: 0x38726, offset: 0x38726, size: 0x8, addend: 0x0, symName: __ZN2sf5ColorC2Ehhhh, symObjAddr: 0x4460, symBinAddr: 0x1000076FC, symSize: 0x44 }
  - { offsetInCU: 0x3878E, offset: 0x3878E, size: 0x8, addend: 0x0, symName: __ZNSt3__14__fs10filesystem4pathD2B8ue170006Ev, symObjAddr: 0x44A4, symBinAddr: 0x100007740, symSize: 0x2C }
  - { offsetInCU: 0x387B8, offset: 0x387B8, size: 0x8, addend: 0x0, symName: __ZN2sf7Vector2IfEC2Eff, symObjAddr: 0x44D0, symBinAddr: 0x10000776C, symSize: 0x2C }
  - { offsetInCU: 0x38802, offset: 0x38802, size: 0x8, addend: 0x0, symName: __ZN2sf4TextD2Ev, symObjAddr: 0x44FC, symBinAddr: 0x100007798, symSize: 0x74 }
  - { offsetInCU: 0x3882E, offset: 0x3882E, size: 0x8, addend: 0x0, symName: __ZThn8_N2sf4TextD1Ev, symObjAddr: 0x4570, symBinAddr: 0x10000780C, symSize: 0x1C }
  - { offsetInCU: 0x38844, offset: 0x38844, size: 0x8, addend: 0x0, symName: __ZN2sf11VertexArrayD1Ev, symObjAddr: 0x458C, symBinAddr: 0x100007828, symSize: 0x2C }
  - { offsetInCU: 0x38870, offset: 0x38870, size: 0x8, addend: 0x0, symName: __ZN2sf13TransformableD2Ev, symObjAddr: 0x45B8, symBinAddr: 0x100007854, symSize: 0x14 }
  - { offsetInCU: 0x3889A, offset: 0x3889A, size: 0x8, addend: 0x0, symName: __ZN2sf8DrawableD2Ev, symObjAddr: 0x45CC, symBinAddr: 0x100007868, symSize: 0x14 }
  - { offsetInCU: 0x388C4, offset: 0x388C4, size: 0x8, addend: 0x0, symName: __ZN2sf11VertexArrayD2Ev, symObjAddr: 0x45E0, symBinAddr: 0x10000787C, symSize: 0x48 }
  - { offsetInCU: 0x388F0, offset: 0x388F0, size: 0x8, addend: 0x0, symName: __ZNSt3__16vectorIN2sf6VertexENS_9allocatorIS2_EEED1B8ue170006Ev, symObjAddr: 0x4628, symBinAddr: 0x1000078C4, symSize: 0x2C }
  - { offsetInCU: 0x3891A, offset: 0x3891A, size: 0x8, addend: 0x0, symName: __ZNSt3__16vectorIN2sf6VertexENS_9allocatorIS2_EEED2B8ue170006Ev, symObjAddr: 0x4654, symBinAddr: 0x1000078F0, symSize: 0x44 }
  - { offsetInCU: 0x38944, offset: 0x38944, size: 0x8, addend: 0x0, symName: __ZNSt3__16vectorIN2sf6VertexENS_9allocatorIS2_EEE16__destroy_vectorC1B8ue170006ERS5_, symObjAddr: 0x4698, symBinAddr: 0x100007934, symSize: 0x34 }
  - { offsetInCU: 0x3897D, offset: 0x3897D, size: 0x8, addend: 0x0, symName: __ZNSt3__16vectorIN2sf6VertexENS_9allocatorIS2_EEE16__destroy_vectorclB8ue170006Ev, symObjAddr: 0x46CC, symBinAddr: 0x100007968, symSize: 0x90 }
  - { offsetInCU: 0x389A3, offset: 0x389A3, size: 0x8, addend: 0x0, symName: __ZNSt3__16vectorIN2sf6VertexENS_9allocatorIS2_EEE16__destroy_vectorC2B8ue170006ERS5_, symObjAddr: 0x475C, symBinAddr: 0x1000079F8, symSize: 0x20 }
  - { offsetInCU: 0x389DC, offset: 0x389DC, size: 0x8, addend: 0x0, symName: __ZNSt3__16vectorIN2sf6VertexENS_9allocatorIS2_EEE7__clearB8ue170006Ev, symObjAddr: 0x477C, symBinAddr: 0x100007A18, symSize: 0x28 }
  - { offsetInCU: 0x38A02, offset: 0x38A02, size: 0x8, addend: 0x0, symName: __ZNKSt3__16vectorIN2sf6VertexENS_9allocatorIS2_EEE17__annotate_deleteB8ue170006Ev, symObjAddr: 0x47A4, symBinAddr: 0x100007A40, symSize: 0xD4 }
  - { offsetInCU: 0x38A28, offset: 0x38A28, size: 0x8, addend: 0x0, symName: __ZNSt3__116allocator_traitsINS_9allocatorIN2sf6VertexEEEE10deallocateB8ue170006ERS4_PS3_m, symObjAddr: 0x4878, symBinAddr: 0x100007B14, symSize: 0x34 }
  - { offsetInCU: 0x38A6A, offset: 0x38A6A, size: 0x8, addend: 0x0, symName: __ZNSt3__16vectorIN2sf6VertexENS_9allocatorIS2_EEE7__allocB8ue170006Ev, symObjAddr: 0x48AC, symBinAddr: 0x100007B48, symSize: 0x28 }
  - { offsetInCU: 0x38A90, offset: 0x38A90, size: 0x8, addend: 0x0, symName: __ZNKSt3__16vectorIN2sf6VertexENS_9allocatorIS2_EEE8capacityB8ue170006Ev, symObjAddr: 0x48D4, symBinAddr: 0x100007B70, symSize: 0x40 }
  - { offsetInCU: 0x38AB6, offset: 0x38AB6, size: 0x8, addend: 0x0, symName: __ZNSt3__16vectorIN2sf6VertexENS_9allocatorIS2_EEE22__base_destruct_at_endB8ue170006EPS2_, symObjAddr: 0x4914, symBinAddr: 0x100007BB0, symSize: 0x8C }
  - { offsetInCU: 0x38AFA, offset: 0x38AFA, size: 0x8, addend: 0x0, symName: __ZNSt3__116allocator_traitsINS_9allocatorIN2sf6VertexEEEE7destroyB8ue170006IS3_vEEvRS4_PT_, symObjAddr: 0x49A0, symBinAddr: 0x100007C3C, symSize: 0x2C }
  - { offsetInCU: 0x38B37, offset: 0x38B37, size: 0x8, addend: 0x0, symName: __ZNSt3__19allocatorIN2sf6VertexEE7destroyB8ue170006EPS2_, symObjAddr: 0x49E0, symBinAddr: 0x100007C7C, symSize: 0x14 }
  - { offsetInCU: 0x38B6C, offset: 0x38B6C, size: 0x8, addend: 0x0, symName: __ZNKSt3__16vectorIN2sf6VertexENS_9allocatorIS2_EEE31__annotate_contiguous_containerB8ue170006EPKvS7_S7_S7_, symObjAddr: 0x49F4, symBinAddr: 0x100007C90, symSize: 0x20 }
  - { offsetInCU: 0x38BC2, offset: 0x38BC2, size: 0x8, addend: 0x0, symName: __ZNKSt3__16vectorIN2sf6VertexENS_9allocatorIS2_EEE4dataB8ue170006Ev, symObjAddr: 0x4A14, symBinAddr: 0x100007CB0, symSize: 0x28 }
  - { offsetInCU: 0x38BE8, offset: 0x38BE8, size: 0x8, addend: 0x0, symName: __ZNKSt3__16vectorIN2sf6VertexENS_9allocatorIS2_EEE4sizeB8ue170006Ev, symObjAddr: 0x4A3C, symBinAddr: 0x100007CD8, symSize: 0x28 }
  - { offsetInCU: 0x38C0E, offset: 0x38C0E, size: 0x8, addend: 0x0, symName: __ZNSt3__19allocatorIN2sf6VertexEE10deallocateB8ue170006EPS2_m, symObjAddr: 0x4A64, symBinAddr: 0x100007D00, symSize: 0x44 }
  - { offsetInCU: 0x38C52, offset: 0x38C52, size: 0x8, addend: 0x0, symName: __ZNSt3__117__compressed_pairIPN2sf6VertexENS_9allocatorIS2_EEE6secondB8ue170006Ev, symObjAddr: 0x4AA8, symBinAddr: 0x100007D44, symSize: 0x24 }
  - { offsetInCU: 0x38C78, offset: 0x38C78, size: 0x8, addend: 0x0, symName: __ZNSt3__122__compressed_pair_elemINS_9allocatorIN2sf6VertexEEELi1ELb1EE5__getB8ue170006Ev, symObjAddr: 0x4ACC, symBinAddr: 0x100007D68, symSize: 0x14 }
  - { offsetInCU: 0x38C9E, offset: 0x38C9E, size: 0x8, addend: 0x0, symName: __ZNKSt3__16vectorIN2sf6VertexENS_9allocatorIS2_EEE9__end_capB8ue170006Ev, symObjAddr: 0x4AE0, symBinAddr: 0x100007D7C, symSize: 0x28 }
  - { offsetInCU: 0x38CC4, offset: 0x38CC4, size: 0x8, addend: 0x0, symName: __ZNKSt3__117__compressed_pairIPN2sf6VertexENS_9allocatorIS2_EEE5firstB8ue170006Ev, symObjAddr: 0x4B08, symBinAddr: 0x100007DA4, symSize: 0x24 }
  - { offsetInCU: 0x38CEA, offset: 0x38CEA, size: 0x8, addend: 0x0, symName: __ZNKSt3__122__compressed_pair_elemIPN2sf6VertexELi0ELb0EE5__getB8ue170006Ev, symObjAddr: 0x4B2C, symBinAddr: 0x100007DC8, symSize: 0x14 }
  - { offsetInCU: 0x38D10, offset: 0x38D10, size: 0x8, addend: 0x0, symName: __ZN15AssignmentShapeC2ENSt3__110shared_ptrIN2sf5ShapeEEEffNS1_INS2_4TextEEE, symObjAddr: 0x4B40, symBinAddr: 0x100007DDC, symSize: 0x7C }
  - { offsetInCU: 0x38D78, offset: 0x38D78, size: 0x8, addend: 0x0, symName: __ZNSt3__110shared_ptrIN2sf5ShapeEEC1B8ue170006Ev, symObjAddr: 0x4BBC, symBinAddr: 0x100007E58, symSize: 0x2C }
  - { offsetInCU: 0x38DA2, offset: 0x38DA2, size: 0x8, addend: 0x0, symName: __ZNSt3__110shared_ptrIN2sf4TextEEC1B8ue170006Ev, symObjAddr: 0x4BE8, symBinAddr: 0x100007E84, symSize: 0x2C }
  - { offsetInCU: 0x38DCC, offset: 0x38DCC, size: 0x8, addend: 0x0, symName: __ZNSt3__110shared_ptrIN2sf5ShapeEEaSB8ue170006ERKS3_, symObjAddr: 0x4C14, symBinAddr: 0x100007EB0, symSize: 0x50 }
  - { offsetInCU: 0x38E01, offset: 0x38E01, size: 0x8, addend: 0x0, symName: __ZNSt3__110shared_ptrIN2sf4TextEEaSB8ue170006ERKS3_, symObjAddr: 0x4C64, symBinAddr: 0x100007F00, symSize: 0x50 }
  - { offsetInCU: 0x38E36, offset: 0x38E36, size: 0x8, addend: 0x0, symName: __ZNSt3__110shared_ptrIN2sf5ShapeEEC2B8ue170006Ev, symObjAddr: 0x4CB4, symBinAddr: 0x100007F50, symSize: 0x1C }
  - { offsetInCU: 0x38E60, offset: 0x38E60, size: 0x8, addend: 0x0, symName: __ZNSt3__110shared_ptrIN2sf4TextEEC2B8ue170006Ev, symObjAddr: 0x4CD0, symBinAddr: 0x100007F6C, symSize: 0x1C }
  - { offsetInCU: 0x38E8A, offset: 0x38E8A, size: 0x8, addend: 0x0, symName: __ZNSt3__110shared_ptrIN2sf5ShapeEE4swapB8ue170006ERS3_, symObjAddr: 0x4CEC, symBinAddr: 0x100007F88, symSize: 0x44 }
  - { offsetInCU: 0x38EBF, offset: 0x38EBF, size: 0x8, addend: 0x0, symName: __ZNSt3__110shared_ptrIN2sf4TextEE4swapB8ue170006ERS3_, symObjAddr: 0x4DA8, symBinAddr: 0x100008044, symSize: 0x44 }
  - { offsetInCU: 0x38EF4, offset: 0x38EF4, size: 0x8, addend: 0x0, symName: __ZN15AssignmentShapeD2Ev, symObjAddr: 0x4E28, symBinAddr: 0x1000080C4, symSize: 0x38 }
  - { offsetInCU: 0x38F20, offset: 0x38F20, size: 0x8, addend: 0x0, symName: __ZNKSt3__111__wrap_iterIP15AssignmentShapeE4baseB8ue170006Ev, symObjAddr: 0x4EA8, symBinAddr: 0x100008144, symSize: 0x18 }
  - { offsetInCU: 0x38F46, offset: 0x38F46, size: 0x8, addend: 0x0, symName: __ZNSt3__114basic_ifstreamIcNS_11char_traitsIcEEED2Ev, symObjAddr: 0x4EC0, symBinAddr: 0x10000815C, symSize: 0x64 }
  - { offsetInCU: 0x38F80, offset: 0x38F80, size: 0x8, addend: 0x0, symName: __ZTv0_n24_NSt3__114basic_ifstreamIcNS_11char_traitsIcEEED1Ev, symObjAddr: 0x4F24, symBinAddr: 0x1000081C0, symSize: 0x28 }
  - { offsetInCU: 0x38F97, offset: 0x38F97, size: 0x8, addend: 0x0, symName: __ZN2sf4FontD2Ev, symObjAddr: 0x4F4C, symBinAddr: 0x1000081E8, symSize: 0x50 }
  - { offsetInCU: 0x38FC3, offset: 0x38FC3, size: 0x8, addend: 0x0, symName: __ZNSt3__16vectorIhNS_9allocatorIhEEED1B8ue170006Ev, symObjAddr: 0x4F9C, symBinAddr: 0x100008238, symSize: 0x2C }
  - { offsetInCU: 0x38FED, offset: 0x38FED, size: 0x8, addend: 0x0, symName: __ZNSt3__113unordered_mapIjN2sf4Font4PageENS_4hashIjEENS_8equal_toIjEENS_9allocatorINS_4pairIKjS3_EEEEED1B8ue170006Ev, symObjAddr: 0x4FC8, symBinAddr: 0x100008264, symSize: 0x2C }
  - { offsetInCU: 0x39017, offset: 0x39017, size: 0x8, addend: 0x0, symName: __ZN2sf4Font4InfoD1Ev, symObjAddr: 0x4FF4, symBinAddr: 0x100008290, symSize: 0x2C }
  - { offsetInCU: 0x39043, offset: 0x39043, size: 0x8, addend: 0x0, symName: __ZNSt3__110shared_ptrIN2sf4Font11FontHandlesEED1B8ue170006Ev, symObjAddr: 0x5020, symBinAddr: 0x1000082BC, symSize: 0x2C }
  - { offsetInCU: 0x3906D, offset: 0x3906D, size: 0x8, addend: 0x0, symName: __ZNSt3__16vectorIhNS_9allocatorIhEEED2B8ue170006Ev, symObjAddr: 0x504C, symBinAddr: 0x1000082E8, symSize: 0x44 }
  - { offsetInCU: 0x39097, offset: 0x39097, size: 0x8, addend: 0x0, symName: __ZNSt3__16vectorIhNS_9allocatorIhEEE16__destroy_vectorC1B8ue170006ERS3_, symObjAddr: 0x5090, symBinAddr: 0x10000832C, symSize: 0x34 }
  - { offsetInCU: 0x390D0, offset: 0x390D0, size: 0x8, addend: 0x0, symName: __ZNSt3__16vectorIhNS_9allocatorIhEEE16__destroy_vectorclB8ue170006Ev, symObjAddr: 0x50C4, symBinAddr: 0x100008360, symSize: 0x90 }
  - { offsetInCU: 0x390F6, offset: 0x390F6, size: 0x8, addend: 0x0, symName: __ZNSt3__16vectorIhNS_9allocatorIhEEE16__destroy_vectorC2B8ue170006ERS3_, symObjAddr: 0x5154, symBinAddr: 0x1000083F0, symSize: 0x20 }
  - { offsetInCU: 0x3912F, offset: 0x3912F, size: 0x8, addend: 0x0, symName: __ZNSt3__16vectorIhNS_9allocatorIhEEE7__clearB8ue170006Ev, symObjAddr: 0x5174, symBinAddr: 0x100008410, symSize: 0x28 }
  - { offsetInCU: 0x39155, offset: 0x39155, size: 0x8, addend: 0x0, symName: __ZNKSt3__16vectorIhNS_9allocatorIhEEE17__annotate_deleteB8ue170006Ev, symObjAddr: 0x519C, symBinAddr: 0x100008438, symSize: 0xB8 }
  - { offsetInCU: 0x3917B, offset: 0x3917B, size: 0x8, addend: 0x0, symName: __ZNSt3__116allocator_traitsINS_9allocatorIhEEE10deallocateB8ue170006ERS2_Phm, symObjAddr: 0x5254, symBinAddr: 0x1000084F0, symSize: 0x34 }
  - { offsetInCU: 0x391BD, offset: 0x391BD, size: 0x8, addend: 0x0, symName: __ZNSt3__16vectorIhNS_9allocatorIhEEE7__allocB8ue170006Ev, symObjAddr: 0x5288, symBinAddr: 0x100008524, symSize: 0x28 }
  - { offsetInCU: 0x391E3, offset: 0x391E3, size: 0x8, addend: 0x0, symName: __ZNKSt3__16vectorIhNS_9allocatorIhEEE8capacityB8ue170006Ev, symObjAddr: 0x52B0, symBinAddr: 0x10000854C, symSize: 0x38 }
  - { offsetInCU: 0x39209, offset: 0x39209, size: 0x8, addend: 0x0, symName: __ZNSt3__16vectorIhNS_9allocatorIhEEE22__base_destruct_at_endB8ue170006EPh, symObjAddr: 0x52E8, symBinAddr: 0x100008584, symSize: 0x8C }
  - { offsetInCU: 0x3924D, offset: 0x3924D, size: 0x8, addend: 0x0, symName: __ZNSt3__116allocator_traitsINS_9allocatorIhEEE7destroyB8ue170006IhvEEvRS2_PT_, symObjAddr: 0x5374, symBinAddr: 0x100008610, symSize: 0x2C }
  - { offsetInCU: 0x3928A, offset: 0x3928A, size: 0x8, addend: 0x0, symName: __ZNSt3__19allocatorIhE7destroyB8ue170006EPh, symObjAddr: 0x53B4, symBinAddr: 0x100008650, symSize: 0x14 }
  - { offsetInCU: 0x392BF, offset: 0x392BF, size: 0x8, addend: 0x0, symName: __ZNKSt3__16vectorIhNS_9allocatorIhEEE31__annotate_contiguous_containerB8ue170006EPKvS5_S5_S5_, symObjAddr: 0x53C8, symBinAddr: 0x100008664, symSize: 0x20 }
  - { offsetInCU: 0x39315, offset: 0x39315, size: 0x8, addend: 0x0, symName: __ZNKSt3__16vectorIhNS_9allocatorIhEEE4dataB8ue170006Ev, symObjAddr: 0x53E8, symBinAddr: 0x100008684, symSize: 0x28 }
  - { offsetInCU: 0x3933B, offset: 0x3933B, size: 0x8, addend: 0x0, symName: __ZNKSt3__16vectorIhNS_9allocatorIhEEE4sizeB8ue170006Ev, symObjAddr: 0x5410, symBinAddr: 0x1000086AC, symSize: 0x20 }
  - { offsetInCU: 0x39361, offset: 0x39361, size: 0x8, addend: 0x0, symName: __ZNSt3__19allocatorIhE10deallocateB8ue170006EPhm, symObjAddr: 0x5430, symBinAddr: 0x1000086CC, symSize: 0x40 }
  - { offsetInCU: 0x393A5, offset: 0x393A5, size: 0x8, addend: 0x0, symName: __ZNSt3__117__compressed_pairIPhNS_9allocatorIhEEE6secondB8ue170006Ev, symObjAddr: 0x5470, symBinAddr: 0x10000870C, symSize: 0x24 }
  - { offsetInCU: 0x393CB, offset: 0x393CB, size: 0x8, addend: 0x0, symName: __ZNSt3__122__compressed_pair_elemINS_9allocatorIhEELi1ELb1EE5__getB8ue170006Ev, symObjAddr: 0x5494, symBinAddr: 0x100008730, symSize: 0x14 }
  - { offsetInCU: 0x393F1, offset: 0x393F1, size: 0x8, addend: 0x0, symName: __ZNKSt3__16vectorIhNS_9allocatorIhEEE9__end_capB8ue170006Ev, symObjAddr: 0x54A8, symBinAddr: 0x100008744, symSize: 0x28 }
  - { offsetInCU: 0x39417, offset: 0x39417, size: 0x8, addend: 0x0, symName: __ZNKSt3__117__compressed_pairIPhNS_9allocatorIhEEE5firstB8ue170006Ev, symObjAddr: 0x54D0, symBinAddr: 0x10000876C, symSize: 0x24 }
  - { offsetInCU: 0x3943D, offset: 0x3943D, size: 0x8, addend: 0x0, symName: __ZNKSt3__122__compressed_pair_elemIPhLi0ELb0EE5__getB8ue170006Ev, symObjAddr: 0x54F4, symBinAddr: 0x100008790, symSize: 0x14 }
  - { offsetInCU: 0x39463, offset: 0x39463, size: 0x8, addend: 0x0, symName: __ZNSt3__113unordered_mapIjN2sf4Font4PageENS_4hashIjEENS_8equal_toIjEENS_9allocatorINS_4pairIKjS3_EEEEED2B8ue170006Ev, symObjAddr: 0x5508, symBinAddr: 0x1000087A4, symSize: 0x2C }
  - { offsetInCU: 0x3948D, offset: 0x3948D, size: 0x8, addend: 0x0, symName: __ZNSt3__112__hash_tableINS_17__hash_value_typeIjN2sf4Font4PageEEENS_22__unordered_map_hasherIjS5_NS_4hashIjEENS_8equal_toIjEELb1EEENS_21__unordered_map_equalIjS5_SA_S8_Lb1EEENS_9allocatorIS5_EEED1Ev, symObjAddr: 0x5534, symBinAddr: 0x1000087D0, symSize: 0x2C }
  - { offsetInCU: 0x394B9, offset: 0x394B9, size: 0x8, addend: 0x0, symName: __ZNSt3__112__hash_tableINS_17__hash_value_typeIjN2sf4Font4PageEEENS_22__unordered_map_hasherIjS5_NS_4hashIjEENS_8equal_toIjEELb1EEENS_21__unordered_map_equalIjS5_SA_S8_Lb1EEENS_9allocatorIS5_EEED2Ev, symObjAddr: 0x5560, symBinAddr: 0x1000087FC, symSize: 0x48 }
  - { offsetInCU: 0x394E5, offset: 0x394E5, size: 0x8, addend: 0x0, symName: __ZNSt3__112__hash_tableINS_17__hash_value_typeIjN2sf4Font4PageEEENS_22__unordered_map_hasherIjS5_NS_4hashIjEENS_8equal_toIjEELb1EEENS_21__unordered_map_equalIjS5_SA_S8_Lb1EEENS_9allocatorIS5_EEE17__deallocate_nodeEPNS_16__hash_node_baseIPNS_11__hash_nodeIS5_PvEEEE, symObjAddr: 0x55A8, symBinAddr: 0x100008844, symSize: 0xA8 }
  - { offsetInCU: 0x3954F, offset: 0x3954F, size: 0x8, addend: 0x0, symName: __ZNSt3__117__compressed_pairINS_16__hash_node_baseIPNS_11__hash_nodeINS_17__hash_value_typeIjN2sf4Font4PageEEEPvEEEENS_9allocatorIS9_EEE5firstB8ue170006Ev, symObjAddr: 0x5650, symBinAddr: 0x1000088EC, symSize: 0x24 }
  - { offsetInCU: 0x39575, offset: 0x39575, size: 0x8, addend: 0x0, symName: __ZNSt3__110unique_ptrIA_PNS_16__hash_node_baseIPNS_11__hash_nodeINS_17__hash_value_typeIjN2sf4Font4PageEEEPvEEEENS_25__bucket_list_deallocatorINS_9allocatorISC_EEEEED1B8ue170006Ev, symObjAddr: 0x5674, symBinAddr: 0x100008910, symSize: 0x2C }
  - { offsetInCU: 0x3959F, offset: 0x3959F, size: 0x8, addend: 0x0, symName: __ZNSt3__112__hash_tableINS_17__hash_value_typeIjN2sf4Font4PageEEENS_22__unordered_map_hasherIjS5_NS_4hashIjEENS_8equal_toIjEELb1EEENS_21__unordered_map_equalIjS5_SA_S8_Lb1EEENS_9allocatorIS5_EEE12__node_allocB8ue170006Ev, symObjAddr: 0x56A0, symBinAddr: 0x10000893C, symSize: 0x28 }
  - { offsetInCU: 0x395C5, offset: 0x395C5, size: 0x8, addend: 0x0, symName: __ZNSt3__116__hash_node_baseIPNS_11__hash_nodeINS_17__hash_value_typeIjN2sf4Font4PageEEEPvEEE8__upcastB8ue170006Ev, symObjAddr: 0x56C8, symBinAddr: 0x100008964, symSize: 0x24 }
  - { offsetInCU: 0x395F1, offset: 0x395F1, size: 0x8, addend: 0x0, symName: __ZNSt3__116allocator_traitsINS_9allocatorINS_11__hash_nodeINS_17__hash_value_typeIjN2sf4Font4PageEEEPvEEEEE7destroyB8ue170006INS_4pairIKjS6_EEvvEEvRSA_PT_, symObjAddr: 0x56EC, symBinAddr: 0x100008988, symSize: 0x28 }
  - { offsetInCU: 0x3962C, offset: 0x3962C, size: 0x8, addend: 0x0, symName: __ZNSt3__122__hash_key_value_typesINS_17__hash_value_typeIjN2sf4Font4PageEEEE9__get_ptrB8ue170006ERS5_, symObjAddr: 0x5714, symBinAddr: 0x1000089B0, symSize: 0x24 }
  - { offsetInCU: 0x39650, offset: 0x39650, size: 0x8, addend: 0x0, symName: __ZNSt3__116allocator_traitsINS_9allocatorINS_11__hash_nodeINS_17__hash_value_typeIjN2sf4Font4PageEEEPvEEEEE10deallocateB8ue170006ERSA_PS9_m, symObjAddr: 0x5738, symBinAddr: 0x1000089D4, symSize: 0x34 }
  - { offsetInCU: 0x39692, offset: 0x39692, size: 0x8, addend: 0x0, symName: __ZNSt3__117__compressed_pairINS_16__hash_node_baseIPNS_11__hash_nodeINS_17__hash_value_typeIjN2sf4Font4PageEEEPvEEEENS_9allocatorIS9_EEE6secondB8ue170006Ev, symObjAddr: 0x576C, symBinAddr: 0x100008A08, symSize: 0x24 }
  - { offsetInCU: 0x396B8, offset: 0x396B8, size: 0x8, addend: 0x0, symName: __ZNSt3__122__compressed_pair_elemINS_9allocatorINS_11__hash_nodeINS_17__hash_value_typeIjN2sf4Font4PageEEEPvEEEELi1ELb1EE5__getB8ue170006Ev, symObjAddr: 0x5790, symBinAddr: 0x100008A2C, symSize: 0x14 }
  - { offsetInCU: 0x396DE, offset: 0x396DE, size: 0x8, addend: 0x0, symName: __ZNSt3__114pointer_traitsIPNS_16__hash_node_baseIPNS_11__hash_nodeINS_17__hash_value_typeIjN2sf4Font4PageEEEPvEEEEE10pointer_toB8ue170006ERSB_, symObjAddr: 0x57A4, symBinAddr: 0x100008A40, symSize: 0x14 }
  - { offsetInCU: 0x39702, offset: 0x39702, size: 0x8, addend: 0x0, symName: __ZNSt3__14pairIKjN2sf4Font4PageEED1Ev, symObjAddr: 0x57B8, symBinAddr: 0x100008A54, symSize: 0x2C }
  - { offsetInCU: 0x3972E, offset: 0x3972E, size: 0x8, addend: 0x0, symName: __ZNSt3__14pairIKjN2sf4Font4PageEED2Ev, symObjAddr: 0x57E4, symBinAddr: 0x100008A80, symSize: 0x30 }
  - { offsetInCU: 0x3975A, offset: 0x3975A, size: 0x8, addend: 0x0, symName: __ZN2sf4Font4PageD1Ev, symObjAddr: 0x5814, symBinAddr: 0x100008AB0, symSize: 0x2C }
  - { offsetInCU: 0x39787, offset: 0x39787, size: 0x8, addend: 0x0, symName: __ZN2sf4Font4PageD2Ev, symObjAddr: 0x5840, symBinAddr: 0x100008ADC, symSize: 0x44 }
  - { offsetInCU: 0x397B4, offset: 0x397B4, size: 0x8, addend: 0x0, symName: __ZNSt3__16vectorIN2sf4Font3RowENS_9allocatorIS3_EEED1B8ue170006Ev, symObjAddr: 0x5884, symBinAddr: 0x100008B20, symSize: 0x2C }
  - { offsetInCU: 0x397DE, offset: 0x397DE, size: 0x8, addend: 0x0, symName: __ZNSt3__113unordered_mapIyN2sf5GlyphENS_4hashIyEENS_8equal_toIyEENS_9allocatorINS_4pairIKyS2_EEEEED1B8ue170006Ev, symObjAddr: 0x58B0, symBinAddr: 0x100008B4C, symSize: 0x2C }
  - { offsetInCU: 0x39808, offset: 0x39808, size: 0x8, addend: 0x0, symName: __ZNSt3__16vectorIN2sf4Font3RowENS_9allocatorIS3_EEED2B8ue170006Ev, symObjAddr: 0x58DC, symBinAddr: 0x100008B78, symSize: 0x44 }
  - { offsetInCU: 0x39832, offset: 0x39832, size: 0x8, addend: 0x0, symName: __ZNSt3__16vectorIN2sf4Font3RowENS_9allocatorIS3_EEE16__destroy_vectorC1B8ue170006ERS6_, symObjAddr: 0x5920, symBinAddr: 0x100008BBC, symSize: 0x34 }
  - { offsetInCU: 0x3986B, offset: 0x3986B, size: 0x8, addend: 0x0, symName: __ZNSt3__16vectorIN2sf4Font3RowENS_9allocatorIS3_EEE16__destroy_vectorclB8ue170006Ev, symObjAddr: 0x5954, symBinAddr: 0x100008BF0, symSize: 0x90 }
  - { offsetInCU: 0x39891, offset: 0x39891, size: 0x8, addend: 0x0, symName: __ZNSt3__16vectorIN2sf4Font3RowENS_9allocatorIS3_EEE16__destroy_vectorC2B8ue170006ERS6_, symObjAddr: 0x59E4, symBinAddr: 0x100008C80, symSize: 0x20 }
  - { offsetInCU: 0x398CA, offset: 0x398CA, size: 0x8, addend: 0x0, symName: __ZNSt3__16vectorIN2sf4Font3RowENS_9allocatorIS3_EEE7__clearB8ue170006Ev, symObjAddr: 0x5A04, symBinAddr: 0x100008CA0, symSize: 0x28 }
  - { offsetInCU: 0x398F0, offset: 0x398F0, size: 0x8, addend: 0x0, symName: __ZNKSt3__16vectorIN2sf4Font3RowENS_9allocatorIS3_EEE17__annotate_deleteB8ue170006Ev, symObjAddr: 0x5A2C, symBinAddr: 0x100008CC8, symSize: 0xD4 }
  - { offsetInCU: 0x39916, offset: 0x39916, size: 0x8, addend: 0x0, symName: __ZNSt3__116allocator_traitsINS_9allocatorIN2sf4Font3RowEEEE10deallocateB8ue170006ERS5_PS4_m, symObjAddr: 0x5B00, symBinAddr: 0x100008D9C, symSize: 0x34 }
  - { offsetInCU: 0x39958, offset: 0x39958, size: 0x8, addend: 0x0, symName: __ZNSt3__16vectorIN2sf4Font3RowENS_9allocatorIS3_EEE7__allocB8ue170006Ev, symObjAddr: 0x5B34, symBinAddr: 0x100008DD0, symSize: 0x28 }
  - { offsetInCU: 0x3997E, offset: 0x3997E, size: 0x8, addend: 0x0, symName: __ZNKSt3__16vectorIN2sf4Font3RowENS_9allocatorIS3_EEE8capacityB8ue170006Ev, symObjAddr: 0x5B5C, symBinAddr: 0x100008DF8, symSize: 0x40 }
  - { offsetInCU: 0x399A4, offset: 0x399A4, size: 0x8, addend: 0x0, symName: __ZNSt3__16vectorIN2sf4Font3RowENS_9allocatorIS3_EEE22__base_destruct_at_endB8ue170006EPS3_, symObjAddr: 0x5B9C, symBinAddr: 0x100008E38, symSize: 0x8C }
  - { offsetInCU: 0x399E8, offset: 0x399E8, size: 0x8, addend: 0x0, symName: __ZNSt3__116allocator_traitsINS_9allocatorIN2sf4Font3RowEEEE7destroyB8ue170006IS4_vEEvRS5_PT_, symObjAddr: 0x5C28, symBinAddr: 0x100008EC4, symSize: 0x2C }
  - { offsetInCU: 0x39A25, offset: 0x39A25, size: 0x8, addend: 0x0, symName: __ZNSt3__19allocatorIN2sf4Font3RowEE7destroyB8ue170006EPS3_, symObjAddr: 0x5C68, symBinAddr: 0x100008F04, symSize: 0x14 }
  - { offsetInCU: 0x39A5A, offset: 0x39A5A, size: 0x8, addend: 0x0, symName: __ZNKSt3__16vectorIN2sf4Font3RowENS_9allocatorIS3_EEE31__annotate_contiguous_containerB8ue170006EPKvS8_S8_S8_, symObjAddr: 0x5C7C, symBinAddr: 0x100008F18, symSize: 0x20 }
  - { offsetInCU: 0x39AB0, offset: 0x39AB0, size: 0x8, addend: 0x0, symName: __ZNKSt3__16vectorIN2sf4Font3RowENS_9allocatorIS3_EEE4dataB8ue170006Ev, symObjAddr: 0x5C9C, symBinAddr: 0x100008F38, symSize: 0x28 }
  - { offsetInCU: 0x39AD6, offset: 0x39AD6, size: 0x8, addend: 0x0, symName: __ZNKSt3__16vectorIN2sf4Font3RowENS_9allocatorIS3_EEE4sizeB8ue170006Ev, symObjAddr: 0x5CC4, symBinAddr: 0x100008F60, symSize: 0x28 }
  - { offsetInCU: 0x39AFC, offset: 0x39AFC, size: 0x8, addend: 0x0, symName: __ZNSt3__19allocatorIN2sf4Font3RowEE10deallocateB8ue170006EPS3_m, symObjAddr: 0x5CEC, symBinAddr: 0x100008F88, symSize: 0x44 }
  - { offsetInCU: 0x39B40, offset: 0x39B40, size: 0x8, addend: 0x0, symName: __ZNSt3__117__compressed_pairIPN2sf4Font3RowENS_9allocatorIS3_EEE6secondB8ue170006Ev, symObjAddr: 0x5D30, symBinAddr: 0x100008FCC, symSize: 0x24 }
  - { offsetInCU: 0x39B66, offset: 0x39B66, size: 0x8, addend: 0x0, symName: __ZNSt3__122__compressed_pair_elemINS_9allocatorIN2sf4Font3RowEEELi1ELb1EE5__getB8ue170006Ev, symObjAddr: 0x5D54, symBinAddr: 0x100008FF0, symSize: 0x14 }
  - { offsetInCU: 0x39B8C, offset: 0x39B8C, size: 0x8, addend: 0x0, symName: __ZNKSt3__16vectorIN2sf4Font3RowENS_9allocatorIS3_EEE9__end_capB8ue170006Ev, symObjAddr: 0x5D68, symBinAddr: 0x100009004, symSize: 0x28 }
  - { offsetInCU: 0x39BB2, offset: 0x39BB2, size: 0x8, addend: 0x0, symName: __ZNKSt3__117__compressed_pairIPN2sf4Font3RowENS_9allocatorIS3_EEE5firstB8ue170006Ev, symObjAddr: 0x5D90, symBinAddr: 0x10000902C, symSize: 0x24 }
  - { offsetInCU: 0x39BD8, offset: 0x39BD8, size: 0x8, addend: 0x0, symName: __ZNKSt3__122__compressed_pair_elemIPN2sf4Font3RowELi0ELb0EE5__getB8ue170006Ev, symObjAddr: 0x5DB4, symBinAddr: 0x100009050, symSize: 0x14 }
  - { offsetInCU: 0x39BFE, offset: 0x39BFE, size: 0x8, addend: 0x0, symName: __ZNSt3__113unordered_mapIyN2sf5GlyphENS_4hashIyEENS_8equal_toIyEENS_9allocatorINS_4pairIKyS2_EEEEED2B8ue170006Ev, symObjAddr: 0x5DC8, symBinAddr: 0x100009064, symSize: 0x2C }
  - { offsetInCU: 0x39C28, offset: 0x39C28, size: 0x8, addend: 0x0, symName: __ZNSt3__112__hash_tableINS_17__hash_value_typeIyN2sf5GlyphEEENS_22__unordered_map_hasherIyS4_NS_4hashIyEENS_8equal_toIyEELb1EEENS_21__unordered_map_equalIyS4_S9_S7_Lb1EEENS_9allocatorIS4_EEED1Ev, symObjAddr: 0x5DF4, symBinAddr: 0x100009090, symSize: 0x2C }
  - { offsetInCU: 0x39C54, offset: 0x39C54, size: 0x8, addend: 0x0, symName: __ZNSt3__112__hash_tableINS_17__hash_value_typeIyN2sf5GlyphEEENS_22__unordered_map_hasherIyS4_NS_4hashIyEENS_8equal_toIyEELb1EEENS_21__unordered_map_equalIyS4_S9_S7_Lb1EEENS_9allocatorIS4_EEED2Ev, symObjAddr: 0x5E20, symBinAddr: 0x1000090BC, symSize: 0x48 }
  - { offsetInCU: 0x39C80, offset: 0x39C80, size: 0x8, addend: 0x0, symName: __ZNSt3__112__hash_tableINS_17__hash_value_typeIyN2sf5GlyphEEENS_22__unordered_map_hasherIyS4_NS_4hashIyEENS_8equal_toIyEELb1EEENS_21__unordered_map_equalIyS4_S9_S7_Lb1EEENS_9allocatorIS4_EEE17__deallocate_nodeEPNS_16__hash_node_baseIPNS_11__hash_nodeIS4_PvEEEE, symObjAddr: 0x5E68, symBinAddr: 0x100009104, symSize: 0xA8 }
  - { offsetInCU: 0x39CEA, offset: 0x39CEA, size: 0x8, addend: 0x0, symName: __ZNSt3__117__compressed_pairINS_16__hash_node_baseIPNS_11__hash_nodeINS_17__hash_value_typeIyN2sf5GlyphEEEPvEEEENS_9allocatorIS8_EEE5firstB8ue170006Ev, symObjAddr: 0x5F10, symBinAddr: 0x1000091AC, symSize: 0x24 }
  - { offsetInCU: 0x39D10, offset: 0x39D10, size: 0x8, addend: 0x0, symName: __ZNSt3__110unique_ptrIA_PNS_16__hash_node_baseIPNS_11__hash_nodeINS_17__hash_value_typeIyN2sf5GlyphEEEPvEEEENS_25__bucket_list_deallocatorINS_9allocatorISB_EEEEED1B8ue170006Ev, symObjAddr: 0x5F34, symBinAddr: 0x1000091D0, symSize: 0x2C }
  - { offsetInCU: 0x39D3A, offset: 0x39D3A, size: 0x8, addend: 0x0, symName: __ZNSt3__112__hash_tableINS_17__hash_value_typeIyN2sf5GlyphEEENS_22__unordered_map_hasherIyS4_NS_4hashIyEENS_8equal_toIyEELb1EEENS_21__unordered_map_equalIyS4_S9_S7_Lb1EEENS_9allocatorIS4_EEE12__node_allocB8ue170006Ev, symObjAddr: 0x5F60, symBinAddr: 0x1000091FC, symSize: 0x28 }
  - { offsetInCU: 0x39D60, offset: 0x39D60, size: 0x8, addend: 0x0, symName: __ZNSt3__116__hash_node_baseIPNS_11__hash_nodeINS_17__hash_value_typeIyN2sf5GlyphEEEPvEEE8__upcastB8ue170006Ev, symObjAddr: 0x5F88, symBinAddr: 0x100009224, symSize: 0x24 }
  - { offsetInCU: 0x39D8C, offset: 0x39D8C, size: 0x8, addend: 0x0, symName: __ZNSt3__116allocator_traitsINS_9allocatorINS_11__hash_nodeINS_17__hash_value_typeIyN2sf5GlyphEEEPvEEEEE7destroyB8ue170006INS_4pairIKyS5_EEvvEEvRS9_PT_, symObjAddr: 0x5FAC, symBinAddr: 0x100009248, symSize: 0x14 }
  - { offsetInCU: 0x39DC7, offset: 0x39DC7, size: 0x8, addend: 0x0, symName: __ZNSt3__122__hash_key_value_typesINS_17__hash_value_typeIyN2sf5GlyphEEEE9__get_ptrB8ue170006ERS4_, symObjAddr: 0x5FC0, symBinAddr: 0x10000925C, symSize: 0x24 }
  - { offsetInCU: 0x39DEB, offset: 0x39DEB, size: 0x8, addend: 0x0, symName: __ZNSt3__116allocator_traitsINS_9allocatorINS_11__hash_nodeINS_17__hash_value_typeIyN2sf5GlyphEEEPvEEEEE10deallocateB8ue170006ERS9_PS8_m, symObjAddr: 0x5FE4, symBinAddr: 0x100009280, symSize: 0x34 }
  - { offsetInCU: 0x39E2D, offset: 0x39E2D, size: 0x8, addend: 0x0, symName: __ZNSt3__117__compressed_pairINS_16__hash_node_baseIPNS_11__hash_nodeINS_17__hash_value_typeIyN2sf5GlyphEEEPvEEEENS_9allocatorIS8_EEE6secondB8ue170006Ev, symObjAddr: 0x6018, symBinAddr: 0x1000092B4, symSize: 0x24 }
  - { offsetInCU: 0x39E53, offset: 0x39E53, size: 0x8, addend: 0x0, symName: __ZNSt3__122__compressed_pair_elemINS_9allocatorINS_11__hash_nodeINS_17__hash_value_typeIyN2sf5GlyphEEEPvEEEELi1ELb1EE5__getB8ue170006Ev, symObjAddr: 0x603C, symBinAddr: 0x1000092D8, symSize: 0x14 }
  - { offsetInCU: 0x39E79, offset: 0x39E79, size: 0x8, addend: 0x0, symName: __ZNSt3__114pointer_traitsIPNS_16__hash_node_baseIPNS_11__hash_nodeINS_17__hash_value_typeIyN2sf5GlyphEEEPvEEEEE10pointer_toB8ue170006ERSA_, symObjAddr: 0x6050, symBinAddr: 0x1000092EC, symSize: 0x14 }
  - { offsetInCU: 0x39E9D, offset: 0x39E9D, size: 0x8, addend: 0x0, symName: __ZNSt3__117__hash_value_typeIyN2sf5GlyphEE11__get_valueB8ue170006Ev, symObjAddr: 0x6064, symBinAddr: 0x100009300, symSize: 0x24 }
  - { offsetInCU: 0x39EC3, offset: 0x39EC3, size: 0x8, addend: 0x0, symName: __ZNSt3__19allocatorINS_11__hash_nodeINS_17__hash_value_typeIyN2sf5GlyphEEEPvEEE10deallocateB8ue170006EPS7_m, symObjAddr: 0x60C0, symBinAddr: 0x10000935C, symSize: 0x44 }
  - { offsetInCU: 0x39F07, offset: 0x39F07, size: 0x8, addend: 0x0, symName: __ZNSt3__122__compressed_pair_elemINS_16__hash_node_baseIPNS_11__hash_nodeINS_17__hash_value_typeIyN2sf5GlyphEEEPvEEEELi0ELb0EE5__getB8ue170006Ev, symObjAddr: 0x6104, symBinAddr: 0x1000093A0, symSize: 0x14 }
  - { offsetInCU: 0x39F2D, offset: 0x39F2D, size: 0x8, addend: 0x0, symName: __ZNSt3__110unique_ptrIA_PNS_16__hash_node_baseIPNS_11__hash_nodeINS_17__hash_value_typeIyN2sf5GlyphEEEPvEEEENS_25__bucket_list_deallocatorINS_9allocatorISB_EEEEED2B8ue170006Ev, symObjAddr: 0x6118, symBinAddr: 0x1000093B4, symSize: 0x30 }
  - { offsetInCU: 0x39F57, offset: 0x39F57, size: 0x8, addend: 0x0, symName: __ZNSt3__110unique_ptrIA_PNS_16__hash_node_baseIPNS_11__hash_nodeINS_17__hash_value_typeIyN2sf5GlyphEEEPvEEEENS_25__bucket_list_deallocatorINS_9allocatorISB_EEEEE5resetB8ue170006EDn, symObjAddr: 0x6148, symBinAddr: 0x1000093E4, symSize: 0x6C }
  - { offsetInCU: 0x39F98, offset: 0x39F98, size: 0x8, addend: 0x0, symName: __ZNSt3__117__compressed_pairIPPNS_16__hash_node_baseIPNS_11__hash_nodeINS_17__hash_value_typeIyN2sf5GlyphEEEPvEEEENS_25__bucket_list_deallocatorINS_9allocatorISB_EEEEE5firstB8ue170006Ev, symObjAddr: 0x61B4, symBinAddr: 0x100009450, symSize: 0x24 }
  - { offsetInCU: 0x39FBE, offset: 0x39FBE, size: 0x8, addend: 0x0, symName: __ZNSt3__117__compressed_pairIPPNS_16__hash_node_baseIPNS_11__hash_nodeINS_17__hash_value_typeIyN2sf5GlyphEEEPvEEEENS_25__bucket_list_deallocatorINS_9allocatorISB_EEEEE6secondB8ue170006Ev, symObjAddr: 0x61D8, symBinAddr: 0x100009474, symSize: 0x28 }
  - { offsetInCU: 0x39FE4, offset: 0x39FE4, size: 0x8, addend: 0x0, symName: __ZNSt3__125__bucket_list_deallocatorINS_9allocatorIPNS_16__hash_node_baseIPNS_11__hash_nodeINS_17__hash_value_typeIyN2sf5GlyphEEEPvEEEEEEEclB8ue170006EPSC_, symObjAddr: 0x6200, symBinAddr: 0x10000949C, symSize: 0x58 }
  - { offsetInCU: 0x3A019, offset: 0x3A019, size: 0x8, addend: 0x0, symName: __ZNSt3__122__compressed_pair_elemIPPNS_16__hash_node_baseIPNS_11__hash_nodeINS_17__hash_value_typeIyN2sf5GlyphEEEPvEEEELi0ELb0EE5__getB8ue170006Ev, symObjAddr: 0x6258, symBinAddr: 0x1000094F4, symSize: 0x14 }
  - { offsetInCU: 0x3A03F, offset: 0x3A03F, size: 0x8, addend: 0x0, symName: __ZNSt3__122__compressed_pair_elemINS_25__bucket_list_deallocatorINS_9allocatorIPNS_16__hash_node_baseIPNS_11__hash_nodeINS_17__hash_value_typeIyN2sf5GlyphEEEPvEEEEEEEELi1ELb0EE5__getB8ue170006Ev, symObjAddr: 0x626C, symBinAddr: 0x100009508, symSize: 0x14 }
  - { offsetInCU: 0x3A065, offset: 0x3A065, size: 0x8, addend: 0x0, symName: __ZNSt3__116allocator_traitsINS_9allocatorIPNS_16__hash_node_baseIPNS_11__hash_nodeINS_17__hash_value_typeIyN2sf5GlyphEEEPvEEEEEEE10deallocateB8ue170006ERSD_PSC_m, symObjAddr: 0x6280, symBinAddr: 0x10000951C, symSize: 0x34 }
  - { offsetInCU: 0x3A0A7, offset: 0x3A0A7, size: 0x8, addend: 0x0, symName: __ZNSt3__125__bucket_list_deallocatorINS_9allocatorIPNS_16__hash_node_baseIPNS_11__hash_nodeINS_17__hash_value_typeIyN2sf5GlyphEEEPvEEEEEEE7__allocB8ue170006Ev, symObjAddr: 0x62B4, symBinAddr: 0x100009550, symSize: 0x24 }
  - { offsetInCU: 0x3A0CD, offset: 0x3A0CD, size: 0x8, addend: 0x0, symName: __ZNSt3__125__bucket_list_deallocatorINS_9allocatorIPNS_16__hash_node_baseIPNS_11__hash_nodeINS_17__hash_value_typeIyN2sf5GlyphEEEPvEEEEEEE4sizeB8ue170006Ev, symObjAddr: 0x62D8, symBinAddr: 0x100009574, symSize: 0x24 }
  - { offsetInCU: 0x3A0F3, offset: 0x3A0F3, size: 0x8, addend: 0x0, symName: __ZNSt3__19allocatorIPNS_16__hash_node_baseIPNS_11__hash_nodeINS_17__hash_value_typeIyN2sf5GlyphEEEPvEEEEE10deallocateB8ue170006EPSB_m, symObjAddr: 0x62FC, symBinAddr: 0x100009598, symSize: 0x40 }
  - { offsetInCU: 0x3A137, offset: 0x3A137, size: 0x8, addend: 0x0, symName: __ZNSt3__117__compressed_pairImNS_9allocatorIPNS_16__hash_node_baseIPNS_11__hash_nodeINS_17__hash_value_typeIyN2sf5GlyphEEEPvEEEEEEE6secondB8ue170006Ev, symObjAddr: 0x633C, symBinAddr: 0x1000095D8, symSize: 0x24 }
  - { offsetInCU: 0x3A15D, offset: 0x3A15D, size: 0x8, addend: 0x0, symName: __ZNSt3__122__compressed_pair_elemINS_9allocatorIPNS_16__hash_node_baseIPNS_11__hash_nodeINS_17__hash_value_typeIyN2sf5GlyphEEEPvEEEEEELi1ELb1EE5__getB8ue170006Ev, symObjAddr: 0x6360, symBinAddr: 0x1000095FC, symSize: 0x14 }
  - { offsetInCU: 0x3A183, offset: 0x3A183, size: 0x8, addend: 0x0, symName: __ZNSt3__117__compressed_pairImNS_9allocatorIPNS_16__hash_node_baseIPNS_11__hash_nodeINS_17__hash_value_typeIyN2sf5GlyphEEEPvEEEEEEE5firstB8ue170006Ev, symObjAddr: 0x6374, symBinAddr: 0x100009610, symSize: 0x24 }
  - { offsetInCU: 0x3A1A9, offset: 0x3A1A9, size: 0x8, addend: 0x0, symName: __ZNSt3__122__compressed_pair_elemImLi0ELb0EE5__getB8ue170006Ev, symObjAddr: 0x6398, symBinAddr: 0x100009634, symSize: 0x14 }
  - { offsetInCU: 0x3A1CF, offset: 0x3A1CF, size: 0x8, addend: 0x0, symName: __ZNSt3__117__hash_value_typeIjN2sf4Font4PageEE11__get_valueB8ue170006Ev, symObjAddr: 0x63AC, symBinAddr: 0x100009648, symSize: 0x24 }
  - { offsetInCU: 0x3A1F5, offset: 0x3A1F5, size: 0x8, addend: 0x0, symName: __ZNSt3__19allocatorINS_11__hash_nodeINS_17__hash_value_typeIjN2sf4Font4PageEEEPvEEE10deallocateB8ue170006EPS8_m, symObjAddr: 0x6408, symBinAddr: 0x1000096A4, symSize: 0x44 }
  - { offsetInCU: 0x3A239, offset: 0x3A239, size: 0x8, addend: 0x0, symName: __ZNSt3__122__compressed_pair_elemINS_16__hash_node_baseIPNS_11__hash_nodeINS_17__hash_value_typeIjN2sf4Font4PageEEEPvEEEELi0ELb0EE5__getB8ue170006Ev, symObjAddr: 0x644C, symBinAddr: 0x1000096E8, symSize: 0x14 }
  - { offsetInCU: 0x3A25F, offset: 0x3A25F, size: 0x8, addend: 0x0, symName: __ZNSt3__110unique_ptrIA_PNS_16__hash_node_baseIPNS_11__hash_nodeINS_17__hash_value_typeIjN2sf4Font4PageEEEPvEEEENS_25__bucket_list_deallocatorINS_9allocatorISC_EEEEED2B8ue170006Ev, symObjAddr: 0x6460, symBinAddr: 0x1000096FC, symSize: 0x30 }
  - { offsetInCU: 0x3A289, offset: 0x3A289, size: 0x8, addend: 0x0, symName: __ZNSt3__110unique_ptrIA_PNS_16__hash_node_baseIPNS_11__hash_nodeINS_17__hash_value_typeIjN2sf4Font4PageEEEPvEEEENS_25__bucket_list_deallocatorINS_9allocatorISC_EEEEE5resetB8ue170006EDn, symObjAddr: 0x6490, symBinAddr: 0x10000972C, symSize: 0x6C }
  - { offsetInCU: 0x3A2CA, offset: 0x3A2CA, size: 0x8, addend: 0x0, symName: __ZNSt3__117__compressed_pairIPPNS_16__hash_node_baseIPNS_11__hash_nodeINS_17__hash_value_typeIjN2sf4Font4PageEEEPvEEEENS_25__bucket_list_deallocatorINS_9allocatorISC_EEEEE5firstB8ue170006Ev, symObjAddr: 0x64FC, symBinAddr: 0x100009798, symSize: 0x24 }
  - { offsetInCU: 0x3A2F0, offset: 0x3A2F0, size: 0x8, addend: 0x0, symName: __ZNSt3__117__compressed_pairIPPNS_16__hash_node_baseIPNS_11__hash_nodeINS_17__hash_value_typeIjN2sf4Font4PageEEEPvEEEENS_25__bucket_list_deallocatorINS_9allocatorISC_EEEEE6secondB8ue170006Ev, symObjAddr: 0x6520, symBinAddr: 0x1000097BC, symSize: 0x28 }
  - { offsetInCU: 0x3A316, offset: 0x3A316, size: 0x8, addend: 0x0, symName: __ZNSt3__125__bucket_list_deallocatorINS_9allocatorIPNS_16__hash_node_baseIPNS_11__hash_nodeINS_17__hash_value_typeIjN2sf4Font4PageEEEPvEEEEEEEclB8ue170006EPSD_, symObjAddr: 0x6548, symBinAddr: 0x1000097E4, symSize: 0x58 }
  - { offsetInCU: 0x3A34B, offset: 0x3A34B, size: 0x8, addend: 0x0, symName: __ZNSt3__122__compressed_pair_elemIPPNS_16__hash_node_baseIPNS_11__hash_nodeINS_17__hash_value_typeIjN2sf4Font4PageEEEPvEEEELi0ELb0EE5__getB8ue170006Ev, symObjAddr: 0x65A0, symBinAddr: 0x10000983C, symSize: 0x14 }
  - { offsetInCU: 0x3A371, offset: 0x3A371, size: 0x8, addend: 0x0, symName: __ZNSt3__122__compressed_pair_elemINS_25__bucket_list_deallocatorINS_9allocatorIPNS_16__hash_node_baseIPNS_11__hash_nodeINS_17__hash_value_typeIjN2sf4Font4PageEEEPvEEEEEEEELi1ELb0EE5__getB8ue170006Ev, symObjAddr: 0x65B4, symBinAddr: 0x100009850, symSize: 0x14 }
  - { offsetInCU: 0x3A397, offset: 0x3A397, size: 0x8, addend: 0x0, symName: __ZNSt3__116allocator_traitsINS_9allocatorIPNS_16__hash_node_baseIPNS_11__hash_nodeINS_17__hash_value_typeIjN2sf4Font4PageEEEPvEEEEEEE10deallocateB8ue170006ERSE_PSD_m, symObjAddr: 0x65C8, symBinAddr: 0x100009864, symSize: 0x34 }
  - { offsetInCU: 0x3A3D9, offset: 0x3A3D9, size: 0x8, addend: 0x0, symName: __ZNSt3__125__bucket_list_deallocatorINS_9allocatorIPNS_16__hash_node_baseIPNS_11__hash_nodeINS_17__hash_value_typeIjN2sf4Font4PageEEEPvEEEEEEE7__allocB8ue170006Ev, symObjAddr: 0x65FC, symBinAddr: 0x100009898, symSize: 0x24 }
  - { offsetInCU: 0x3A3FF, offset: 0x3A3FF, size: 0x8, addend: 0x0, symName: __ZNSt3__125__bucket_list_deallocatorINS_9allocatorIPNS_16__hash_node_baseIPNS_11__hash_nodeINS_17__hash_value_typeIjN2sf4Font4PageEEEPvEEEEEEE4sizeB8ue170006Ev, symObjAddr: 0x6620, symBinAddr: 0x1000098BC, symSize: 0x24 }
  - { offsetInCU: 0x3A425, offset: 0x3A425, size: 0x8, addend: 0x0, symName: __ZNSt3__19allocatorIPNS_16__hash_node_baseIPNS_11__hash_nodeINS_17__hash_value_typeIjN2sf4Font4PageEEEPvEEEEE10deallocateB8ue170006EPSC_m, symObjAddr: 0x6644, symBinAddr: 0x1000098E0, symSize: 0x40 }
  - { offsetInCU: 0x3A469, offset: 0x3A469, size: 0x8, addend: 0x0, symName: __ZNSt3__117__compressed_pairImNS_9allocatorIPNS_16__hash_node_baseIPNS_11__hash_nodeINS_17__hash_value_typeIjN2sf4Font4PageEEEPvEEEEEEE6secondB8ue170006Ev, symObjAddr: 0x6684, symBinAddr: 0x100009920, symSize: 0x24 }
  - { offsetInCU: 0x3A48F, offset: 0x3A48F, size: 0x8, addend: 0x0, symName: __ZNSt3__122__compressed_pair_elemINS_9allocatorIPNS_16__hash_node_baseIPNS_11__hash_nodeINS_17__hash_value_typeIjN2sf4Font4PageEEEPvEEEEEELi1ELb1EE5__getB8ue170006Ev, symObjAddr: 0x66A8, symBinAddr: 0x100009944, symSize: 0x14 }
  - { offsetInCU: 0x3A4B5, offset: 0x3A4B5, size: 0x8, addend: 0x0, symName: __ZNSt3__117__compressed_pairImNS_9allocatorIPNS_16__hash_node_baseIPNS_11__hash_nodeINS_17__hash_value_typeIjN2sf4Font4PageEEEPvEEEEEEE5firstB8ue170006Ev, symObjAddr: 0x66BC, symBinAddr: 0x100009958, symSize: 0x24 }
  - { offsetInCU: 0x3A4DB, offset: 0x3A4DB, size: 0x8, addend: 0x0, symName: __ZN2sf4Font4InfoD2Ev, symObjAddr: 0x66E0, symBinAddr: 0x10000997C, symSize: 0x2C }
  - { offsetInCU: 0x3A507, offset: 0x3A507, size: 0x8, addend: 0x0, symName: __ZNSt3__110shared_ptrIN2sf4Font11FontHandlesEED2B8ue170006Ev, symObjAddr: 0x670C, symBinAddr: 0x1000099A8, symSize: 0x54 }
  - { offsetInCU: 0x3A531, offset: 0x3A531, size: 0x8, addend: 0x0, symName: __ZNSt3__119__shared_weak_count16__release_sharedB8ue170006Ev, symObjAddr: 0x6760, symBinAddr: 0x1000099FC, symSize: 0x3C }
  - { offsetInCU: 0x3A557, offset: 0x3A557, size: 0x8, addend: 0x0, symName: __ZNSt3__114__shared_count16__release_sharedB8ue170006Ev, symObjAddr: 0x679C, symBinAddr: 0x100009A38, symSize: 0x7C }
  - { offsetInCU: 0x3A57D, offset: 0x3A57D, size: 0x8, addend: 0x0, symName: __ZN2sf12RenderWindowD2Ev, symObjAddr: 0x6848, symBinAddr: 0x100009AE4, symSize: 0x38 }
  - { offsetInCU: 0x3A5A9, offset: 0x3A5A9, size: 0x8, addend: 0x0, symName: __ZThn72_N2sf12RenderWindowD1Ev, symObjAddr: 0x6880, symBinAddr: 0x100009B1C, symSize: 0x1C }
  - { offsetInCU: 0x3A5BF, offset: 0x3A5BF, size: 0x8, addend: 0x0, symName: __ZN2sf12RenderTargetD2Ev, symObjAddr: 0x689C, symBinAddr: 0x100009B38, symSize: 0x14 }
  - { offsetInCU: 0x3A5E9, offset: 0x3A5E9, size: 0x8, addend: 0x0, symName: __ZNSt3__112basic_stringIcNS_11char_traitsIcEENS_9allocatorIcEEEC2B8ue170006Ev, symObjAddr: 0x68B0, symBinAddr: 0x100009B4C, symSize: 0x48 }
  - { offsetInCU: 0x3A613, offset: 0x3A613, size: 0x8, addend: 0x0, symName: __ZNSt3__117__compressed_pairINS_12basic_stringIcNS_11char_traitsIcEENS_9allocatorIcEEE5__repES5_EC1B8ue170006INS_18__default_init_tagESA_EEOT_OT0_, symObjAddr: 0x68F8, symBinAddr: 0x100009B94, symSize: 0x3C }
  - { offsetInCU: 0x3A66D, offset: 0x3A66D, size: 0x8, addend: 0x0, symName: __ZNSt3__112basic_stringIcNS_11char_traitsIcEENS_9allocatorIcEEE14__default_initB8ue170006Ev, symObjAddr: 0x6934, symBinAddr: 0x100009BD0, symSize: 0x40 }
  - { offsetInCU: 0x3A693, offset: 0x3A693, size: 0x8, addend: 0x0, symName: __ZNSt3__117__compressed_pairINS_12basic_stringIcNS_11char_traitsIcEENS_9allocatorIcEEE5__repES5_EC2B8ue170006INS_18__default_init_tagESA_EEOT_OT0_, symObjAddr: 0x6974, symBinAddr: 0x100009C10, symSize: 0x3C }
  - { offsetInCU: 0x3A6ED, offset: 0x3A6ED, size: 0x8, addend: 0x0, symName: __ZNSt3__122__compressed_pair_elemINS_12basic_stringIcNS_11char_traitsIcEENS_9allocatorIcEEE5__repELi0ELb0EEC2B8ue170006ENS_18__default_init_tagE, symObjAddr: 0x69B0, symBinAddr: 0x100009C4C, symSize: 0x14 }
  - { offsetInCU: 0x3A722, offset: 0x3A722, size: 0x8, addend: 0x0, symName: __ZNSt3__122__compressed_pair_elemINS_9allocatorIcEELi1ELb1EEC2B8ue170006ENS_18__default_init_tagE, symObjAddr: 0x69C4, symBinAddr: 0x100009C60, symSize: 0x2C }
  - { offsetInCU: 0x3A757, offset: 0x3A757, size: 0x8, addend: 0x0, symName: __ZNSt3__19allocatorIcEC2B8ue170006Ev, symObjAddr: 0x69F0, symBinAddr: 0x100009C8C, symSize: 0x2C }
  - { offsetInCU: 0x3A781, offset: 0x3A781, size: 0x8, addend: 0x0, symName: __ZNSt3__116__non_trivial_ifILb1ENS_9allocatorIcEEEC2B8ue170006Ev, symObjAddr: 0x6A1C, symBinAddr: 0x100009CB8, symSize: 0x14 }
  - { offsetInCU: 0x3A7AB, offset: 0x3A7AB, size: 0x8, addend: 0x0, symName: __ZNSt3__117__compressed_pairINS_12basic_stringIcNS_11char_traitsIcEENS_9allocatorIcEEE5__repES5_E5firstB8ue170006Ev, symObjAddr: 0x6A30, symBinAddr: 0x100009CCC, symSize: 0x24 }
  - { offsetInCU: 0x3A7D1, offset: 0x3A7D1, size: 0x8, addend: 0x0, symName: __ZNSt3__122__compressed_pair_elemINS_12basic_stringIcNS_11char_traitsIcEENS_9allocatorIcEEE5__repELi0ELb0EE5__getB8ue170006Ev, symObjAddr: 0x6A54, symBinAddr: 0x100009CF0, symSize: 0x14 }
  - { offsetInCU: 0x3A7F7, offset: 0x3A7F7, size: 0x8, addend: 0x0, symName: __ZNKSt3__112basic_stringIcNS_11char_traitsIcEENS_9allocatorIcEEE4sizeB8ue170006Ev, symObjAddr: 0x6A68, symBinAddr: 0x100009D04, symSize: 0x54 }
  - { offsetInCU: 0x3A81D, offset: 0x3A81D, size: 0x8, addend: 0x0, symName: __ZNKSt3__112basic_stringIcNS_11char_traitsIcEENS_9allocatorIcEEE9__is_longB8ue170006Ev, symObjAddr: 0x6ABC, symBinAddr: 0x100009D58, symSize: 0x38 }
  - { offsetInCU: 0x3A843, offset: 0x3A843, size: 0x8, addend: 0x0, symName: __ZNKSt3__112basic_stringIcNS_11char_traitsIcEENS_9allocatorIcEEE15__get_long_sizeB8ue170006Ev, symObjAddr: 0x6AF4, symBinAddr: 0x100009D90, symSize: 0x28 }
  - { offsetInCU: 0x3A869, offset: 0x3A869, size: 0x8, addend: 0x0, symName: __ZNKSt3__112basic_stringIcNS_11char_traitsIcEENS_9allocatorIcEEE16__get_short_sizeB8ue170006Ev, symObjAddr: 0x6B1C, symBinAddr: 0x100009DB8, symSize: 0x34 }
  - { offsetInCU: 0x3A88F, offset: 0x3A88F, size: 0x8, addend: 0x0, symName: __ZNKSt3__117__compressed_pairINS_12basic_stringIcNS_11char_traitsIcEENS_9allocatorIcEEE5__repES5_E5firstB8ue170006Ev, symObjAddr: 0x6B50, symBinAddr: 0x100009DEC, symSize: 0x24 }
  - { offsetInCU: 0x3A8B5, offset: 0x3A8B5, size: 0x8, addend: 0x0, symName: __ZNKSt3__122__compressed_pair_elemINS_12basic_stringIcNS_11char_traitsIcEENS_9allocatorIcEEE5__repELi0ELb0EE5__getB8ue170006Ev, symObjAddr: 0x6B74, symBinAddr: 0x100009E10, symSize: 0x14 }
  - { offsetInCU: 0x3A8DB, offset: 0x3A8DB, size: 0x8, addend: 0x0, symName: __ZNSt3__112basic_stringIcNS_11char_traitsIcEENS_9allocatorIcEEE13__get_pointerB8ue170006Ev, symObjAddr: 0x6B88, symBinAddr: 0x100009E24, symSize: 0x54 }
  - { offsetInCU: 0x3A901, offset: 0x3A901, size: 0x8, addend: 0x0, symName: __ZNSt3__112basic_stringIcNS_11char_traitsIcEENS_9allocatorIcEEE18__get_long_pointerB8ue170006Ev, symObjAddr: 0x6BDC, symBinAddr: 0x100009E78, symSize: 0x28 }
  - { offsetInCU: 0x3A927, offset: 0x3A927, size: 0x8, addend: 0x0, symName: __ZNSt3__112basic_stringIcNS_11char_traitsIcEENS_9allocatorIcEEE19__get_short_pointerB8ue170006Ev, symObjAddr: 0x6C04, symBinAddr: 0x100009EA0, symSize: 0x28 }
  - { offsetInCU: 0x3A94D, offset: 0x3A94D, size: 0x8, addend: 0x0, symName: __ZNSt3__114pointer_traitsIPcE10pointer_toB8ue170006ERc, symObjAddr: 0x6C2C, symBinAddr: 0x100009EC8, symSize: 0x14 }
  - { offsetInCU: 0x3A971, offset: 0x3A971, size: 0x8, addend: 0x0, symName: __ZNKSt3__112basic_stringIcNS_11char_traitsIcEENS_9allocatorIcEEE4dataB8ue170006Ev, symObjAddr: 0x6D24, symBinAddr: 0x100009FC0, symSize: 0x28 }
  - { offsetInCU: 0x3A997, offset: 0x3A997, size: 0x8, addend: 0x0, symName: __ZNSt3__111char_traitsIcE4findB8ue170006EPKcmRS2_, symObjAddr: 0x6EA0, symBinAddr: 0x10000A13C, symSize: 0x70 }
  - { offsetInCU: 0x3A9D9, offset: 0x3A9D9, size: 0x8, addend: 0x0, symName: __ZNSt3__111char_traitsIcE7compareB8ue170006EPKcS3_m, symObjAddr: 0x6F10, symBinAddr: 0x10000A1AC, symSize: 0x34 }
  - { offsetInCU: 0x3AA1B, offset: 0x3AA1B, size: 0x8, addend: 0x0, symName: __ZNKSt3__112basic_stringIcNS_11char_traitsIcEENS_9allocatorIcEEE13__get_pointerB8ue170006Ev, symObjAddr: 0x6F98, symBinAddr: 0x10000A234, symSize: 0x54 }
  - { offsetInCU: 0x3AA41, offset: 0x3AA41, size: 0x8, addend: 0x0, symName: __ZNKSt3__112basic_stringIcNS_11char_traitsIcEENS_9allocatorIcEEE18__get_long_pointerB8ue170006Ev, symObjAddr: 0x6FEC, symBinAddr: 0x10000A288, symSize: 0x28 }
  - { offsetInCU: 0x3AA67, offset: 0x3AA67, size: 0x8, addend: 0x0, symName: __ZNKSt3__112basic_stringIcNS_11char_traitsIcEENS_9allocatorIcEEE19__get_short_pointerB8ue170006Ev, symObjAddr: 0x7014, symBinAddr: 0x10000A2B0, symSize: 0x28 }
  - { offsetInCU: 0x3AA8D, offset: 0x3AA8D, size: 0x8, addend: 0x0, symName: __ZNSt3__114pointer_traitsIPKcE10pointer_toB8ue170006ERS1_, symObjAddr: 0x703C, symBinAddr: 0x10000A2D8, symSize: 0x14 }
  - { offsetInCU: 0x3AAB1, offset: 0x3AAB1, size: 0x8, addend: 0x0, symName: __ZNSt3__19basic_iosIcNS_11char_traitsIcEEEC2B8ue170006Ev, symObjAddr: 0x7050, symBinAddr: 0x10000A2EC, symSize: 0x44 }
  - { offsetInCU: 0x3AADB, offset: 0x3AADB, size: 0x8, addend: 0x0, symName: __ZNSt3__113basic_istreamIcNS_11char_traitsIcEEEC2B8ue170006EPNS_15basic_streambufIcS2_EE, symObjAddr: 0x7094, symBinAddr: 0x10000A330, symSize: 0x64 }
  - { offsetInCU: 0x3AB21, offset: 0x3AB21, size: 0x8, addend: 0x0, symName: __ZNSt3__115basic_stringbufIcNS_11char_traitsIcEENS_9allocatorIcEEEC1B8ue170006ERKNS_12basic_stringIcS2_S4_EEj, symObjAddr: 0x70F8, symBinAddr: 0x10000A394, symSize: 0x3C }
  - { offsetInCU: 0x3AB69, offset: 0x3AB69, size: 0x8, addend: 0x0, symName: __ZNSt3__18ios_baseC2B8ue170006Ev, symObjAddr: 0x7134, symBinAddr: 0x10000A3D0, symSize: 0x24 }
  - { offsetInCU: 0x3AB93, offset: 0x3AB93, size: 0x8, addend: 0x0, symName: __ZNSt3__19basic_iosIcNS_11char_traitsIcEEE4initB8ue170006EPNS_15basic_streambufIcS2_EE, symObjAddr: 0x7158, symBinAddr: 0x10000A3F4, symSize: 0x44 }
  - { offsetInCU: 0x3ABCA, offset: 0x3ABCA, size: 0x8, addend: 0x0, symName: __ZNSt3__111char_traitsIcE3eofB8ue170006Ev, symObjAddr: 0x719C, symBinAddr: 0x10000A438, symSize: 0x8 }
  - { offsetInCU: 0x3ABDE, offset: 0x3ABDE, size: 0x8, addend: 0x0, symName: __ZNSt3__115basic_stringbufIcNS_11char_traitsIcEENS_9allocatorIcEEEC2B8ue170006ERKNS_12basic_stringIcS2_S4_EEj, symObjAddr: 0x71A4, symBinAddr: 0x10000A440, symSize: 0xB4 }
  - { offsetInCU: 0x3AC26, offset: 0x3AC26, size: 0x8, addend: 0x0, symName: __ZNKSt3__112basic_stringIcNS_11char_traitsIcEENS_9allocatorIcEEE13get_allocatorB8ue170006Ev, symObjAddr: 0x7258, symBinAddr: 0x10000A4F4, symSize: 0x24 }
  - { offsetInCU: 0x3AC4C, offset: 0x3AC4C, size: 0x8, addend: 0x0, symName: __ZNSt3__112basic_stringIcNS_11char_traitsIcEENS_9allocatorIcEEEC1B8ue170006ERKS4_, symObjAddr: 0x727C, symBinAddr: 0x10000A518, symSize: 0x34 }
  - { offsetInCU: 0x3AC85, offset: 0x3AC85, size: 0x8, addend: 0x0, symName: __ZNKSt3__112basic_stringIcNS_11char_traitsIcEENS_9allocatorIcEEE7__allocB8ue170006Ev, symObjAddr: 0x72B0, symBinAddr: 0x10000A54C, symSize: 0x24 }
  - { offsetInCU: 0x3ACAB, offset: 0x3ACAB, size: 0x8, addend: 0x0, symName: __ZNKSt3__117__compressed_pairINS_12basic_stringIcNS_11char_traitsIcEENS_9allocatorIcEEE5__repES5_E6secondB8ue170006Ev, symObjAddr: 0x72D4, symBinAddr: 0x10000A570, symSize: 0x24 }
  - { offsetInCU: 0x3ACD1, offset: 0x3ACD1, size: 0x8, addend: 0x0, symName: __ZNKSt3__122__compressed_pair_elemINS_9allocatorIcEELi1ELb1EE5__getB8ue170006Ev, symObjAddr: 0x72F8, symBinAddr: 0x10000A594, symSize: 0x14 }
  - { offsetInCU: 0x3ACF7, offset: 0x3ACF7, size: 0x8, addend: 0x0, symName: __ZNSt3__112basic_stringIcNS_11char_traitsIcEENS_9allocatorIcEEEC2B8ue170006ERKS4_, symObjAddr: 0x730C, symBinAddr: 0x10000A5A8, symSize: 0x48 }
  - { offsetInCU: 0x3AD30, offset: 0x3AD30, size: 0x8, addend: 0x0, symName: __ZNSt3__117__compressed_pairINS_12basic_stringIcNS_11char_traitsIcEENS_9allocatorIcEEE5__repES5_EC1B8ue170006INS_18__default_init_tagERKS5_EEOT_OT0_, symObjAddr: 0x7354, symBinAddr: 0x10000A5F0, symSize: 0x3C }
  - { offsetInCU: 0x3AD8A, offset: 0x3AD8A, size: 0x8, addend: 0x0, symName: __ZNSt3__117__compressed_pairINS_12basic_stringIcNS_11char_traitsIcEENS_9allocatorIcEEE5__repES5_EC2B8ue170006INS_18__default_init_tagERKS5_EEOT_OT0_, symObjAddr: 0x7390, symBinAddr: 0x10000A62C, symSize: 0x40 }
  - { offsetInCU: 0x3ADE4, offset: 0x3ADE4, size: 0x8, addend: 0x0, symName: __ZNSt3__122__compressed_pair_elemINS_9allocatorIcEELi1ELb1EEC2B8ue170006IRKS2_vEEOT_, symObjAddr: 0x73D0, symBinAddr: 0x10000A66C, symSize: 0x18 }
  - { offsetInCU: 0x3AE48, offset: 0x3AE48, size: 0x8, addend: 0x0, symName: __ZNKSt3__113basic_istreamIcNS_11char_traitsIcEEE6sentrycvbB8ue170006Ev, symObjAddr: 0x73E8, symBinAddr: 0x10000A684, symSize: 0x1C }
  - { offsetInCU: 0x3AE6E, offset: 0x3AE6E, size: 0x8, addend: 0x0, symName: __ZNSt3__112basic_stringIcNS_11char_traitsIcEENS_9allocatorIcEEE5clearB8ue170006Ev, symObjAddr: 0x7404, symBinAddr: 0x10000A6A0, symSize: 0x78 }
  - { offsetInCU: 0x3AE96, offset: 0x3AE96, size: 0x8, addend: 0x0, symName: __ZNKSt3__19basic_iosIcNS_11char_traitsIcEEE5rdbufB8ue170006Ev, symObjAddr: 0x747C, symBinAddr: 0x10000A718, symSize: 0x24 }
  - { offsetInCU: 0x3AEBE, offset: 0x3AEBE, size: 0x8, addend: 0x0, symName: __ZNSt3__115basic_streambufIcNS_11char_traitsIcEEE6sbumpcB8ue170006Ev, symObjAddr: 0x74A0, symBinAddr: 0x10000A73C, symSize: 0x78 }
  - { offsetInCU: 0x3AEE4, offset: 0x3AEE4, size: 0x8, addend: 0x0, symName: __ZNSt3__111char_traitsIcE11eq_int_typeB8ue170006Eii, symObjAddr: 0x7518, symBinAddr: 0x10000A7B4, symSize: 0x28 }
  - { offsetInCU: 0x3AF17, offset: 0x3AF17, size: 0x8, addend: 0x0, symName: __ZNSt3__111char_traitsIcE12to_char_typeB8ue170006Ei, symObjAddr: 0x7540, symBinAddr: 0x10000A7DC, symSize: 0x18 }
  - { offsetInCU: 0x3AF3B, offset: 0x3AF3B, size: 0x8, addend: 0x0, symName: __ZNSt3__111char_traitsIcE2eqEcc, symObjAddr: 0x7558, symBinAddr: 0x10000A7F4, symSize: 0x28 }
  - { offsetInCU: 0x3AF6E, offset: 0x3AF6E, size: 0x8, addend: 0x0, symName: __ZNKSt3__112basic_stringIcNS_11char_traitsIcEENS_9allocatorIcEEE8max_sizeB8ue170006Ev, symObjAddr: 0x7580, symBinAddr: 0x10000A81C, symSize: 0xAC }
  - { offsetInCU: 0x3AFC1, offset: 0x3AFC1, size: 0x8, addend: 0x0, symName: __ZNSt3__18ios_base18__setstate_nothrowB8ue170006Ej, symObjAddr: 0x762C, symBinAddr: 0x10000A8C8, symSize: 0x64 }
  - { offsetInCU: 0x3AFF6, offset: 0x3AFF6, size: 0x8, addend: 0x0, symName: __ZNKSt3__19basic_iosIcNS_11char_traitsIcEEE10exceptionsB8ue170006Ev, symObjAddr: 0x7690, symBinAddr: 0x10000A92C, symSize: 0x24 }
  - { offsetInCU: 0x3B01C, offset: 0x3B01C, size: 0x8, addend: 0x0, symName: __ZNSt3__19basic_iosIcNS_11char_traitsIcEEE8setstateB8ue170006Ej, symObjAddr: 0x76B4, symBinAddr: 0x10000A950, symSize: 0x2C }
  - { offsetInCU: 0x3B051, offset: 0x3B051, size: 0x8, addend: 0x0, symName: __ZNSt3__111char_traitsIcE6assignB8ue170006ERcRKc, symObjAddr: 0x76E0, symBinAddr: 0x10000A97C, symSize: 0x24 }
  - { offsetInCU: 0x3B084, offset: 0x3B084, size: 0x8, addend: 0x0, symName: __ZNSt3__112basic_stringIcNS_11char_traitsIcEENS_9allocatorIcEEE15__set_long_sizeB8ue170006Em, symObjAddr: 0x7704, symBinAddr: 0x10000A9A0, symSize: 0x38 }
  - { offsetInCU: 0x3B0B9, offset: 0x3B0B9, size: 0x8, addend: 0x0, symName: __ZNSt3__112basic_stringIcNS_11char_traitsIcEENS_9allocatorIcEEE16__set_short_sizeB8ue170006Em, symObjAddr: 0x773C, symBinAddr: 0x10000A9D8, symSize: 0x78 }
  - { offsetInCU: 0x3B0EE, offset: 0x3B0EE, size: 0x8, addend: 0x0, symName: __ZNKSt3__18ios_base5rdbufB8ue170006Ev, symObjAddr: 0x77B4, symBinAddr: 0x10000AA50, symSize: 0x18 }
  - { offsetInCU: 0x3B114, offset: 0x3B114, size: 0x8, addend: 0x0, symName: __ZNSt3__111char_traitsIcE11to_int_typeB8ue170006Ec, symObjAddr: 0x77CC, symBinAddr: 0x10000AA68, symSize: 0x14 }
  - { offsetInCU: 0x3B143, offset: 0x3B143, size: 0x8, addend: 0x0, symName: __ZNSt3__116allocator_traitsINS_9allocatorIcEEE8max_sizeB8ue170006IS2_vEEmRKS2_, symObjAddr: 0x77E0, symBinAddr: 0x10000AA7C, symSize: 0x24 }
  - { offsetInCU: 0x3B171, offset: 0x3B171, size: 0x8, addend: 0x0, symName: __ZNSt3__114numeric_limitsImE3maxB8ue170006Ev, symObjAddr: 0x7804, symBinAddr: 0x10000AAA0, symSize: 0x14 }
  - { offsetInCU: 0x3B185, offset: 0x3B185, size: 0x8, addend: 0x0, symName: __ZNKSt3__19allocatorIcE8max_sizeB8ue170006Ev, symObjAddr: 0x7818, symBinAddr: 0x10000AAB4, symSize: 0x14 }
  - { offsetInCU: 0x3B1AB, offset: 0x3B1AB, size: 0x8, addend: 0x0, symName: __ZNSt3__123__libcpp_numeric_limitsImLb1EE3maxB8ue170006Ev, symObjAddr: 0x782C, symBinAddr: 0x10000AAC8, symSize: 0x8 }
  - { offsetInCU: 0x3B1BF, offset: 0x3B1BF, size: 0x8, addend: 0x0, symName: __ZNKSt3__18ios_base10exceptionsB8ue170006Ev, symObjAddr: 0x7834, symBinAddr: 0x10000AAD0, symSize: 0x18 }
  - { offsetInCU: 0x3B1E7, offset: 0x3B1E7, size: 0x8, addend: 0x0, symName: __ZNSt3__18ios_base8setstateB8ue170006Ej, symObjAddr: 0x784C, symBinAddr: 0x10000AAE8, symSize: 0x34 }
  - { offsetInCU: 0x3B21E, offset: 0x3B21E, size: 0x8, addend: 0x0, symName: __ZNKSt3__19basic_iosIcNS_11char_traitsIcEEE4failB8ue170006Ev, symObjAddr: 0x7880, symBinAddr: 0x10000AB1C, symSize: 0x28 }
  - { offsetInCU: 0x3B244, offset: 0x3B244, size: 0x8, addend: 0x0, symName: __ZNKSt3__18ios_base4failB8ue170006Ev, symObjAddr: 0x78A8, symBinAddr: 0x10000AB44, symSize: 0x28 }
  - { offsetInCU: 0x3B26C, offset: 0x3B26C, size: 0x8, addend: 0x0, symName: __ZNSt3__16vectorINS_12basic_stringIcNS_11char_traitsIcEENS_9allocatorIcEEEENS4_IS6_EEEC2B8ue170006Ev, symObjAddr: 0x78D0, symBinAddr: 0x10000AB6C, symSize: 0x4C }
  - { offsetInCU: 0x3B296, offset: 0x3B296, size: 0x8, addend: 0x0, symName: __ZNSt3__117__compressed_pairIPNS_12basic_stringIcNS_11char_traitsIcEENS_9allocatorIcEEEENS4_IS6_EEEC1B8ue170006IDnNS_18__default_init_tagEEEOT_OT0_, symObjAddr: 0x791C, symBinAddr: 0x10000ABB8, symSize: 0x3C }
  - { offsetInCU: 0x3B2F0, offset: 0x3B2F0, size: 0x8, addend: 0x0, symName: __ZNSt3__117__compressed_pairIPNS_12basic_stringIcNS_11char_traitsIcEENS_9allocatorIcEEEENS4_IS6_EEEC2B8ue170006IDnNS_18__default_init_tagEEEOT_OT0_, symObjAddr: 0x7958, symBinAddr: 0x10000ABF4, symSize: 0x40 }
  - { offsetInCU: 0x3B34A, offset: 0x3B34A, size: 0x8, addend: 0x0, symName: __ZNSt3__122__compressed_pair_elemIPNS_12basic_stringIcNS_11char_traitsIcEENS_9allocatorIcEEEELi0ELb0EEC2B8ue170006IDnvEEOT_, symObjAddr: 0x7998, symBinAddr: 0x10000AC34, symSize: 0x1C }
  - { offsetInCU: 0x3B38D, offset: 0x3B38D, size: 0x8, addend: 0x0, symName: __ZNSt3__122__compressed_pair_elemINS_9allocatorINS_12basic_stringIcNS_11char_traitsIcEENS1_IcEEEEEELi1ELb1EEC2B8ue170006ENS_18__default_init_tagE, symObjAddr: 0x79B4, symBinAddr: 0x10000AC50, symSize: 0x2C }
  - { offsetInCU: 0x3B3C2, offset: 0x3B3C2, size: 0x8, addend: 0x0, symName: __ZNSt3__19allocatorINS_12basic_stringIcNS_11char_traitsIcEENS0_IcEEEEEC2B8ue170006Ev, symObjAddr: 0x79E0, symBinAddr: 0x10000AC7C, symSize: 0x2C }
  - { offsetInCU: 0x3B3EC, offset: 0x3B3EC, size: 0x8, addend: 0x0, symName: __ZNSt3__116__non_trivial_ifILb1ENS_9allocatorINS_12basic_stringIcNS_11char_traitsIcEENS1_IcEEEEEEEC2B8ue170006Ev, symObjAddr: 0x7A0C, symBinAddr: 0x10000ACA8, symSize: 0x14 }
  - { offsetInCU: 0x3B416, offset: 0x3B416, size: 0x8, addend: 0x0, symName: __ZNSt3__16vectorINS_12basic_stringIcNS_11char_traitsIcEENS_9allocatorIcEEEENS4_IS6_EEED2B8ue170006Ev, symObjAddr: 0x7A20, symBinAddr: 0x10000ACBC, symSize: 0x44 }
  - { offsetInCU: 0x3B440, offset: 0x3B440, size: 0x8, addend: 0x0, symName: __ZNSt3__16vectorINS_12basic_stringIcNS_11char_traitsIcEENS_9allocatorIcEEEENS4_IS6_EEE16__destroy_vectorC1B8ue170006ERS8_, symObjAddr: 0x7A64, symBinAddr: 0x10000AD00, symSize: 0x34 }
  - { offsetInCU: 0x3B479, offset: 0x3B479, size: 0x8, addend: 0x0, symName: __ZNSt3__16vectorINS_12basic_stringIcNS_11char_traitsIcEENS_9allocatorIcEEEENS4_IS6_EEE16__destroy_vectorclB8ue170006Ev, symObjAddr: 0x7A98, symBinAddr: 0x10000AD34, symSize: 0x90 }
  - { offsetInCU: 0x3B49F, offset: 0x3B49F, size: 0x8, addend: 0x0, symName: __ZNSt3__16vectorINS_12basic_stringIcNS_11char_traitsIcEENS_9allocatorIcEEEENS4_IS6_EEE16__destroy_vectorC2B8ue170006ERS8_, symObjAddr: 0x7B28, symBinAddr: 0x10000ADC4, symSize: 0x20 }
  - { offsetInCU: 0x3B4D8, offset: 0x3B4D8, size: 0x8, addend: 0x0, symName: __ZNSt3__16vectorINS_12basic_stringIcNS_11char_traitsIcEENS_9allocatorIcEEEENS4_IS6_EEE7__clearB8ue170006Ev, symObjAddr: 0x7B48, symBinAddr: 0x10000ADE4, symSize: 0x28 }
  - { offsetInCU: 0x3B4FE, offset: 0x3B4FE, size: 0x8, addend: 0x0, symName: __ZNKSt3__16vectorINS_12basic_stringIcNS_11char_traitsIcEENS_9allocatorIcEEEENS4_IS6_EEE17__annotate_deleteB8ue170006Ev, symObjAddr: 0x7B70, symBinAddr: 0x10000AE0C, symSize: 0xD4 }
  - { offsetInCU: 0x3B524, offset: 0x3B524, size: 0x8, addend: 0x0, symName: __ZNSt3__116allocator_traitsINS_9allocatorINS_12basic_stringIcNS_11char_traitsIcEENS1_IcEEEEEEE10deallocateB8ue170006ERS7_PS6_m, symObjAddr: 0x7C44, symBinAddr: 0x10000AEE0, symSize: 0x34 }
  - { offsetInCU: 0x3B566, offset: 0x3B566, size: 0x8, addend: 0x0, symName: __ZNSt3__16vectorINS_12basic_stringIcNS_11char_traitsIcEENS_9allocatorIcEEEENS4_IS6_EEE7__allocB8ue170006Ev, symObjAddr: 0x7C78, symBinAddr: 0x10000AF14, symSize: 0x28 }
  - { offsetInCU: 0x3B58C, offset: 0x3B58C, size: 0x8, addend: 0x0, symName: __ZNKSt3__16vectorINS_12basic_stringIcNS_11char_traitsIcEENS_9allocatorIcEEEENS4_IS6_EEE8capacityB8ue170006Ev, symObjAddr: 0x7CA0, symBinAddr: 0x10000AF3C, symSize: 0x40 }
  - { offsetInCU: 0x3B5B2, offset: 0x3B5B2, size: 0x8, addend: 0x0, symName: __ZNSt3__16vectorINS_12basic_stringIcNS_11char_traitsIcEENS_9allocatorIcEEEENS4_IS6_EEE22__base_destruct_at_endB8ue170006EPS6_, symObjAddr: 0x7CE0, symBinAddr: 0x10000AF7C, symSize: 0x8C }
  - { offsetInCU: 0x3B5F6, offset: 0x3B5F6, size: 0x8, addend: 0x0, symName: __ZNSt3__116allocator_traitsINS_9allocatorINS_12basic_stringIcNS_11char_traitsIcEENS1_IcEEEEEEE7destroyB8ue170006IS6_vEEvRS7_PT_, symObjAddr: 0x7D6C, symBinAddr: 0x10000B008, symSize: 0x2C }
  - { offsetInCU: 0x3B633, offset: 0x3B633, size: 0x8, addend: 0x0, symName: __ZNSt3__19allocatorINS_12basic_stringIcNS_11char_traitsIcEENS0_IcEEEEE7destroyB8ue170006EPS5_, symObjAddr: 0x7DAC, symBinAddr: 0x10000B048, symSize: 0x28 }
  - { offsetInCU: 0x3B668, offset: 0x3B668, size: 0x8, addend: 0x0, symName: __ZNKSt3__16vectorINS_12basic_stringIcNS_11char_traitsIcEENS_9allocatorIcEEEENS4_IS6_EEE31__annotate_contiguous_containerB8ue170006EPKvSA_SA_SA_, symObjAddr: 0x7DD4, symBinAddr: 0x10000B070, symSize: 0x20 }
  - { offsetInCU: 0x3B6BE, offset: 0x3B6BE, size: 0x8, addend: 0x0, symName: __ZNKSt3__16vectorINS_12basic_stringIcNS_11char_traitsIcEENS_9allocatorIcEEEENS4_IS6_EEE4dataB8ue170006Ev, symObjAddr: 0x7DF4, symBinAddr: 0x10000B090, symSize: 0x28 }
  - { offsetInCU: 0x3B6E4, offset: 0x3B6E4, size: 0x8, addend: 0x0, symName: __ZNKSt3__16vectorINS_12basic_stringIcNS_11char_traitsIcEENS_9allocatorIcEEEENS4_IS6_EEE4sizeB8ue170006Ev, symObjAddr: 0x7E1C, symBinAddr: 0x10000B0B8, symSize: 0x28 }
  - { offsetInCU: 0x3B70A, offset: 0x3B70A, size: 0x8, addend: 0x0, symName: __ZNSt3__19allocatorINS_12basic_stringIcNS_11char_traitsIcEENS0_IcEEEEE10deallocateB8ue170006EPS5_m, symObjAddr: 0x7E44, symBinAddr: 0x10000B0E0, symSize: 0x44 }
  - { offsetInCU: 0x3B74E, offset: 0x3B74E, size: 0x8, addend: 0x0, symName: __ZNSt3__117__compressed_pairIPNS_12basic_stringIcNS_11char_traitsIcEENS_9allocatorIcEEEENS4_IS6_EEE6secondB8ue170006Ev, symObjAddr: 0x7E88, symBinAddr: 0x10000B124, symSize: 0x24 }
  - { offsetInCU: 0x3B774, offset: 0x3B774, size: 0x8, addend: 0x0, symName: __ZNSt3__122__compressed_pair_elemINS_9allocatorINS_12basic_stringIcNS_11char_traitsIcEENS1_IcEEEEEELi1ELb1EE5__getB8ue170006Ev, symObjAddr: 0x7EAC, symBinAddr: 0x10000B148, symSize: 0x14 }
  - { offsetInCU: 0x3B79A, offset: 0x3B79A, size: 0x8, addend: 0x0, symName: __ZNKSt3__16vectorINS_12basic_stringIcNS_11char_traitsIcEENS_9allocatorIcEEEENS4_IS6_EEE9__end_capB8ue170006Ev, symObjAddr: 0x7EC0, symBinAddr: 0x10000B15C, symSize: 0x28 }
  - { offsetInCU: 0x3B7C0, offset: 0x3B7C0, size: 0x8, addend: 0x0, symName: __ZNKSt3__117__compressed_pairIPNS_12basic_stringIcNS_11char_traitsIcEENS_9allocatorIcEEEENS4_IS6_EEE5firstB8ue170006Ev, symObjAddr: 0x7EE8, symBinAddr: 0x10000B184, symSize: 0x24 }
  - { offsetInCU: 0x3B7E6, offset: 0x3B7E6, size: 0x8, addend: 0x0, symName: __ZNKSt3__122__compressed_pair_elemIPNS_12basic_stringIcNS_11char_traitsIcEENS_9allocatorIcEEEELi0ELb0EE5__getB8ue170006Ev, symObjAddr: 0x7F0C, symBinAddr: 0x10000B1A8, symSize: 0x14 }
  - { offsetInCU: 0x3B80C, offset: 0x3B80C, size: 0x8, addend: 0x0, symName: __ZNSt3__114basic_iostreamIcNS_11char_traitsIcEEEC2B8ue170006EPNS_15basic_streambufIcS2_EE, symObjAddr: 0x7F20, symBinAddr: 0x10000B1BC, symSize: 0xAC }
  - { offsetInCU: 0x3B852, offset: 0x3B852, size: 0x8, addend: 0x0, symName: __ZNSt3__113basic_ostreamIcNS_11char_traitsIcEEEC2B8ue170006Ev, symObjAddr: 0x7FCC, symBinAddr: 0x10000B268, symSize: 0x34 }
  - { offsetInCU: 0x3B889, offset: 0x3B889, size: 0x8, addend: 0x0, symName: __ZNSt3__16vectorINS_12basic_stringIcNS_11char_traitsIcEENS_9allocatorIcEEEENS4_IS6_EEE9__end_capB8ue170006Ev, symObjAddr: 0x8000, symBinAddr: 0x10000B29C, symSize: 0x28 }
  - { offsetInCU: 0x3B8AF, offset: 0x3B8AF, size: 0x8, addend: 0x0, symName: __ZNSt3__16vectorINS_12basic_stringIcNS_11char_traitsIcEENS_9allocatorIcEEEENS4_IS6_EEE22__construct_one_at_endB8ue170006IJRKS6_EEEvDpOT_, symObjAddr: 0x8028, symBinAddr: 0x10000B2C4, symSize: 0x90 }
  - { offsetInCU: 0x3B8FE, offset: 0x3B8FE, size: 0x8, addend: 0x0, symName: __ZNSt3__16vectorINS_12basic_stringIcNS_11char_traitsIcEENS_9allocatorIcEEEENS4_IS6_EEE21__push_back_slow_pathIRKS6_EEvOT_, symObjAddr: 0x80B8, symBinAddr: 0x10000B354, symSize: 0xD8 }
  - { offsetInCU: 0x3B95C, offset: 0x3B95C, size: 0x8, addend: 0x0, symName: __ZNSt3__117__compressed_pairIPNS_12basic_stringIcNS_11char_traitsIcEENS_9allocatorIcEEEENS4_IS6_EEE5firstB8ue170006Ev, symObjAddr: 0x8190, symBinAddr: 0x10000B42C, symSize: 0x24 }
  - { offsetInCU: 0x3B982, offset: 0x3B982, size: 0x8, addend: 0x0, symName: __ZNSt3__122__compressed_pair_elemIPNS_12basic_stringIcNS_11char_traitsIcEENS_9allocatorIcEEEELi0ELb0EE5__getB8ue170006Ev, symObjAddr: 0x81B4, symBinAddr: 0x10000B450, symSize: 0x14 }
  - { offsetInCU: 0x3B9C3, offset: 0x3B9C3, size: 0x8, addend: 0x0, symName: __ZNSt3__16vectorINS_12basic_stringIcNS_11char_traitsIcEENS_9allocatorIcEEEENS4_IS6_EEE21_ConstructTransactionC1B8ue170006ERS8_m, symObjAddr: 0x81C8, symBinAddr: 0x10000B464, symSize: 0x3C }
  - { offsetInCU: 0x3BA0B, offset: 0x3BA0B, size: 0x8, addend: 0x0, symName: __ZNSt3__116allocator_traitsINS_9allocatorINS_12basic_stringIcNS_11char_traitsIcEENS1_IcEEEEEEE9constructB8ue170006IS6_JRKS6_EvEEvRS7_PT_DpOT0_, symObjAddr: 0x8204, symBinAddr: 0x10000B4A0, symSize: 0x34 }
  - { offsetInCU: 0x3BA62, offset: 0x3BA62, size: 0x8, addend: 0x0, symName: __ZNSt3__16vectorINS_12basic_stringIcNS_11char_traitsIcEENS_9allocatorIcEEEENS4_IS6_EEE21_ConstructTransactionD1B8ue170006Ev, symObjAddr: 0x8238, symBinAddr: 0x10000B4D4, symSize: 0x2C }
  - { offsetInCU: 0x3BA8C, offset: 0x3BA8C, size: 0x8, addend: 0x0, symName: __ZNSt3__16vectorINS_12basic_stringIcNS_11char_traitsIcEENS_9allocatorIcEEEENS4_IS6_EEE21_ConstructTransactionC2B8ue170006ERS8_m, symObjAddr: 0x8264, symBinAddr: 0x10000B500, symSize: 0x4C }
  - { offsetInCU: 0x3BAD4, offset: 0x3BAD4, size: 0x8, addend: 0x0, symName: __ZNSt3__19allocatorINS_12basic_stringIcNS_11char_traitsIcEENS0_IcEEEEE9constructB8ue170006IS5_JRKS5_EEEvPT_DpOT0_, symObjAddr: 0x82B0, symBinAddr: 0x10000B54C, symSize: 0x30 }
  - { offsetInCU: 0x3BB2C, offset: 0x3BB2C, size: 0x8, addend: 0x0, symName: __ZNSt3__16vectorINS_12basic_stringIcNS_11char_traitsIcEENS_9allocatorIcEEEENS4_IS6_EEE21_ConstructTransactionD2B8ue170006Ev, symObjAddr: 0x82E0, symBinAddr: 0x10000B57C, symSize: 0x20 }
  - { offsetInCU: 0x3BB56, offset: 0x3BB56, size: 0x8, addend: 0x0, symName: __ZNKSt3__16vectorINS_12basic_stringIcNS_11char_traitsIcEENS_9allocatorIcEEEENS4_IS6_EEE11__recommendB8ue170006Em, symObjAddr: 0x8300, symBinAddr: 0x10000B59C, symSize: 0xB4 }
  - { offsetInCU: 0x3BBAB, offset: 0x3BBAB, size: 0x8, addend: 0x0, symName: __ZNSt3__114__split_bufferINS_12basic_stringIcNS_11char_traitsIcEENS_9allocatorIcEEEERNS4_IS6_EEEC1EmmS8_, symObjAddr: 0x83B4, symBinAddr: 0x10000B650, symSize: 0x44 }
  - { offsetInCU: 0x3BC04, offset: 0x3BC04, size: 0x8, addend: 0x0, symName: __ZNSt3__114__split_bufferINS_12basic_stringIcNS_11char_traitsIcEENS_9allocatorIcEEEERNS4_IS6_EEED1Ev, symObjAddr: 0x8508, symBinAddr: 0x10000B7A4, symSize: 0x2C }
  - { offsetInCU: 0x3BC30, offset: 0x3BC30, size: 0x8, addend: 0x0, symName: __ZNKSt3__16vectorINS_12basic_stringIcNS_11char_traitsIcEENS_9allocatorIcEEEENS4_IS6_EEE8max_sizeEv, symObjAddr: 0x8534, symBinAddr: 0x10000B7D0, symSize: 0x60 }
  - { offsetInCU: 0x3BC58, offset: 0x3BC58, size: 0x8, addend: 0x0, symName: __ZNKSt3__16vectorINS_12basic_stringIcNS_11char_traitsIcEENS_9allocatorIcEEEENS4_IS6_EEE20__throw_length_errorB8ue170006Ev, symObjAddr: 0x8594, symBinAddr: 0x10000B830, symSize: 0x1C }
  - { offsetInCU: 0x3BC89, offset: 0x3BC89, size: 0x8, addend: 0x0, symName: __ZNSt3__116allocator_traitsINS_9allocatorINS_12basic_stringIcNS_11char_traitsIcEENS1_IcEEEEEEE8max_sizeB8ue170006IS7_vEEmRKS7_, symObjAddr: 0x8608, symBinAddr: 0x10000B8A4, symSize: 0x24 }
  - { offsetInCU: 0x3BCB7, offset: 0x3BCB7, size: 0x8, addend: 0x0, symName: __ZNKSt3__16vectorINS_12basic_stringIcNS_11char_traitsIcEENS_9allocatorIcEEEENS4_IS6_EEE7__allocB8ue170006Ev, symObjAddr: 0x862C, symBinAddr: 0x10000B8C8, symSize: 0x28 }
  - { offsetInCU: 0x3BCDD, offset: 0x3BCDD, size: 0x8, addend: 0x0, symName: __ZNSt3__114numeric_limitsIlE3maxB8ue170006Ev, symObjAddr: 0x8654, symBinAddr: 0x10000B8F0, symSize: 0x14 }
  - { offsetInCU: 0x3BCFB, offset: 0x3BCFB, size: 0x8, addend: 0x0, symName: __ZNKSt3__16__lessIvvEclB8ue170006ImmEEbRKT_RKT0_, symObjAddr: 0x86BC, symBinAddr: 0x10000B958, symSize: 0x34 }
  - { offsetInCU: 0x3BD51, offset: 0x3BD51, size: 0x8, addend: 0x0, symName: __ZNKSt3__19allocatorINS_12basic_stringIcNS_11char_traitsIcEENS0_IcEEEEE8max_sizeB8ue170006Ev, symObjAddr: 0x86F0, symBinAddr: 0x10000B98C, symSize: 0x18 }
  - { offsetInCU: 0x3BD77, offset: 0x3BD77, size: 0x8, addend: 0x0, symName: __ZNKSt3__117__compressed_pairIPNS_12basic_stringIcNS_11char_traitsIcEENS_9allocatorIcEEEENS4_IS6_EEE6secondB8ue170006Ev, symObjAddr: 0x8708, symBinAddr: 0x10000B9A4, symSize: 0x24 }
  - { offsetInCU: 0x3BD9D, offset: 0x3BD9D, size: 0x8, addend: 0x0, symName: __ZNKSt3__122__compressed_pair_elemINS_9allocatorINS_12basic_stringIcNS_11char_traitsIcEENS1_IcEEEEEELi1ELb1EE5__getB8ue170006Ev, symObjAddr: 0x872C, symBinAddr: 0x10000B9C8, symSize: 0x14 }
  - { offsetInCU: 0x3BDC3, offset: 0x3BDC3, size: 0x8, addend: 0x0, symName: __ZNSt3__123__libcpp_numeric_limitsIlLb1EE3maxB8ue170006Ev, symObjAddr: 0x8740, symBinAddr: 0x10000B9DC, symSize: 0x8 }
  - { offsetInCU: 0x3BDD7, offset: 0x3BDD7, size: 0x8, addend: 0x0, symName: __ZNSt12length_errorC1B8ue170006EPKc, symObjAddr: 0x87AC, symBinAddr: 0x10000BA48, symSize: 0x34 }
  - { offsetInCU: 0x3BE10, offset: 0x3BE10, size: 0x8, addend: 0x0, symName: __ZNSt12length_errorC2B8ue170006EPKc, symObjAddr: 0x87E0, symBinAddr: 0x10000BA7C, symSize: 0x4C }
  - { offsetInCU: 0x3BE49, offset: 0x3BE49, size: 0x8, addend: 0x0, symName: __ZNSt3__114__split_bufferINS_12basic_stringIcNS_11char_traitsIcEENS_9allocatorIcEEEERNS4_IS6_EEEC2EmmS8_, symObjAddr: 0x8880, symBinAddr: 0x10000BB1C, symSize: 0xE0 }
  - { offsetInCU: 0x3BEC0, offset: 0x3BEC0, size: 0x8, addend: 0x0, symName: __ZNSt3__117__compressed_pairIPNS_12basic_stringIcNS_11char_traitsIcEENS_9allocatorIcEEEERNS4_IS6_EEEC1B8ue170006IDnS9_EEOT_OT0_, symObjAddr: 0x8960, symBinAddr: 0x10000BBFC, symSize: 0x3C }
  - { offsetInCU: 0x3BF1A, offset: 0x3BF1A, size: 0x8, addend: 0x0, symName: __ZNSt3__114__split_bufferINS_12basic_stringIcNS_11char_traitsIcEENS_9allocatorIcEEEERNS4_IS6_EEE7__allocB8ue170006Ev, symObjAddr: 0x89DC, symBinAddr: 0x10000BC78, symSize: 0x28 }
  - { offsetInCU: 0x3BF40, offset: 0x3BF40, size: 0x8, addend: 0x0, symName: __ZNSt3__114__split_bufferINS_12basic_stringIcNS_11char_traitsIcEENS_9allocatorIcEEEERNS4_IS6_EEE9__end_capB8ue170006Ev, symObjAddr: 0x8A04, symBinAddr: 0x10000BCA0, symSize: 0x28 }
  - { offsetInCU: 0x3BF66, offset: 0x3BF66, size: 0x8, addend: 0x0, symName: __ZNSt3__117__compressed_pairIPNS_12basic_stringIcNS_11char_traitsIcEENS_9allocatorIcEEEERNS4_IS6_EEEC2B8ue170006IDnS9_EEOT_OT0_, symObjAddr: 0x8A2C, symBinAddr: 0x10000BCC8, symSize: 0x48 }
  - { offsetInCU: 0x3BFC0, offset: 0x3BFC0, size: 0x8, addend: 0x0, symName: __ZNSt3__122__compressed_pair_elemIRNS_9allocatorINS_12basic_stringIcNS_11char_traitsIcEENS1_IcEEEEEELi1ELb0EEC2B8ue170006IS8_vEEOT_, symObjAddr: 0x8A74, symBinAddr: 0x10000BD10, symSize: 0x20 }
  - { offsetInCU: 0x3C003, offset: 0x3C003, size: 0x8, addend: 0x0, symName: __ZNSt3__19allocatorINS_12basic_stringIcNS_11char_traitsIcEENS0_IcEEEEE8allocateB8ue170006Em, symObjAddr: 0x8A94, symBinAddr: 0x10000BD30, symSize: 0x5C }
  - { offsetInCU: 0x3C038, offset: 0x3C038, size: 0x8, addend: 0x0, symName: __ZNSt3__117__compressed_pairIPNS_12basic_stringIcNS_11char_traitsIcEENS_9allocatorIcEEEERNS4_IS6_EEE6secondB8ue170006Ev, symObjAddr: 0x8BD4, symBinAddr: 0x10000BE70, symSize: 0x28 }
  - { offsetInCU: 0x3C05E, offset: 0x3C05E, size: 0x8, addend: 0x0, symName: __ZNSt3__122__compressed_pair_elemIRNS_9allocatorINS_12basic_stringIcNS_11char_traitsIcEENS1_IcEEEEEELi1ELb0EE5__getB8ue170006Ev, symObjAddr: 0x8BFC, symBinAddr: 0x10000BE98, symSize: 0x18 }
  - { offsetInCU: 0x3C084, offset: 0x3C084, size: 0x8, addend: 0x0, symName: __ZNSt3__117__compressed_pairIPNS_12basic_stringIcNS_11char_traitsIcEENS_9allocatorIcEEEERNS4_IS6_EEE5firstB8ue170006Ev, symObjAddr: 0x8C14, symBinAddr: 0x10000BEB0, symSize: 0x24 }
  - { offsetInCU: 0x3C0AA, offset: 0x3C0AA, size: 0x8, addend: 0x0, symName: __ZNSt3__116reverse_iteratorIPNS_12basic_stringIcNS_11char_traitsIcEENS_9allocatorIcEEEEEC1B8ue170006ES7_, symObjAddr: 0x8D64, symBinAddr: 0x10000C000, symSize: 0x34 }
  - { offsetInCU: 0x3C0E3, offset: 0x3C0E3, size: 0x8, addend: 0x0, symName: __ZNKSt3__116reverse_iteratorIPNS_12basic_stringIcNS_11char_traitsIcEENS_9allocatorIcEEEEE4baseB8ue170006Ev, symObjAddr: 0x8D98, symBinAddr: 0x10000C034, symSize: 0x18 }
  - { offsetInCU: 0x3C109, offset: 0x3C109, size: 0x8, addend: 0x0, symName: __ZNKSt3__16vectorINS_12basic_stringIcNS_11char_traitsIcEENS_9allocatorIcEEEENS4_IS6_EEE14__annotate_newB8ue170006Em, symObjAddr: 0x8DEC, symBinAddr: 0x10000C088, symSize: 0xC8 }
  - { offsetInCU: 0x3C13E, offset: 0x3C13E, size: 0x8, addend: 0x0, symName: __ZNSt3__129_AllocatorDestroyRangeReverseINS_9allocatorINS_12basic_stringIcNS_11char_traitsIcEENS1_IcEEEEEENS_16reverse_iteratorIPS6_EEEC1B8ue170006ERS7_RSA_SD_, symObjAddr: 0x8F00, symBinAddr: 0x10000C19C, symSize: 0x44 }
  - { offsetInCU: 0x3C19B, offset: 0x3C19B, size: 0x8, addend: 0x0, symName: __ZNSt3__116allocator_traitsINS_9allocatorINS_12basic_stringIcNS_11char_traitsIcEENS1_IcEEEEEEE9constructB8ue170006IS6_JS6_EvEEvRS7_PT_DpOT0_, symObjAddr: 0x8F8C, symBinAddr: 0x10000C228, symSize: 0x34 }
  - { offsetInCU: 0x3C1F2, offset: 0x3C1F2, size: 0x8, addend: 0x0, symName: __ZNKSt3__116reverse_iteratorIPNS_12basic_stringIcNS_11char_traitsIcEENS_9allocatorIcEEEEEdeB8ue170006Ev, symObjAddr: 0x8FE4, symBinAddr: 0x10000C280, symSize: 0x28 }
  - { offsetInCU: 0x3C227, offset: 0x3C227, size: 0x8, addend: 0x0, symName: __ZNSt3__116reverse_iteratorIPNS_12basic_stringIcNS_11char_traitsIcEENS_9allocatorIcEEEEEppB8ue170006Ev, symObjAddr: 0x900C, symBinAddr: 0x10000C2A8, symSize: 0x20 }
  - { offsetInCU: 0x3C24D, offset: 0x3C24D, size: 0x8, addend: 0x0, symName: __ZNSt3__128__exception_guard_exceptionsINS_29_AllocatorDestroyRangeReverseINS_9allocatorINS_12basic_stringIcNS_11char_traitsIcEENS2_IcEEEEEENS_16reverse_iteratorIPS7_EEEEE10__completeB8ue170006Ev, symObjAddr: 0x902C, symBinAddr: 0x10000C2C8, symSize: 0x1C }
  - { offsetInCU: 0x3C273, offset: 0x3C273, size: 0x8, addend: 0x0, symName: __ZNSt3__128__exception_guard_exceptionsINS_29_AllocatorDestroyRangeReverseINS_9allocatorINS_12basic_stringIcNS_11char_traitsIcEENS2_IcEEEEEENS_16reverse_iteratorIPS7_EEEEED1B8ue170006Ev, symObjAddr: 0x9048, symBinAddr: 0x10000C2E4, symSize: 0x2C }
  - { offsetInCU: 0x3C29D, offset: 0x3C29D, size: 0x8, addend: 0x0, symName: __ZNSt3__128__exception_guard_exceptionsINS_29_AllocatorDestroyRangeReverseINS_9allocatorINS_12basic_stringIcNS_11char_traitsIcEENS2_IcEEEEEENS_16reverse_iteratorIPS7_EEEEEC1B8ue170006ESC_, symObjAddr: 0x9074, symBinAddr: 0x10000C310, symSize: 0x34 }
  - { offsetInCU: 0x3C2D7, offset: 0x3C2D7, size: 0x8, addend: 0x0, symName: __ZNSt3__128__exception_guard_exceptionsINS_29_AllocatorDestroyRangeReverseINS_9allocatorINS_12basic_stringIcNS_11char_traitsIcEENS2_IcEEEEEENS_16reverse_iteratorIPS7_EEEEEC2B8ue170006ESC_, symObjAddr: 0x90A8, symBinAddr: 0x10000C344, symSize: 0x30 }
  - { offsetInCU: 0x3C311, offset: 0x3C311, size: 0x8, addend: 0x0, symName: __ZNSt3__129_AllocatorDestroyRangeReverseINS_9allocatorINS_12basic_stringIcNS_11char_traitsIcEENS1_IcEEEEEENS_16reverse_iteratorIPS6_EEEC2B8ue170006ERS7_RSA_SD_, symObjAddr: 0x90D8, symBinAddr: 0x10000C374, symSize: 0x38 }
  - { offsetInCU: 0x3C368, offset: 0x3C368, size: 0x8, addend: 0x0, symName: __ZNSt3__19allocatorINS_12basic_stringIcNS_11char_traitsIcEENS0_IcEEEEE9constructB8ue170006IS5_JS5_EEEvPT_DpOT0_, symObjAddr: 0x9110, symBinAddr: 0x10000C3AC, symSize: 0x30 }
  - { offsetInCU: 0x3C3C0, offset: 0x3C3C0, size: 0x8, addend: 0x0, symName: __ZNSt3__112basic_stringIcNS_11char_traitsIcEENS_9allocatorIcEEEC1B8ue170006EOS5_, symObjAddr: 0x9140, symBinAddr: 0x10000C3DC, symSize: 0x34 }
  - { offsetInCU: 0x3C3F9, offset: 0x3C3F9, size: 0x8, addend: 0x0, symName: __ZNSt3__112basic_stringIcNS_11char_traitsIcEENS_9allocatorIcEEEC2B8ue170006EOS5_, symObjAddr: 0x9174, symBinAddr: 0x10000C410, symSize: 0x48 }
  - { offsetInCU: 0x3C438, offset: 0x3C438, size: 0x8, addend: 0x0, symName: __ZNSt3__119__to_address_helperINS_16reverse_iteratorIPNS_12basic_stringIcNS_11char_traitsIcEENS_9allocatorIcEEEEEEvE6__callB8ue170006ERKS9_, symObjAddr: 0x91BC, symBinAddr: 0x10000C458, symSize: 0x38 }
  - { offsetInCU: 0x3C45C, offset: 0x3C45C, size: 0x8, addend: 0x0, symName: __ZNKSt3__116reverse_iteratorIPNS_12basic_stringIcNS_11char_traitsIcEENS_9allocatorIcEEEEEptB8ue170006Ev, symObjAddr: 0x91F4, symBinAddr: 0x10000C490, symSize: 0x24 }
  - { offsetInCU: 0x3C482, offset: 0x3C482, size: 0x8, addend: 0x0, symName: __ZNSt3__128__exception_guard_exceptionsINS_29_AllocatorDestroyRangeReverseINS_9allocatorINS_12basic_stringIcNS_11char_traitsIcEENS2_IcEEEEEENS_16reverse_iteratorIPS7_EEEEED2B8ue170006Ev, symObjAddr: 0x9218, symBinAddr: 0x10000C4B4, symSize: 0x50 }
  - { offsetInCU: 0x3C4AC, offset: 0x3C4AC, size: 0x8, addend: 0x0, symName: __ZNKSt3__129_AllocatorDestroyRangeReverseINS_9allocatorINS_12basic_stringIcNS_11char_traitsIcEENS1_IcEEEEEENS_16reverse_iteratorIPS6_EEEclB8ue170006Ev, symObjAddr: 0x9268, symBinAddr: 0x10000C504, symSize: 0xB4 }
  - { offsetInCU: 0x3C4D3, offset: 0x3C4D3, size: 0x8, addend: 0x0, symName: __ZNSt3__116reverse_iteratorINS0_IPNS_12basic_stringIcNS_11char_traitsIcEENS_9allocatorIcEEEEEEEC1B8ue170006ES8_, symObjAddr: 0x938C, symBinAddr: 0x10000C628, symSize: 0x3C }
  - { offsetInCU: 0x3C50C, offset: 0x3C50C, size: 0x8, addend: 0x0, symName: __ZNSt3__116reverse_iteratorINS0_IPNS_12basic_stringIcNS_11char_traitsIcEENS_9allocatorIcEEEEEEEppB8ue170006Ev, symObjAddr: 0x944C, symBinAddr: 0x10000C6E8, symSize: 0x30 }
  - { offsetInCU: 0x3C532, offset: 0x3C532, size: 0x8, addend: 0x0, symName: __ZNKSt3__116reverse_iteratorINS0_IPNS_12basic_stringIcNS_11char_traitsIcEENS_9allocatorIcEEEEEEE4baseB8ue170006Ev, symObjAddr: 0x947C, symBinAddr: 0x10000C718, symSize: 0x24 }
  - { offsetInCU: 0x3C55E, offset: 0x3C55E, size: 0x8, addend: 0x0, symName: __ZNSt3__119__to_address_helperINS_16reverse_iteratorINS1_IPNS_12basic_stringIcNS_11char_traitsIcEENS_9allocatorIcEEEEEEEEvE6__callB8ue170006ERKSA_, symObjAddr: 0x94A0, symBinAddr: 0x10000C73C, symSize: 0x38 }
  - { offsetInCU: 0x3C582, offset: 0x3C582, size: 0x8, addend: 0x0, symName: __ZNKSt3__116reverse_iteratorINS0_IPNS_12basic_stringIcNS_11char_traitsIcEENS_9allocatorIcEEEEEEEptB8ue170006Ev, symObjAddr: 0x94D8, symBinAddr: 0x10000C774, symSize: 0x24 }
  - { offsetInCU: 0x3C5A8, offset: 0x3C5A8, size: 0x8, addend: 0x0, symName: __ZNKSt3__116reverse_iteratorINS0_IPNS_12basic_stringIcNS_11char_traitsIcEENS_9allocatorIcEEEEEEEdeB8ue170006Ev, symObjAddr: 0x94FC, symBinAddr: 0x10000C798, symSize: 0x34 }
  - { offsetInCU: 0x3C5DD, offset: 0x3C5DD, size: 0x8, addend: 0x0, symName: __ZNSt3__116reverse_iteratorIPNS_12basic_stringIcNS_11char_traitsIcEENS_9allocatorIcEEEEEmmB8ue170006Ev, symObjAddr: 0x9530, symBinAddr: 0x10000C7CC, symSize: 0x20 }
  - { offsetInCU: 0x3C603, offset: 0x3C603, size: 0x8, addend: 0x0, symName: __ZNSt3__116reverse_iteratorINS0_IPNS_12basic_stringIcNS_11char_traitsIcEENS_9allocatorIcEEEEEEEC2B8ue170006ES8_, symObjAddr: 0x9550, symBinAddr: 0x10000C7EC, symSize: 0x2C }
  - { offsetInCU: 0x3C63C, offset: 0x3C63C, size: 0x8, addend: 0x0, symName: __ZNSt3__116reverse_iteratorIPNS_12basic_stringIcNS_11char_traitsIcEENS_9allocatorIcEEEEEC2B8ue170006ES7_, symObjAddr: 0x957C, symBinAddr: 0x10000C818, symSize: 0x28 }
  - { offsetInCU: 0x3C675, offset: 0x3C675, size: 0x8, addend: 0x0, symName: __ZNSt3__114__split_bufferINS_12basic_stringIcNS_11char_traitsIcEENS_9allocatorIcEEEERNS4_IS6_EEED2Ev, symObjAddr: 0x95A4, symBinAddr: 0x10000C840, symSize: 0x8C }
  - { offsetInCU: 0x3C6A1, offset: 0x3C6A1, size: 0x8, addend: 0x0, symName: __ZNSt3__114__split_bufferINS_12basic_stringIcNS_11char_traitsIcEENS_9allocatorIcEEEERNS4_IS6_EEE5clearB8ue170006Ev, symObjAddr: 0x9630, symBinAddr: 0x10000C8CC, symSize: 0x28 }
  - { offsetInCU: 0x3C6C7, offset: 0x3C6C7, size: 0x8, addend: 0x0, symName: __ZNKSt3__114__split_bufferINS_12basic_stringIcNS_11char_traitsIcEENS_9allocatorIcEEEERNS4_IS6_EEE8capacityB8ue170006Ev, symObjAddr: 0x9658, symBinAddr: 0x10000C8F4, symSize: 0x40 }
  - { offsetInCU: 0x3C6ED, offset: 0x3C6ED, size: 0x8, addend: 0x0, symName: __ZNSt3__114__split_bufferINS_12basic_stringIcNS_11char_traitsIcEENS_9allocatorIcEEEERNS4_IS6_EEE17__destruct_at_endB8ue170006EPS6_, symObjAddr: 0x9698, symBinAddr: 0x10000C934, symSize: 0x2C }
  - { offsetInCU: 0x3C722, offset: 0x3C722, size: 0x8, addend: 0x0, symName: __ZNSt3__114__split_bufferINS_12basic_stringIcNS_11char_traitsIcEENS_9allocatorIcEEEERNS4_IS6_EEE17__destruct_at_endB8ue170006EPS6_NS_17integral_constantIbLb0EEE, symObjAddr: 0x96C4, symBinAddr: 0x10000C960, symSize: 0x80 }
  - { offsetInCU: 0x3C764, offset: 0x3C764, size: 0x8, addend: 0x0, symName: __ZNKSt3__114__split_bufferINS_12basic_stringIcNS_11char_traitsIcEENS_9allocatorIcEEEERNS4_IS6_EEE9__end_capB8ue170006Ev, symObjAddr: 0x9744, symBinAddr: 0x10000C9E0, symSize: 0x28 }
  - { offsetInCU: 0x3C78A, offset: 0x3C78A, size: 0x8, addend: 0x0, symName: __ZNKSt3__117__compressed_pairIPNS_12basic_stringIcNS_11char_traitsIcEENS_9allocatorIcEEEERNS4_IS6_EEE5firstB8ue170006Ev, symObjAddr: 0x976C, symBinAddr: 0x10000CA08, symSize: 0x24 }
  - { offsetInCU: 0x3C7B0, offset: 0x3C7B0, size: 0x8, addend: 0x0, symName: __ZNSt3__110shared_ptrIN2sf5ShapeEED2B8ue170006Ev, symObjAddr: 0x9790, symBinAddr: 0x10000CA2C, symSize: 0x54 }
  - { offsetInCU: 0x3C7DA, offset: 0x3C7DA, size: 0x8, addend: 0x0, symName: __ZNSt3__110shared_ptrIN2sf4TextEED2B8ue170006Ev, symObjAddr: 0x97E4, symBinAddr: 0x10000CA80, symSize: 0x54 }
  - { offsetInCU: 0x3C804, offset: 0x3C804, size: 0x8, addend: 0x0, symName: __ZNSt3__16vectorI15AssignmentShapeNS_9allocatorIS1_EEEC2B8ue170006Ev, symObjAddr: 0x9838, symBinAddr: 0x10000CAD4, symSize: 0x4C }
  - { offsetInCU: 0x3C82E, offset: 0x3C82E, size: 0x8, addend: 0x0, symName: __ZNSt3__117__compressed_pairIP15AssignmentShapeNS_9allocatorIS1_EEEC1B8ue170006IDnNS_18__default_init_tagEEEOT_OT0_, symObjAddr: 0x9884, symBinAddr: 0x10000CB20, symSize: 0x3C }
  - { offsetInCU: 0x3C888, offset: 0x3C888, size: 0x8, addend: 0x0, symName: __ZNSt3__117__compressed_pairIP15AssignmentShapeNS_9allocatorIS1_EEEC2B8ue170006IDnNS_18__default_init_tagEEEOT_OT0_, symObjAddr: 0x98C0, symBinAddr: 0x10000CB5C, symSize: 0x40 }
  - { offsetInCU: 0x3C8E2, offset: 0x3C8E2, size: 0x8, addend: 0x0, symName: __ZNSt3__122__compressed_pair_elemIP15AssignmentShapeLi0ELb0EEC2B8ue170006IDnvEEOT_, symObjAddr: 0x9900, symBinAddr: 0x10000CB9C, symSize: 0x1C }
  - { offsetInCU: 0x3C925, offset: 0x3C925, size: 0x8, addend: 0x0, symName: __ZNSt3__122__compressed_pair_elemINS_9allocatorI15AssignmentShapeEELi1ELb1EEC2B8ue170006ENS_18__default_init_tagE, symObjAddr: 0x991C, symBinAddr: 0x10000CBB8, symSize: 0x2C }
  - { offsetInCU: 0x3C95A, offset: 0x3C95A, size: 0x8, addend: 0x0, symName: __ZNSt3__19allocatorI15AssignmentShapeEC2B8ue170006Ev, symObjAddr: 0x9948, symBinAddr: 0x10000CBE4, symSize: 0x2C }
  - { offsetInCU: 0x3C984, offset: 0x3C984, size: 0x8, addend: 0x0, symName: __ZNSt3__116__non_trivial_ifILb1ENS_9allocatorI15AssignmentShapeEEEC2B8ue170006Ev, symObjAddr: 0x9974, symBinAddr: 0x10000CC10, symSize: 0x14 }
  - { offsetInCU: 0x3C9AE, offset: 0x3C9AE, size: 0x8, addend: 0x0, symName: __ZNSt3__16vectorI15AssignmentShapeNS_9allocatorIS1_EEED2B8ue170006Ev, symObjAddr: 0x9988, symBinAddr: 0x10000CC24, symSize: 0x44 }
  - { offsetInCU: 0x3C9D8, offset: 0x3C9D8, size: 0x8, addend: 0x0, symName: __ZNSt3__16vectorI15AssignmentShapeNS_9allocatorIS1_EEE16__destroy_vectorC1B8ue170006ERS4_, symObjAddr: 0x99CC, symBinAddr: 0x10000CC68, symSize: 0x34 }
  - { offsetInCU: 0x3CA11, offset: 0x3CA11, size: 0x8, addend: 0x0, symName: __ZNSt3__16vectorI15AssignmentShapeNS_9allocatorIS1_EEE16__destroy_vectorclB8ue170006Ev, symObjAddr: 0x9A00, symBinAddr: 0x10000CC9C, symSize: 0x90 }
  - { offsetInCU: 0x3CA37, offset: 0x3CA37, size: 0x8, addend: 0x0, symName: __ZNSt3__16vectorI15AssignmentShapeNS_9allocatorIS1_EEE16__destroy_vectorC2B8ue170006ERS4_, symObjAddr: 0x9A90, symBinAddr: 0x10000CD2C, symSize: 0x20 }
  - { offsetInCU: 0x3CA70, offset: 0x3CA70, size: 0x8, addend: 0x0, symName: __ZNSt3__16vectorI15AssignmentShapeNS_9allocatorIS1_EEE7__clearB8ue170006Ev, symObjAddr: 0x9AB0, symBinAddr: 0x10000CD4C, symSize: 0x28 }
  - { offsetInCU: 0x3CA96, offset: 0x3CA96, size: 0x8, addend: 0x0, symName: __ZNKSt3__16vectorI15AssignmentShapeNS_9allocatorIS1_EEE17__annotate_deleteB8ue170006Ev, symObjAddr: 0x9AD8, symBinAddr: 0x10000CD74, symSize: 0xD4 }
  - { offsetInCU: 0x3CABC, offset: 0x3CABC, size: 0x8, addend: 0x0, symName: __ZNSt3__116allocator_traitsINS_9allocatorI15AssignmentShapeEEE10deallocateB8ue170006ERS3_PS2_m, symObjAddr: 0x9BAC, symBinAddr: 0x10000CE48, symSize: 0x34 }
  - { offsetInCU: 0x3CAFE, offset: 0x3CAFE, size: 0x8, addend: 0x0, symName: __ZNSt3__16vectorI15AssignmentShapeNS_9allocatorIS1_EEE7__allocB8ue170006Ev, symObjAddr: 0x9BE0, symBinAddr: 0x10000CE7C, symSize: 0x28 }
  - { offsetInCU: 0x3CB24, offset: 0x3CB24, size: 0x8, addend: 0x0, symName: __ZNKSt3__16vectorI15AssignmentShapeNS_9allocatorIS1_EEE8capacityB8ue170006Ev, symObjAddr: 0x9C08, symBinAddr: 0x10000CEA4, symSize: 0x40 }
  - { offsetInCU: 0x3CB4A, offset: 0x3CB4A, size: 0x8, addend: 0x0, symName: __ZNSt3__16vectorI15AssignmentShapeNS_9allocatorIS1_EEE22__base_destruct_at_endB8ue170006EPS1_, symObjAddr: 0x9C48, symBinAddr: 0x10000CEE4, symSize: 0x8C }
  - { offsetInCU: 0x3CB8E, offset: 0x3CB8E, size: 0x8, addend: 0x0, symName: __ZNSt3__116allocator_traitsINS_9allocatorI15AssignmentShapeEEE7destroyB8ue170006IS2_vEEvRS3_PT_, symObjAddr: 0x9CD4, symBinAddr: 0x10000CF70, symSize: 0x2C }
  - { offsetInCU: 0x3CBCB, offset: 0x3CBCB, size: 0x8, addend: 0x0, symName: __ZNSt3__19allocatorI15AssignmentShapeE7destroyB8ue170006EPS1_, symObjAddr: 0x9D14, symBinAddr: 0x10000CFB0, symSize: 0x28 }
  - { offsetInCU: 0x3CC00, offset: 0x3CC00, size: 0x8, addend: 0x0, symName: __ZNKSt3__16vectorI15AssignmentShapeNS_9allocatorIS1_EEE31__annotate_contiguous_containerB8ue170006EPKvS6_S6_S6_, symObjAddr: 0x9D3C, symBinAddr: 0x10000CFD8, symSize: 0x20 }
  - { offsetInCU: 0x3CC56, offset: 0x3CC56, size: 0x8, addend: 0x0, symName: __ZNKSt3__16vectorI15AssignmentShapeNS_9allocatorIS1_EEE4dataB8ue170006Ev, symObjAddr: 0x9D5C, symBinAddr: 0x10000CFF8, symSize: 0x28 }
  - { offsetInCU: 0x3CC7C, offset: 0x3CC7C, size: 0x8, addend: 0x0, symName: __ZNKSt3__16vectorI15AssignmentShapeNS_9allocatorIS1_EEE4sizeB8ue170006Ev, symObjAddr: 0x9D84, symBinAddr: 0x10000D020, symSize: 0x28 }
  - { offsetInCU: 0x3CCA2, offset: 0x3CCA2, size: 0x8, addend: 0x0, symName: __ZNSt3__19allocatorI15AssignmentShapeE10deallocateB8ue170006EPS1_m, symObjAddr: 0x9DAC, symBinAddr: 0x10000D048, symSize: 0x44 }
  - { offsetInCU: 0x3CCE6, offset: 0x3CCE6, size: 0x8, addend: 0x0, symName: __ZNSt3__117__compressed_pairIP15AssignmentShapeNS_9allocatorIS1_EEE6secondB8ue170006Ev, symObjAddr: 0x9DF0, symBinAddr: 0x10000D08C, symSize: 0x24 }
  - { offsetInCU: 0x3CD0C, offset: 0x3CD0C, size: 0x8, addend: 0x0, symName: __ZNSt3__122__compressed_pair_elemINS_9allocatorI15AssignmentShapeEELi1ELb1EE5__getB8ue170006Ev, symObjAddr: 0x9E14, symBinAddr: 0x10000D0B0, symSize: 0x14 }
  - { offsetInCU: 0x3CD32, offset: 0x3CD32, size: 0x8, addend: 0x0, symName: __ZNKSt3__16vectorI15AssignmentShapeNS_9allocatorIS1_EEE9__end_capB8ue170006Ev, symObjAddr: 0x9E28, symBinAddr: 0x10000D0C4, symSize: 0x28 }
  - { offsetInCU: 0x3CD58, offset: 0x3CD58, size: 0x8, addend: 0x0, symName: __ZNKSt3__117__compressed_pairIP15AssignmentShapeNS_9allocatorIS1_EEE5firstB8ue170006Ev, symObjAddr: 0x9E50, symBinAddr: 0x10000D0EC, symSize: 0x24 }
  - { offsetInCU: 0x3CD7E, offset: 0x3CD7E, size: 0x8, addend: 0x0, symName: __ZNKSt3__122__compressed_pair_elemIP15AssignmentShapeLi0ELb0EE5__getB8ue170006Ev, symObjAddr: 0x9E74, symBinAddr: 0x10000D110, symSize: 0x14 }
  - { offsetInCU: 0x3CDA4, offset: 0x3CDA4, size: 0x8, addend: 0x0, symName: __ZNKSt3__113basic_filebufIcNS_11char_traitsIcEEE7is_openEv, symObjAddr: 0x9E88, symBinAddr: 0x10000D124, symSize: 0x24 }
  - { offsetInCU: 0x3CDCC, offset: 0x3CDCC, size: 0x8, addend: 0x0, symName: __ZNSt3__111char_traitsIcE6lengthB8ue170006EPKc, symObjAddr: 0xA098, symBinAddr: 0x10000D334, symSize: 0x34 }
  - { offsetInCU: 0x3CE11, offset: 0x3CE11, size: 0x8, addend: 0x0, symName: __ZNKSt3__113basic_ostreamIcNS_11char_traitsIcEEE6sentrycvbB8ue170006Ev, symObjAddr: 0xA0CC, symBinAddr: 0x10000D368, symSize: 0x1C }
  - { offsetInCU: 0x3CE37, offset: 0x3CE37, size: 0x8, addend: 0x0, symName: __ZNSt3__119ostreambuf_iteratorIcNS_11char_traitsIcEEEC1B8ue170006ERNS_13basic_ostreamIcS2_EE, symObjAddr: 0xA328, symBinAddr: 0x10000D5C4, symSize: 0x34 }
  - { offsetInCU: 0x3CE70, offset: 0x3CE70, size: 0x8, addend: 0x0, symName: __ZNKSt3__18ios_base5flagsB8ue170006Ev, symObjAddr: 0xA35C, symBinAddr: 0x10000D5F8, symSize: 0x18 }
  - { offsetInCU: 0x3CE98, offset: 0x3CE98, size: 0x8, addend: 0x0, symName: __ZNKSt3__19basic_iosIcNS_11char_traitsIcEEE4fillB8ue170006Ev, symObjAddr: 0xA374, symBinAddr: 0x10000D610, symSize: 0x64 }
  - { offsetInCU: 0x3CEC0, offset: 0x3CEC0, size: 0x8, addend: 0x0, symName: __ZNKSt3__119ostreambuf_iteratorIcNS_11char_traitsIcEEE6failedB8ue170006Ev, symObjAddr: 0xA3D8, symBinAddr: 0x10000D674, symSize: 0x24 }
  - { offsetInCU: 0x3CEE6, offset: 0x3CEE6, size: 0x8, addend: 0x0, symName: __ZNKSt3__18ios_base5widthB8ue170006Ev, symObjAddr: 0xA3FC, symBinAddr: 0x10000D698, symSize: 0x18 }
  - { offsetInCU: 0x3CF0E, offset: 0x3CF0E, size: 0x8, addend: 0x0, symName: __ZNSt3__115basic_streambufIcNS_11char_traitsIcEEE5sputnB8ue170006EPKcl, symObjAddr: 0xA414, symBinAddr: 0x10000D6B0, symSize: 0x3C }
  - { offsetInCU: 0x3CF52, offset: 0x3CF52, size: 0x8, addend: 0x0, symName: __ZNSt3__112basic_stringIcNS_11char_traitsIcEENS_9allocatorIcEEEC1B8ue170006Emc, symObjAddr: 0xA450, symBinAddr: 0x10000D6EC, symSize: 0x3C }
  - { offsetInCU: 0x3CF9A, offset: 0x3CF9A, size: 0x8, addend: 0x0, symName: __ZNSt3__112basic_stringIcNS_11char_traitsIcEENS_9allocatorIcEEE4dataB8ue170006Ev, symObjAddr: 0xA48C, symBinAddr: 0x10000D728, symSize: 0x28 }
  - { offsetInCU: 0x3CFC0, offset: 0x3CFC0, size: 0x8, addend: 0x0, symName: __ZNSt3__18ios_base5widthB8ue170006El, symObjAddr: 0xA4B4, symBinAddr: 0x10000D750, symSize: 0x2C }
  - { offsetInCU: 0x3D006, offset: 0x3D006, size: 0x8, addend: 0x0, symName: __ZNSt3__112basic_stringIcNS_11char_traitsIcEENS_9allocatorIcEEEC2B8ue170006Emc, symObjAddr: 0xA4E0, symBinAddr: 0x10000D77C, symSize: 0x4C }
  - { offsetInCU: 0x3D04E, offset: 0x3D04E, size: 0x8, addend: 0x0, symName: __ZNSt3__119ostreambuf_iteratorIcNS_11char_traitsIcEEEC2B8ue170006ERNS_13basic_ostreamIcS2_EE, symObjAddr: 0xA540, symBinAddr: 0x10000D7DC, symSize: 0x54 }
  - { offsetInCU: 0x3D087, offset: 0x3D087, size: 0x8, addend: 0x0, symName: __ZNKSt3__19basic_iosIcNS_11char_traitsIcEEE5widenB8ue170006Ec, symObjAddr: 0xA594, symBinAddr: 0x10000D830, symSize: 0x84 }
  - { offsetInCU: 0x3D0F0, offset: 0x3D0F0, size: 0x8, addend: 0x0, symName: __ZNKSt3__15ctypeIcE5widenB8ue170006Ec, symObjAddr: 0xA644, symBinAddr: 0x10000D8E0, symSize: 0x38 }
  - { offsetInCU: 0x3D125, offset: 0x3D125, size: 0x8, addend: 0x0, symName: __ZNSt3__19allocatorIcEC1B8ue170006Ev, symObjAddr: 0xA6A0, symBinAddr: 0x10000D93C, symSize: 0x2C }
  - { offsetInCU: 0x3D14F, offset: 0x3D14F, size: 0x8, addend: 0x0, symName: __ZNSt3__112basic_stringIcNS_11char_traitsIcEENS_9allocatorIcEEEC2B8ue170006ILi0EEEPKc, symObjAddr: 0xA88C, symBinAddr: 0x10000DB28, symSize: 0x58 }
  - { offsetInCU: 0x3D18E, offset: 0x3D18E, size: 0x8, addend: 0x0, symName: __ZNSt3__14__fs10filesystem4pathC2B8ue170006INS_12basic_stringIcNS_11char_traitsIcEENS_9allocatorIcEEEEvEERKT_NS2_6formatE, symObjAddr: 0xA8E4, symBinAddr: 0x10000DB80, symSize: 0x68 }
  - { offsetInCU: 0x3D1E3, offset: 0x3D1E3, size: 0x8, addend: 0x0, symName: __ZNSt3__14__fs10filesystem8_PathCVTIcE15__append_sourceB8ue170006INS_12basic_stringIcNS_11char_traitsIcEENS_9allocatorIcEEEEEEvRSA_RKT_, symObjAddr: 0xA94C, symBinAddr: 0x10000DBE8, symSize: 0x4C }
  - { offsetInCU: 0x3D21F, offset: 0x3D21F, size: 0x8, addend: 0x0, symName: __ZNSt3__14__fs10filesystem8_PathCVTIcE14__append_rangeB8ue170006IPKcEENS_9enable_ifIXsr31__has_forward_iterator_categoryIT_EE5valueEvE4typeERNS_12basic_stringIcNS_11char_traitsIcEENS_9allocatorIcEEEES8_S8_, symObjAddr: 0xA998, symBinAddr: 0x10000DC34, symSize: 0x34 }
  - { offsetInCU: 0x3D275, offset: 0x3D275, size: 0x8, addend: 0x0, symName: __ZNSt3__14__fs10filesystem20__is_pathable_stringINS_12basic_stringIcNS_11char_traitsIcEENS_9allocatorIcEEEEvE13__range_beginB8ue170006ERKS8_, symObjAddr: 0xA9CC, symBinAddr: 0x10000DC68, symSize: 0x24 }
  - { offsetInCU: 0x3D299, offset: 0x3D299, size: 0x8, addend: 0x0, symName: __ZNSt3__14__fs10filesystem20__is_pathable_stringINS_12basic_stringIcNS_11char_traitsIcEENS_9allocatorIcEEEEvE11__range_endB8ue170006ERKS8_, symObjAddr: 0xA9F0, symBinAddr: 0x10000DC8C, symSize: 0x3C }
  - { offsetInCU: 0x3D2BD, offset: 0x3D2BD, size: 0x8, addend: 0x0, symName: __ZNSt3__112basic_stringIcNS_11char_traitsIcEENS_9allocatorIcEEE6appendB8ue170006IPKcLi0EEERS5_T_SA_, symObjAddr: 0xAA2C, symBinAddr: 0x10000DCC8, symSize: 0x1E4 }
  - { offsetInCU: 0x3D372, offset: 0x3D372, size: 0x8, addend: 0x0, symName: __ZNKSt3__112basic_stringIcNS_11char_traitsIcEENS_9allocatorIcEEE8capacityB8ue170006Ev, symObjAddr: 0xAC10, symBinAddr: 0x10000DEAC, symSize: 0x54 }
  - { offsetInCU: 0x3D398, offset: 0x3D398, size: 0x8, addend: 0x0, symName: __ZNKSt3__112basic_stringIcNS_11char_traitsIcEENS_9allocatorIcEEE15__addr_in_rangeB8ue170006IcEEbRKT_, symObjAddr: 0xAC90, symBinAddr: 0x10000DF2C, symSize: 0x6C }
  - { offsetInCU: 0x3D3D6, offset: 0x3D3D6, size: 0x8, addend: 0x0, symName: __ZNSt3__112basic_stringIcNS_11char_traitsIcEENS_9allocatorIcEEE25__grow_by_without_replaceB8ue170006Emmmmmm, symObjAddr: 0xACFC, symBinAddr: 0x10000DF98, symSize: 0x74 }
  - { offsetInCU: 0x3D458, offset: 0x3D458, size: 0x8, addend: 0x0, symName: __ZNSt3__112basic_stringIcNS_11char_traitsIcEENS_9allocatorIcEEE10__set_sizeB8ue170006Em, symObjAddr: 0xAD70, symBinAddr: 0x10000E00C, symSize: 0x54 }
  - { offsetInCU: 0x3D48D, offset: 0x3D48D, size: 0x8, addend: 0x0, symName: __ZNSt3__112basic_stringIcNS_11char_traitsIcEENS_9allocatorIcEEE7__allocB8ue170006Ev, symObjAddr: 0xADC4, symBinAddr: 0x10000E060, symSize: 0x24 }
  - { offsetInCU: 0x3D4B3, offset: 0x3D4B3, size: 0x8, addend: 0x0, symName: __ZNSt3__112basic_stringIcNS_11char_traitsIcEENS_9allocatorIcEEEC1B8ue170006IPKcLi0EEET_S9_RKS4_, symObjAddr: 0xADE8, symBinAddr: 0x10000E084, symSize: 0x44 }
  - { offsetInCU: 0x3D519, offset: 0x3D519, size: 0x8, addend: 0x0, symName: __ZNKSt3__112basic_stringIcNS_11char_traitsIcEENS_9allocatorIcEEE14__get_long_capB8ue170006Ev, symObjAddr: 0xAE2C, symBinAddr: 0x10000E0C8, symSize: 0x30 }
  - { offsetInCU: 0x3D54A, offset: 0x3D54A, size: 0x8, addend: 0x0, symName: __ZNKSt3__16__lessIvvEclB8ue170006IPKcS4_EEbRKT_RKT0_, symObjAddr: 0xAEE4, symBinAddr: 0x10000E180, symSize: 0x34 }
  - { offsetInCU: 0x3D5A0, offset: 0x3D5A0, size: 0x8, addend: 0x0, symName: __ZNSt3__117__compressed_pairINS_12basic_stringIcNS_11char_traitsIcEENS_9allocatorIcEEE5__repES5_E6secondB8ue170006Ev, symObjAddr: 0xAF18, symBinAddr: 0x10000E1B4, symSize: 0x24 }
  - { offsetInCU: 0x3D5C6, offset: 0x3D5C6, size: 0x8, addend: 0x0, symName: __ZNSt3__122__compressed_pair_elemINS_9allocatorIcEELi1ELb1EE5__getB8ue170006Ev, symObjAddr: 0xAF3C, symBinAddr: 0x10000E1D8, symSize: 0x14 }
  - { offsetInCU: 0x3D5EC, offset: 0x3D5EC, size: 0x8, addend: 0x0, symName: __ZNSt3__112basic_stringIcNS_11char_traitsIcEENS_9allocatorIcEEEC2B8ue170006IPKcLi0EEET_S9_RKS4_, symObjAddr: 0xAF50, symBinAddr: 0x10000E1EC, symSize: 0x50 }
  - { offsetInCU: 0x3D652, offset: 0x3D652, size: 0x8, addend: 0x0, symName: __ZNSt3__112basic_stringIcNS_11char_traitsIcEENS_9allocatorIcEEE6__initIPKcLi0EEEvT_S9_, symObjAddr: 0xAFA0, symBinAddr: 0x10000E23C, symSize: 0x54 }
  - { offsetInCU: 0x3D6B6, offset: 0x3D6B6, size: 0x8, addend: 0x0, symName: __ZNSt3__112basic_stringIcNS_11char_traitsIcEENS_9allocatorIcEEE16__init_with_sizeB8ue170006IPKcS8_EEvT_T0_m, symObjAddr: 0xAFF4, symBinAddr: 0x10000E290, symSize: 0x144 }
  - { offsetInCU: 0x3D74A, offset: 0x3D74A, size: 0x8, addend: 0x0, symName: __ZNKSt3__112basic_stringIcNS_11char_traitsIcEENS_9allocatorIcEEE20__throw_length_errorB8ue170006Ev, symObjAddr: 0xB138, symBinAddr: 0x10000E3D4, symSize: 0x1C }
  - { offsetInCU: 0x3D770, offset: 0x3D770, size: 0x8, addend: 0x0, symName: __ZNSt3__112basic_stringIcNS_11char_traitsIcEENS_9allocatorIcEEE13__fits_in_ssoB8ue170006Em, symObjAddr: 0xB154, symBinAddr: 0x10000E3F0, symSize: 0x20 }
  - { offsetInCU: 0x3D794, offset: 0x3D794, size: 0x8, addend: 0x0, symName: __ZNSt3__112basic_stringIcNS_11char_traitsIcEENS_9allocatorIcEEE11__recommendB8ue170006Em, symObjAddr: 0xB1B4, symBinAddr: 0x10000E450, symSize: 0x84 }
  - { offsetInCU: 0x3D7C7, offset: 0x3D7C7, size: 0x8, addend: 0x0, symName: __ZNSt3__112basic_stringIcNS_11char_traitsIcEENS_9allocatorIcEEE16__begin_lifetimeB8ue170006EPcm, symObjAddr: 0xB238, symBinAddr: 0x10000E4D4, symSize: 0x14 }
  - { offsetInCU: 0x3D7FA, offset: 0x3D7FA, size: 0x8, addend: 0x0, symName: __ZNSt3__112basic_stringIcNS_11char_traitsIcEENS_9allocatorIcEEE18__set_long_pointerB8ue170006EPc, symObjAddr: 0xB24C, symBinAddr: 0x10000E4E8, symSize: 0x38 }
  - { offsetInCU: 0x3D82F, offset: 0x3D82F, size: 0x8, addend: 0x0, symName: __ZNSt3__112basic_stringIcNS_11char_traitsIcEENS_9allocatorIcEEE14__set_long_capB8ue170006Em, symObjAddr: 0xB284, symBinAddr: 0x10000E520, symSize: 0x70 }
  - { offsetInCU: 0x3D864, offset: 0x3D864, size: 0x8, addend: 0x0, symName: __ZNSt3__19allocatorIcE8allocateB8ue170006Em, symObjAddr: 0xB2F4, symBinAddr: 0x10000E590, symSize: 0x58 }
  - { offsetInCU: 0x3D899, offset: 0x3D899, size: 0x8, addend: 0x0, symName: __ZNSt3__112basic_stringIcNS_11char_traitsIcEENS_9allocatorIcEEE10__align_itB8ue170006ILm16EEEmm, symObjAddr: 0xB34C, symBinAddr: 0x10000E5E8, symSize: 0x1C }
  - { offsetInCU: 0x3D8C7, offset: 0x3D8C7, size: 0x8, addend: 0x0, symName: __ZNSt3__19allocatorIN2sf11CircleShapeEEC1B8ue170006Ev, symObjAddr: 0xB400, symBinAddr: 0x10000E69C, symSize: 0x2C }
  - { offsetInCU: 0x3D942, offset: 0x3D942, size: 0x8, addend: 0x0, symName: __ZNSt3__118__allocation_guardINS_9allocatorINS_20__shared_ptr_emplaceIN2sf11CircleShapeENS1_IS4_EEEEEEEC1B8ue170006IS5_EET_m, symObjAddr: 0xB42C, symBinAddr: 0x10000E6C8, symSize: 0x34 }
  - { offsetInCU: 0x3D993, offset: 0x3D993, size: 0x8, addend: 0x0, symName: __ZNKSt3__118__allocation_guardINS_9allocatorINS_20__shared_ptr_emplaceIN2sf11CircleShapeENS1_IS4_EEEEEEE5__getB8ue170006Ev, symObjAddr: 0xB460, symBinAddr: 0x10000E6FC, symSize: 0x18 }
  - { offsetInCU: 0x3D9B9, offset: 0x3D9B9, size: 0x8, addend: 0x0, symName: __ZNSt3__120__shared_ptr_emplaceIN2sf11CircleShapeENS_9allocatorIS2_EEEC1B8ue170006IJRKiEEES4_DpOT_, symObjAddr: 0xB478, symBinAddr: 0x10000E714, symSize: 0x34 }
  - { offsetInCU: 0x3DA0C, offset: 0x3DA0C, size: 0x8, addend: 0x0, symName: __ZNSt3__118__allocation_guardINS_9allocatorINS_20__shared_ptr_emplaceIN2sf11CircleShapeENS1_IS4_EEEEEEE13__release_ptrB8ue170006Ev, symObjAddr: 0xB4AC, symBinAddr: 0x10000E748, symSize: 0x24 }
  - { offsetInCU: 0x3DA41, offset: 0x3DA41, size: 0x8, addend: 0x0, symName: __ZNSt3__110shared_ptrIN2sf11CircleShapeEE27__create_with_control_blockB8ue170006IS2_NS_20__shared_ptr_emplaceIS2_NS_9allocatorIS2_EEEEEES3_PT_PT0_, symObjAddr: 0xB4D0, symBinAddr: 0x10000E76C, symSize: 0xA4 }
  - { offsetInCU: 0x3DA96, offset: 0x3DA96, size: 0x8, addend: 0x0, symName: __ZNSt3__120__shared_ptr_emplaceIN2sf11CircleShapeENS_9allocatorIS2_EEE10__get_elemB8ue170006Ev, symObjAddr: 0xB574, symBinAddr: 0x10000E810, symSize: 0x28 }
  - { offsetInCU: 0x3DABC, offset: 0x3DABC, size: 0x8, addend: 0x0, symName: __ZNSt3__118__allocation_guardINS_9allocatorINS_20__shared_ptr_emplaceIN2sf11CircleShapeENS1_IS4_EEEEEEED1B8ue170006Ev, symObjAddr: 0xB59C, symBinAddr: 0x10000E838, symSize: 0x2C }
  - { offsetInCU: 0x3DAE6, offset: 0x3DAE6, size: 0x8, addend: 0x0, symName: __ZNSt3__118__allocation_guardINS_9allocatorINS_20__shared_ptr_emplaceIN2sf11CircleShapeENS1_IS4_EEEEEEEC2B8ue170006IS5_EET_m, symObjAddr: 0xB5C8, symBinAddr: 0x10000E864, symSize: 0x50 }
  - { offsetInCU: 0x3DB37, offset: 0x3DB37, size: 0x8, addend: 0x0, symName: __ZNSt3__19allocatorINS_20__shared_ptr_emplaceIN2sf11CircleShapeENS0_IS3_EEEEEC1B8ue170006IS3_EERKNS0_IT_EE, symObjAddr: 0xB618, symBinAddr: 0x10000E8B4, symSize: 0x34 }
  - { offsetInCU: 0x3DB75, offset: 0x3DB75, size: 0x8, addend: 0x0, symName: __ZNSt3__116allocator_traitsINS_9allocatorINS_20__shared_ptr_emplaceIN2sf11CircleShapeENS1_IS4_EEEEEEE8allocateB8ue170006ERS7_m, symObjAddr: 0xB64C, symBinAddr: 0x10000E8E8, symSize: 0x2C }
  - { offsetInCU: 0x3DBA8, offset: 0x3DBA8, size: 0x8, addend: 0x0, symName: __ZNSt3__19allocatorINS_20__shared_ptr_emplaceIN2sf11CircleShapeENS0_IS3_EEEEEC2B8ue170006IS3_EERKNS0_IT_EE, symObjAddr: 0xB678, symBinAddr: 0x10000E914, symSize: 0x30 }
  - { offsetInCU: 0x3DBE6, offset: 0x3DBE6, size: 0x8, addend: 0x0, symName: __ZNSt3__116__non_trivial_ifILb1ENS_9allocatorINS_20__shared_ptr_emplaceIN2sf11CircleShapeENS1_IS4_EEEEEEEC2B8ue170006Ev, symObjAddr: 0xB6A8, symBinAddr: 0x10000E944, symSize: 0x14 }
  - { offsetInCU: 0x3DC10, offset: 0x3DC10, size: 0x8, addend: 0x0, symName: __ZNSt3__19allocatorINS_20__shared_ptr_emplaceIN2sf11CircleShapeENS0_IS3_EEEEE8allocateB8ue170006Em, symObjAddr: 0xB6BC, symBinAddr: 0x10000E958, symSize: 0x5C }
  - { offsetInCU: 0x3DC50, offset: 0x3DC50, size: 0x8, addend: 0x0, symName: __ZNSt3__116allocator_traitsINS_9allocatorINS_20__shared_ptr_emplaceIN2sf11CircleShapeENS1_IS4_EEEEEEE8max_sizeB8ue170006IS7_vEEmRKS7_, symObjAddr: 0xB718, symBinAddr: 0x10000E9B4, symSize: 0x24 }
  - { offsetInCU: 0x3DC7E, offset: 0x3DC7E, size: 0x8, addend: 0x0, symName: __ZNKSt3__19allocatorINS_20__shared_ptr_emplaceIN2sf11CircleShapeENS0_IS3_EEEEE8max_sizeB8ue170006Ev, symObjAddr: 0xB73C, symBinAddr: 0x10000E9D8, symSize: 0x20 }
  - { offsetInCU: 0x3DCA4, offset: 0x3DCA4, size: 0x8, addend: 0x0, symName: __ZNSt3__120__shared_ptr_emplaceIN2sf11CircleShapeENS_9allocatorIS2_EEEC2B8ue170006IJRKiEEES4_DpOT_, symObjAddr: 0xB75C, symBinAddr: 0x10000E9F8, symSize: 0xC4 }
  - { offsetInCU: 0x3DCF7, offset: 0x3DCF7, size: 0x8, addend: 0x0, symName: __ZNSt3__119__shared_weak_countC2B8ue170006El, symObjAddr: 0xB820, symBinAddr: 0x10000EABC, symSize: 0x54 }
  - { offsetInCU: 0x3DD30, offset: 0x3DD30, size: 0x8, addend: 0x0, symName: __ZNSt3__120__shared_ptr_emplaceIN2sf11CircleShapeENS_9allocatorIS2_EEE8_StorageC1B8ue170006EOS4_, symObjAddr: 0xB874, symBinAddr: 0x10000EB10, symSize: 0x34 }
  - { offsetInCU: 0x3DD69, offset: 0x3DD69, size: 0x8, addend: 0x0, symName: __ZNSt3__120__shared_ptr_emplaceIN2sf11CircleShapeENS_9allocatorIS2_EEE8_StorageD1B8ue170006Ev, symObjAddr: 0xB8A8, symBinAddr: 0x10000EB44, symSize: 0x2C }
  - { offsetInCU: 0x3DD93, offset: 0x3DD93, size: 0x8, addend: 0x0, symName: __ZNSt3__120__shared_ptr_emplaceIN2sf11CircleShapeENS_9allocatorIS2_EEED1Ev, symObjAddr: 0xB8D4, symBinAddr: 0x10000EB70, symSize: 0x2C }
  - { offsetInCU: 0x3DDC0, offset: 0x3DDC0, size: 0x8, addend: 0x0, symName: __ZNSt3__120__shared_ptr_emplaceIN2sf11CircleShapeENS_9allocatorIS2_EEED0Ev, symObjAddr: 0xB900, symBinAddr: 0x10000EB9C, symSize: 0x30 }
  - { offsetInCU: 0x3DDED, offset: 0x3DDED, size: 0x8, addend: 0x0, symName: __ZNSt3__120__shared_ptr_emplaceIN2sf11CircleShapeENS_9allocatorIS2_EEE16__on_zero_sharedEv, symObjAddr: 0xB930, symBinAddr: 0x10000EBCC, symSize: 0x30 }
  - { offsetInCU: 0x3DE13, offset: 0x3DE13, size: 0x8, addend: 0x0, symName: __ZNSt3__120__shared_ptr_emplaceIN2sf11CircleShapeENS_9allocatorIS2_EEE21__on_zero_shared_weakEv, symObjAddr: 0xB960, symBinAddr: 0x10000EBFC, symSize: 0x5C }
  - { offsetInCU: 0x3DE54, offset: 0x3DE54, size: 0x8, addend: 0x0, symName: __ZNSt3__114__shared_countC2B8ue170006El, symObjAddr: 0xB9BC, symBinAddr: 0x10000EC58, symSize: 0x30 }
  - { offsetInCU: 0x3DE8D, offset: 0x3DE8D, size: 0x8, addend: 0x0, symName: __ZNSt3__120__shared_ptr_emplaceIN2sf11CircleShapeENS_9allocatorIS2_EEE8_StorageC2B8ue170006EOS4_, symObjAddr: 0xB9EC, symBinAddr: 0x10000EC88, symSize: 0x30 }
  - { offsetInCU: 0x3DEC6, offset: 0x3DEC6, size: 0x8, addend: 0x0, symName: __ZNSt3__120__shared_ptr_emplaceIN2sf11CircleShapeENS_9allocatorIS2_EEE8_Storage11__get_allocB8ue170006Ev, symObjAddr: 0xBA1C, symBinAddr: 0x10000ECB8, symSize: 0x3C }
  - { offsetInCU: 0x3DF19, offset: 0x3DF19, size: 0x8, addend: 0x0, symName: __ZNSt3__117__compressed_pairINS_9allocatorIN2sf11CircleShapeEEES3_E16__get_first_baseB8ue170006EPS5_, symObjAddr: 0xBA58, symBinAddr: 0x10000ECF4, symSize: 0x14 }
  - { offsetInCU: 0x3DF3D, offset: 0x3DF3D, size: 0x8, addend: 0x0, symName: __ZNSt3__120__shared_ptr_emplaceIN2sf11CircleShapeENS_9allocatorIS2_EEE8_StorageD2B8ue170006Ev, symObjAddr: 0xBA6C, symBinAddr: 0x10000ED08, symSize: 0x2C }
  - { offsetInCU: 0x3DF67, offset: 0x3DF67, size: 0x8, addend: 0x0, symName: __ZNSt3__120__shared_ptr_emplaceIN2sf11CircleShapeENS_9allocatorIS2_EEED2Ev, symObjAddr: 0xBA98, symBinAddr: 0x10000ED34, symSize: 0x48 }
  - { offsetInCU: 0x3DF94, offset: 0x3DF94, size: 0x8, addend: 0x0, symName: __ZNSt3__120__shared_ptr_emplaceIN2sf11CircleShapeENS_9allocatorIS2_EEE11__get_allocB8ue170006Ev, symObjAddr: 0xBAE0, symBinAddr: 0x10000ED7C, symSize: 0x28 }
  - { offsetInCU: 0x3DFBA, offset: 0x3DFBA, size: 0x8, addend: 0x0, symName: __ZNSt3__116allocator_traitsINS_9allocatorINS_20__shared_ptr_emplaceIN2sf11CircleShapeENS1_IS4_EEEEEEE10deallocateB8ue170006ERS7_PS6_m, symObjAddr: 0xBB08, symBinAddr: 0x10000EDA4, symSize: 0x34 }
  - { offsetInCU: 0x3DFFC, offset: 0x3DFFC, size: 0x8, addend: 0x0, symName: __ZNSt3__114pointer_traitsIPNS_20__shared_ptr_emplaceIN2sf11CircleShapeENS_9allocatorIS3_EEEEE10pointer_toB8ue170006ERS6_, symObjAddr: 0xBB3C, symBinAddr: 0x10000EDD8, symSize: 0x14 }
  - { offsetInCU: 0x3E020, offset: 0x3E020, size: 0x8, addend: 0x0, symName: __ZNSt3__19allocatorINS_20__shared_ptr_emplaceIN2sf11CircleShapeENS0_IS3_EEEEE10deallocateB8ue170006EPS5_m, symObjAddr: 0xBB50, symBinAddr: 0x10000EDEC, symSize: 0x44 }
  - { offsetInCU: 0x3E064, offset: 0x3E064, size: 0x8, addend: 0x0, symName: __ZNSt3__110shared_ptrIN2sf11CircleShapeEEC1B8ue170006Ev, symObjAddr: 0xBB94, symBinAddr: 0x10000EE30, symSize: 0x2C }
  - { offsetInCU: 0x3E08E, offset: 0x3E08E, size: 0x8, addend: 0x0, symName: __ZNSt3__110shared_ptrIN2sf11CircleShapeEE18__enable_weak_thisB8ue170006Ez, symObjAddr: 0xBBC0, symBinAddr: 0x10000EE5C, symSize: 0x10 }
  - { offsetInCU: 0x3E0B5, offset: 0x3E0B5, size: 0x8, addend: 0x0, symName: __ZNSt3__110shared_ptrIN2sf11CircleShapeEEC2B8ue170006Ev, symObjAddr: 0xBBD0, symBinAddr: 0x10000EE6C, symSize: 0x1C }
  - { offsetInCU: 0x3E0DF, offset: 0x3E0DF, size: 0x8, addend: 0x0, symName: __ZNSt3__120__shared_ptr_emplaceIN2sf11CircleShapeENS_9allocatorIS2_EEE8_Storage10__get_elemB8ue170006Ev, symObjAddr: 0xBBEC, symBinAddr: 0x10000EE88, symSize: 0x3C }
  - { offsetInCU: 0x3E132, offset: 0x3E132, size: 0x8, addend: 0x0, symName: __ZNSt3__117__compressed_pairINS_9allocatorIN2sf11CircleShapeEEES3_E17__get_second_baseB8ue170006EPS5_, symObjAddr: 0xBC28, symBinAddr: 0x10000EEC4, symSize: 0x14 }
  - { offsetInCU: 0x3E156, offset: 0x3E156, size: 0x8, addend: 0x0, symName: __ZNSt3__118__allocation_guardINS_9allocatorINS_20__shared_ptr_emplaceIN2sf11CircleShapeENS1_IS4_EEEEEEED2B8ue170006Ev, symObjAddr: 0xBC3C, symBinAddr: 0x10000EED8, symSize: 0x2C }
  - { offsetInCU: 0x3E180, offset: 0x3E180, size: 0x8, addend: 0x0, symName: __ZNSt3__118__allocation_guardINS_9allocatorINS_20__shared_ptr_emplaceIN2sf11CircleShapeENS1_IS4_EEEEEEE9__destroyB8ue170006Ev, symObjAddr: 0xBC68, symBinAddr: 0x10000EF04, symSize: 0x4C }
  - { offsetInCU: 0x3E1A6, offset: 0x3E1A6, size: 0x8, addend: 0x0, symName: __ZNSt3__19allocatorIN2sf11CircleShapeEEC2B8ue170006Ev, symObjAddr: 0xBCB4, symBinAddr: 0x10000EF50, symSize: 0x2C }
  - { offsetInCU: 0x3E1D0, offset: 0x3E1D0, size: 0x8, addend: 0x0, symName: __ZNSt3__116__non_trivial_ifILb1ENS_9allocatorIN2sf11CircleShapeEEEEC2B8ue170006Ev, symObjAddr: 0xBCE0, symBinAddr: 0x10000EF7C, symSize: 0x14 }
  - { offsetInCU: 0x3E1FA, offset: 0x3E1FA, size: 0x8, addend: 0x0, symName: __ZNSt3__110shared_ptrIN2sf11CircleShapeEED2B8ue170006Ev, symObjAddr: 0xBCF4, symBinAddr: 0x10000EF90, symSize: 0x54 }
  - { offsetInCU: 0x3E224, offset: 0x3E224, size: 0x8, addend: 0x0, symName: __ZNSt3__110shared_ptrIN2sf5ShapeEEC2B8ue170006INS1_11CircleShapeEvEEONS0_IT_EE, symObjAddr: 0xBD48, symBinAddr: 0x10000EFE4, symSize: 0x40 }
  - { offsetInCU: 0x3E267, offset: 0x3E267, size: 0x8, addend: 0x0, symName: __ZNSt3__19allocatorIN2sf4TextEEC1B8ue170006Ev, symObjAddr: 0xBE30, symBinAddr: 0x10000F0CC, symSize: 0x2C }
  - { offsetInCU: 0x3E2E2, offset: 0x3E2E2, size: 0x8, addend: 0x0, symName: __ZNSt3__118__allocation_guardINS_9allocatorINS_20__shared_ptr_emplaceIN2sf4TextENS1_IS4_EEEEEEEC1B8ue170006IS5_EET_m, symObjAddr: 0xBE5C, symBinAddr: 0x10000F0F8, symSize: 0x34 }
  - { offsetInCU: 0x3E333, offset: 0x3E333, size: 0x8, addend: 0x0, symName: __ZNKSt3__118__allocation_guardINS_9allocatorINS_20__shared_ptr_emplaceIN2sf4TextENS1_IS4_EEEEEEE5__getB8ue170006Ev, symObjAddr: 0xBE90, symBinAddr: 0x10000F12C, symSize: 0x18 }
  - { offsetInCU: 0x3E35F, offset: 0x3E35F, size: 0x8, addend: 0x0, symName: __ZNSt3__120__shared_ptr_emplaceIN2sf4TextENS_9allocatorIS2_EEEC1B8ue170006IJRNS1_4FontERKNS_12basic_stringIcNS_11char_traitsIcEENS3_IcEEEEiEEES4_DpOT_, symObjAddr: 0xBEA8, symBinAddr: 0x10000F144, symSize: 0x44 }
  - { offsetInCU: 0x3E3DA, offset: 0x3E3DA, size: 0x8, addend: 0x0, symName: __ZNSt3__118__allocation_guardINS_9allocatorINS_20__shared_ptr_emplaceIN2sf4TextENS1_IS4_EEEEEEE13__release_ptrB8ue170006Ev, symObjAddr: 0xBEEC, symBinAddr: 0x10000F188, symSize: 0x24 }
  - { offsetInCU: 0x3E40F, offset: 0x3E40F, size: 0x8, addend: 0x0, symName: __ZNSt3__110shared_ptrIN2sf4TextEE27__create_with_control_blockB8ue170006IS2_NS_20__shared_ptr_emplaceIS2_NS_9allocatorIS2_EEEEEES3_PT_PT0_, symObjAddr: 0xBF10, symBinAddr: 0x10000F1AC, symSize: 0xA4 }
  - { offsetInCU: 0x3E464, offset: 0x3E464, size: 0x8, addend: 0x0, symName: __ZNSt3__120__shared_ptr_emplaceIN2sf4TextENS_9allocatorIS2_EEE10__get_elemB8ue170006Ev, symObjAddr: 0xBFB4, symBinAddr: 0x10000F250, symSize: 0x28 }
  - { offsetInCU: 0x3E48A, offset: 0x3E48A, size: 0x8, addend: 0x0, symName: __ZNSt3__118__allocation_guardINS_9allocatorINS_20__shared_ptr_emplaceIN2sf4TextENS1_IS4_EEEEEEED1B8ue170006Ev, symObjAddr: 0xBFDC, symBinAddr: 0x10000F278, symSize: 0x2C }
  - { offsetInCU: 0x3E4B4, offset: 0x3E4B4, size: 0x8, addend: 0x0, symName: __ZNSt3__118__allocation_guardINS_9allocatorINS_20__shared_ptr_emplaceIN2sf4TextENS1_IS4_EEEEEEEC2B8ue170006IS5_EET_m, symObjAddr: 0xC008, symBinAddr: 0x10000F2A4, symSize: 0x50 }
  - { offsetInCU: 0x3E505, offset: 0x3E505, size: 0x8, addend: 0x0, symName: __ZNSt3__19allocatorINS_20__shared_ptr_emplaceIN2sf4TextENS0_IS3_EEEEEC1B8ue170006IS3_EERKNS0_IT_EE, symObjAddr: 0xC058, symBinAddr: 0x10000F2F4, symSize: 0x34 }
  - { offsetInCU: 0x3E543, offset: 0x3E543, size: 0x8, addend: 0x0, symName: __ZNSt3__116allocator_traitsINS_9allocatorINS_20__shared_ptr_emplaceIN2sf4TextENS1_IS4_EEEEEEE8allocateB8ue170006ERS7_m, symObjAddr: 0xC08C, symBinAddr: 0x10000F328, symSize: 0x2C }
  - { offsetInCU: 0x3E576, offset: 0x3E576, size: 0x8, addend: 0x0, symName: __ZNSt3__19allocatorINS_20__shared_ptr_emplaceIN2sf4TextENS0_IS3_EEEEEC2B8ue170006IS3_EERKNS0_IT_EE, symObjAddr: 0xC0B8, symBinAddr: 0x10000F354, symSize: 0x30 }
  - { offsetInCU: 0x3E5B4, offset: 0x3E5B4, size: 0x8, addend: 0x0, symName: __ZNSt3__116__non_trivial_ifILb1ENS_9allocatorINS_20__shared_ptr_emplaceIN2sf4TextENS1_IS4_EEEEEEEC2B8ue170006Ev, symObjAddr: 0xC0E8, symBinAddr: 0x10000F384, symSize: 0x14 }
  - { offsetInCU: 0x3E5DE, offset: 0x3E5DE, size: 0x8, addend: 0x0, symName: __ZNSt3__19allocatorINS_20__shared_ptr_emplaceIN2sf4TextENS0_IS3_EEEEE8allocateB8ue170006Em, symObjAddr: 0xC0FC, symBinAddr: 0x10000F398, symSize: 0x5C }
  - { offsetInCU: 0x3E61E, offset: 0x3E61E, size: 0x8, addend: 0x0, symName: __ZNSt3__116allocator_traitsINS_9allocatorINS_20__shared_ptr_emplaceIN2sf4TextENS1_IS4_EEEEEEE8max_sizeB8ue170006IS7_vEEmRKS7_, symObjAddr: 0xC158, symBinAddr: 0x10000F3F4, symSize: 0x24 }
  - { offsetInCU: 0x3E64C, offset: 0x3E64C, size: 0x8, addend: 0x0, symName: __ZNKSt3__19allocatorINS_20__shared_ptr_emplaceIN2sf4TextENS0_IS3_EEEEE8max_sizeB8ue170006Ev, symObjAddr: 0xC17C, symBinAddr: 0x10000F418, symSize: 0x20 }
  - { offsetInCU: 0x3E672, offset: 0x3E672, size: 0x8, addend: 0x0, symName: __ZNSt3__120__shared_ptr_emplaceIN2sf4TextENS_9allocatorIS2_EEEC2B8ue170006IJRNS1_4FontERKNS_12basic_stringIcNS_11char_traitsIcEENS3_IcEEEEiEEES4_DpOT_, symObjAddr: 0xC19C, symBinAddr: 0x10000F438, symSize: 0x134 }
  - { offsetInCU: 0x3E6ED, offset: 0x3E6ED, size: 0x8, addend: 0x0, symName: __ZNSt3__120__shared_ptr_emplaceIN2sf4TextENS_9allocatorIS2_EEE8_StorageC1B8ue170006EOS4_, symObjAddr: 0xC2D0, symBinAddr: 0x10000F56C, symSize: 0x34 }
  - { offsetInCU: 0x3E726, offset: 0x3E726, size: 0x8, addend: 0x0, symName: __ZNSt3__120__shared_ptr_emplaceIN2sf4TextENS_9allocatorIS2_EEE8_StorageD1B8ue170006Ev, symObjAddr: 0xC304, symBinAddr: 0x10000F5A0, symSize: 0x2C }
  - { offsetInCU: 0x3E750, offset: 0x3E750, size: 0x8, addend: 0x0, symName: __ZNSt3__120__shared_ptr_emplaceIN2sf4TextENS_9allocatorIS2_EEED1Ev, symObjAddr: 0xC330, symBinAddr: 0x10000F5CC, symSize: 0x2C }
  - { offsetInCU: 0x3E77D, offset: 0x3E77D, size: 0x8, addend: 0x0, symName: __ZNSt3__120__shared_ptr_emplaceIN2sf4TextENS_9allocatorIS2_EEED0Ev, symObjAddr: 0xC35C, symBinAddr: 0x10000F5F8, symSize: 0x30 }
  - { offsetInCU: 0x3E7AA, offset: 0x3E7AA, size: 0x8, addend: 0x0, symName: __ZNSt3__120__shared_ptr_emplaceIN2sf4TextENS_9allocatorIS2_EEE16__on_zero_sharedEv, symObjAddr: 0xC38C, symBinAddr: 0x10000F628, symSize: 0x30 }
  - { offsetInCU: 0x3E7D0, offset: 0x3E7D0, size: 0x8, addend: 0x0, symName: __ZNSt3__120__shared_ptr_emplaceIN2sf4TextENS_9allocatorIS2_EEE21__on_zero_shared_weakEv, symObjAddr: 0xC3BC, symBinAddr: 0x10000F658, symSize: 0x5C }
  - { offsetInCU: 0x3E811, offset: 0x3E811, size: 0x8, addend: 0x0, symName: __ZNSt3__120__shared_ptr_emplaceIN2sf4TextENS_9allocatorIS2_EEE8_StorageC2B8ue170006EOS4_, symObjAddr: 0xC418, symBinAddr: 0x10000F6B4, symSize: 0x30 }
  - { offsetInCU: 0x3E84A, offset: 0x3E84A, size: 0x8, addend: 0x0, symName: __ZNSt3__120__shared_ptr_emplaceIN2sf4TextENS_9allocatorIS2_EEE8_Storage11__get_allocB8ue170006Ev, symObjAddr: 0xC448, symBinAddr: 0x10000F6E4, symSize: 0x3C }
  - { offsetInCU: 0x3E89D, offset: 0x3E89D, size: 0x8, addend: 0x0, symName: __ZNSt3__117__compressed_pairINS_9allocatorIN2sf4TextEEES3_E16__get_first_baseB8ue170006EPS5_, symObjAddr: 0xC484, symBinAddr: 0x10000F720, symSize: 0x14 }
  - { offsetInCU: 0x3E8C1, offset: 0x3E8C1, size: 0x8, addend: 0x0, symName: __ZNSt3__120__shared_ptr_emplaceIN2sf4TextENS_9allocatorIS2_EEE8_StorageD2B8ue170006Ev, symObjAddr: 0xC498, symBinAddr: 0x10000F734, symSize: 0x2C }
  - { offsetInCU: 0x3E8EB, offset: 0x3E8EB, size: 0x8, addend: 0x0, symName: __ZNSt3__120__shared_ptr_emplaceIN2sf4TextENS_9allocatorIS2_EEED2Ev, symObjAddr: 0xC4C4, symBinAddr: 0x10000F760, symSize: 0x48 }
  - { offsetInCU: 0x3E918, offset: 0x3E918, size: 0x8, addend: 0x0, symName: __ZNSt3__120__shared_ptr_emplaceIN2sf4TextENS_9allocatorIS2_EEE11__get_allocB8ue170006Ev, symObjAddr: 0xC50C, symBinAddr: 0x10000F7A8, symSize: 0x28 }
  - { offsetInCU: 0x3E93E, offset: 0x3E93E, size: 0x8, addend: 0x0, symName: __ZNSt3__116allocator_traitsINS_9allocatorINS_20__shared_ptr_emplaceIN2sf4TextENS1_IS4_EEEEEEE10deallocateB8ue170006ERS7_PS6_m, symObjAddr: 0xC534, symBinAddr: 0x10000F7D0, symSize: 0x34 }
  - { offsetInCU: 0x3E980, offset: 0x3E980, size: 0x8, addend: 0x0, symName: __ZNSt3__114pointer_traitsIPNS_20__shared_ptr_emplaceIN2sf4TextENS_9allocatorIS3_EEEEE10pointer_toB8ue170006ERS6_, symObjAddr: 0xC568, symBinAddr: 0x10000F804, symSize: 0x14 }
  - { offsetInCU: 0x3E9A4, offset: 0x3E9A4, size: 0x8, addend: 0x0, symName: __ZNSt3__19allocatorINS_20__shared_ptr_emplaceIN2sf4TextENS0_IS3_EEEEE10deallocateB8ue170006EPS5_m, symObjAddr: 0xC57C, symBinAddr: 0x10000F818, symSize: 0x44 }
  - { offsetInCU: 0x3E9E8, offset: 0x3E9E8, size: 0x8, addend: 0x0, symName: __ZNSt3__110shared_ptrIN2sf4TextEE18__enable_weak_thisB8ue170006Ez, symObjAddr: 0xC5C0, symBinAddr: 0x10000F85C, symSize: 0x10 }
  - { offsetInCU: 0x3EA0F, offset: 0x3EA0F, size: 0x8, addend: 0x0, symName: __ZNSt3__120__shared_ptr_emplaceIN2sf4TextENS_9allocatorIS2_EEE8_Storage10__get_elemB8ue170006Ev, symObjAddr: 0xC5D0, symBinAddr: 0x10000F86C, symSize: 0x3C }
  - { offsetInCU: 0x3EA62, offset: 0x3EA62, size: 0x8, addend: 0x0, symName: __ZNSt3__117__compressed_pairINS_9allocatorIN2sf4TextEEES3_E17__get_second_baseB8ue170006EPS5_, symObjAddr: 0xC60C, symBinAddr: 0x10000F8A8, symSize: 0x14 }
  - { offsetInCU: 0x3EA86, offset: 0x3EA86, size: 0x8, addend: 0x0, symName: __ZNSt3__118__allocation_guardINS_9allocatorINS_20__shared_ptr_emplaceIN2sf4TextENS1_IS4_EEEEEEED2B8ue170006Ev, symObjAddr: 0xC620, symBinAddr: 0x10000F8BC, symSize: 0x2C }
  - { offsetInCU: 0x3EAB0, offset: 0x3EAB0, size: 0x8, addend: 0x0, symName: __ZNSt3__118__allocation_guardINS_9allocatorINS_20__shared_ptr_emplaceIN2sf4TextENS1_IS4_EEEEEEE9__destroyB8ue170006Ev, symObjAddr: 0xC64C, symBinAddr: 0x10000F8E8, symSize: 0x4C }
  - { offsetInCU: 0x3EAD6, offset: 0x3EAD6, size: 0x8, addend: 0x0, symName: __ZNSt3__19allocatorIN2sf4TextEEC2B8ue170006Ev, symObjAddr: 0xC698, symBinAddr: 0x10000F934, symSize: 0x2C }
  - { offsetInCU: 0x3EB00, offset: 0x3EB00, size: 0x8, addend: 0x0, symName: __ZNSt3__116__non_trivial_ifILb1ENS_9allocatorIN2sf4TextEEEEC2B8ue170006Ev, symObjAddr: 0xC6C4, symBinAddr: 0x10000F960, symSize: 0x14 }
  - { offsetInCU: 0x3EB2A, offset: 0x3EB2A, size: 0x8, addend: 0x0, symName: __ZNSt3__110shared_ptrIN2sf5ShapeEEC2B8ue170006ERKS3_, symObjAddr: 0xC6D8, symBinAddr: 0x10000F974, symSize: 0x70 }
  - { offsetInCU: 0x3EB63, offset: 0x3EB63, size: 0x8, addend: 0x0, symName: __ZNSt3__119__shared_weak_count12__add_sharedB8ue170006Ev, symObjAddr: 0xC748, symBinAddr: 0x10000F9E4, symSize: 0x24 }
  - { offsetInCU: 0x3EB89, offset: 0x3EB89, size: 0x8, addend: 0x0, symName: __ZNSt3__114__shared_count12__add_sharedB8ue170006Ev, symObjAddr: 0xC76C, symBinAddr: 0x10000FA08, symSize: 0x28 }
  - { offsetInCU: 0x3EBAF, offset: 0x3EBAF, size: 0x8, addend: 0x0, symName: __ZNSt3__110shared_ptrIN2sf4TextEEC2B8ue170006ERKS3_, symObjAddr: 0xC7C4, symBinAddr: 0x10000FA60, symSize: 0x70 }
  - { offsetInCU: 0x3EBE8, offset: 0x3EBE8, size: 0x8, addend: 0x0, symName: __ZNSt3__16vectorI15AssignmentShapeNS_9allocatorIS1_EEE9__end_capB8ue170006Ev, symObjAddr: 0xC834, symBinAddr: 0x10000FAD0, symSize: 0x28 }
  - { offsetInCU: 0x3EC14, offset: 0x3EC14, size: 0x8, addend: 0x0, symName: __ZNSt3__16vectorI15AssignmentShapeNS_9allocatorIS1_EEE22__construct_one_at_endB8ue170006IJS1_EEEvDpOT_, symObjAddr: 0xC85C, symBinAddr: 0x10000FAF8, symSize: 0x90 }
  - { offsetInCU: 0x3EC63, offset: 0x3EC63, size: 0x8, addend: 0x0, symName: __ZNSt3__16vectorI15AssignmentShapeNS_9allocatorIS1_EEE21__push_back_slow_pathIS1_EEvOT_, symObjAddr: 0xC8EC, symBinAddr: 0x10000FB88, symSize: 0xD8 }
  - { offsetInCU: 0x3ECC1, offset: 0x3ECC1, size: 0x8, addend: 0x0, symName: __ZNSt3__117__compressed_pairIP15AssignmentShapeNS_9allocatorIS1_EEE5firstB8ue170006Ev, symObjAddr: 0xC9C4, symBinAddr: 0x10000FC60, symSize: 0x24 }
  - { offsetInCU: 0x3ECE7, offset: 0x3ECE7, size: 0x8, addend: 0x0, symName: __ZNSt3__122__compressed_pair_elemIP15AssignmentShapeLi0ELb0EE5__getB8ue170006Ev, symObjAddr: 0xC9E8, symBinAddr: 0x10000FC84, symSize: 0x14 }
  - { offsetInCU: 0x3ED28, offset: 0x3ED28, size: 0x8, addend: 0x0, symName: __ZNSt3__16vectorI15AssignmentShapeNS_9allocatorIS1_EEE21_ConstructTransactionC1B8ue170006ERS4_m, symObjAddr: 0xC9FC, symBinAddr: 0x10000FC98, symSize: 0x3C }
  - { offsetInCU: 0x3ED70, offset: 0x3ED70, size: 0x8, addend: 0x0, symName: __ZNSt3__116allocator_traitsINS_9allocatorI15AssignmentShapeEEE9constructB8ue170006IS2_JS2_EvEEvRS3_PT_DpOT0_, symObjAddr: 0xCA38, symBinAddr: 0x10000FCD4, symSize: 0x34 }
  - { offsetInCU: 0x3EDC7, offset: 0x3EDC7, size: 0x8, addend: 0x0, symName: __ZNSt3__16vectorI15AssignmentShapeNS_9allocatorIS1_EEE21_ConstructTransactionD1B8ue170006Ev, symObjAddr: 0xCA6C, symBinAddr: 0x10000FD08, symSize: 0x2C }
  - { offsetInCU: 0x3EDF1, offset: 0x3EDF1, size: 0x8, addend: 0x0, symName: __ZNSt3__16vectorI15AssignmentShapeNS_9allocatorIS1_EEE21_ConstructTransactionC2B8ue170006ERS4_m, symObjAddr: 0xCA98, symBinAddr: 0x10000FD34, symSize: 0x4C }
  - { offsetInCU: 0x3EE39, offset: 0x3EE39, size: 0x8, addend: 0x0, symName: __ZNSt3__19allocatorI15AssignmentShapeE9constructB8ue170006IS1_JS1_EEEvPT_DpOT0_, symObjAddr: 0xCAE4, symBinAddr: 0x10000FD80, symSize: 0x30 }
  - { offsetInCU: 0x3EE91, offset: 0x3EE91, size: 0x8, addend: 0x0, symName: __ZN15AssignmentShapeC1EOS_, symObjAddr: 0xCB14, symBinAddr: 0x10000FDB0, symSize: 0x34 }
  - { offsetInCU: 0x3EEC6, offset: 0x3EEC6, size: 0x8, addend: 0x0, symName: __ZN15AssignmentShapeC2EOS_, symObjAddr: 0xCB48, symBinAddr: 0x10000FDE4, symSize: 0x54 }
  - { offsetInCU: 0x3EEFB, offset: 0x3EEFB, size: 0x8, addend: 0x0, symName: __ZNSt3__110shared_ptrIN2sf5ShapeEEC1B8ue170006EOS3_, symObjAddr: 0xCB9C, symBinAddr: 0x10000FE38, symSize: 0x34 }
  - { offsetInCU: 0x3EF34, offset: 0x3EF34, size: 0x8, addend: 0x0, symName: __ZNSt3__110shared_ptrIN2sf4TextEEC1B8ue170006EOS3_, symObjAddr: 0xCBD0, symBinAddr: 0x10000FE6C, symSize: 0x34 }
  - { offsetInCU: 0x3EF6D, offset: 0x3EF6D, size: 0x8, addend: 0x0, symName: __ZNSt3__110shared_ptrIN2sf5ShapeEEC2B8ue170006EOS3_, symObjAddr: 0xCC04, symBinAddr: 0x10000FEA0, symSize: 0x40 }
  - { offsetInCU: 0x3EFA6, offset: 0x3EFA6, size: 0x8, addend: 0x0, symName: __ZNSt3__110shared_ptrIN2sf4TextEEC2B8ue170006EOS3_, symObjAddr: 0xCC44, symBinAddr: 0x10000FEE0, symSize: 0x40 }
  - { offsetInCU: 0x3EFDF, offset: 0x3EFDF, size: 0x8, addend: 0x0, symName: __ZNSt3__16vectorI15AssignmentShapeNS_9allocatorIS1_EEE21_ConstructTransactionD2B8ue170006Ev, symObjAddr: 0xCC84, symBinAddr: 0x10000FF20, symSize: 0x20 }
  - { offsetInCU: 0x3F009, offset: 0x3F009, size: 0x8, addend: 0x0, symName: __ZNKSt3__16vectorI15AssignmentShapeNS_9allocatorIS1_EEE11__recommendB8ue170006Em, symObjAddr: 0xCCA4, symBinAddr: 0x10000FF40, symSize: 0xB4 }
  - { offsetInCU: 0x3F05E, offset: 0x3F05E, size: 0x8, addend: 0x0, symName: __ZNSt3__114__split_bufferI15AssignmentShapeRNS_9allocatorIS1_EEEC1EmmS4_, symObjAddr: 0xCD58, symBinAddr: 0x10000FFF4, symSize: 0x44 }
  - { offsetInCU: 0x3F0B7, offset: 0x3F0B7, size: 0x8, addend: 0x0, symName: __ZNSt3__114__split_bufferI15AssignmentShapeRNS_9allocatorIS1_EEED1Ev, symObjAddr: 0xCEAC, symBinAddr: 0x100010148, symSize: 0x2C }
  - { offsetInCU: 0x3F0E3, offset: 0x3F0E3, size: 0x8, addend: 0x0, symName: __ZNKSt3__16vectorI15AssignmentShapeNS_9allocatorIS1_EEE8max_sizeEv, symObjAddr: 0xCED8, symBinAddr: 0x100010174, symSize: 0x60 }
  - { offsetInCU: 0x3F10B, offset: 0x3F10B, size: 0x8, addend: 0x0, symName: __ZNKSt3__16vectorI15AssignmentShapeNS_9allocatorIS1_EEE20__throw_length_errorB8ue170006Ev, symObjAddr: 0xCF38, symBinAddr: 0x1000101D4, symSize: 0x1C }
  - { offsetInCU: 0x3F13C, offset: 0x3F13C, size: 0x8, addend: 0x0, symName: __ZNSt3__116allocator_traitsINS_9allocatorI15AssignmentShapeEEE8max_sizeB8ue170006IS3_vEEmRKS3_, symObjAddr: 0xCF54, symBinAddr: 0x1000101F0, symSize: 0x24 }
  - { offsetInCU: 0x3F16A, offset: 0x3F16A, size: 0x8, addend: 0x0, symName: __ZNKSt3__16vectorI15AssignmentShapeNS_9allocatorIS1_EEE7__allocB8ue170006Ev, symObjAddr: 0xCF78, symBinAddr: 0x100010214, symSize: 0x28 }
  - { offsetInCU: 0x3F190, offset: 0x3F190, size: 0x8, addend: 0x0, symName: __ZNKSt3__19allocatorI15AssignmentShapeE8max_sizeB8ue170006Ev, symObjAddr: 0xCFA0, symBinAddr: 0x10001023C, symSize: 0x18 }
  - { offsetInCU: 0x3F1B6, offset: 0x3F1B6, size: 0x8, addend: 0x0, symName: __ZNKSt3__117__compressed_pairIP15AssignmentShapeNS_9allocatorIS1_EEE6secondB8ue170006Ev, symObjAddr: 0xCFB8, symBinAddr: 0x100010254, symSize: 0x24 }
  - { offsetInCU: 0x3F1DC, offset: 0x3F1DC, size: 0x8, addend: 0x0, symName: __ZNKSt3__122__compressed_pair_elemINS_9allocatorI15AssignmentShapeEELi1ELb1EE5__getB8ue170006Ev, symObjAddr: 0xCFDC, symBinAddr: 0x100010278, symSize: 0x14 }
  - { offsetInCU: 0x3F202, offset: 0x3F202, size: 0x8, addend: 0x0, symName: __ZNSt3__114__split_bufferI15AssignmentShapeRNS_9allocatorIS1_EEEC2EmmS4_, symObjAddr: 0xCFF0, symBinAddr: 0x10001028C, symSize: 0xE0 }
  - { offsetInCU: 0x3F279, offset: 0x3F279, size: 0x8, addend: 0x0, symName: __ZNSt3__117__compressed_pairIP15AssignmentShapeRNS_9allocatorIS1_EEEC1B8ue170006IDnS5_EEOT_OT0_, symObjAddr: 0xD0D0, symBinAddr: 0x10001036C, symSize: 0x3C }
  - { offsetInCU: 0x3F2D3, offset: 0x3F2D3, size: 0x8, addend: 0x0, symName: __ZNSt3__114__split_bufferI15AssignmentShapeRNS_9allocatorIS1_EEE7__allocB8ue170006Ev, symObjAddr: 0xD14C, symBinAddr: 0x1000103E8, symSize: 0x28 }
  - { offsetInCU: 0x3F2F9, offset: 0x3F2F9, size: 0x8, addend: 0x0, symName: __ZNSt3__114__split_bufferI15AssignmentShapeRNS_9allocatorIS1_EEE9__end_capB8ue170006Ev, symObjAddr: 0xD174, symBinAddr: 0x100010410, symSize: 0x28 }
  - { offsetInCU: 0x3F31F, offset: 0x3F31F, size: 0x8, addend: 0x0, symName: __ZNSt3__117__compressed_pairIP15AssignmentShapeRNS_9allocatorIS1_EEEC2B8ue170006IDnS5_EEOT_OT0_, symObjAddr: 0xD19C, symBinAddr: 0x100010438, symSize: 0x48 }
  - { offsetInCU: 0x3F379, offset: 0x3F379, size: 0x8, addend: 0x0, symName: __ZNSt3__122__compressed_pair_elemIRNS_9allocatorI15AssignmentShapeEELi1ELb0EEC2B8ue170006IS4_vEEOT_, symObjAddr: 0xD1E4, symBinAddr: 0x100010480, symSize: 0x20 }
  - { offsetInCU: 0x3F3BC, offset: 0x3F3BC, size: 0x8, addend: 0x0, symName: __ZNSt3__19allocatorI15AssignmentShapeE8allocateB8ue170006Em, symObjAddr: 0xD204, symBinAddr: 0x1000104A0, symSize: 0x5C }
  - { offsetInCU: 0x3F3F1, offset: 0x3F3F1, size: 0x8, addend: 0x0, symName: __ZNSt3__117__compressed_pairIP15AssignmentShapeRNS_9allocatorIS1_EEE6secondB8ue170006Ev, symObjAddr: 0xD260, symBinAddr: 0x1000104FC, symSize: 0x28 }
  - { offsetInCU: 0x3F417, offset: 0x3F417, size: 0x8, addend: 0x0, symName: __ZNSt3__122__compressed_pair_elemIRNS_9allocatorI15AssignmentShapeEELi1ELb0EE5__getB8ue170006Ev, symObjAddr: 0xD288, symBinAddr: 0x100010524, symSize: 0x18 }
  - { offsetInCU: 0x3F43D, offset: 0x3F43D, size: 0x8, addend: 0x0, symName: __ZNSt3__117__compressed_pairIP15AssignmentShapeRNS_9allocatorIS1_EEE5firstB8ue170006Ev, symObjAddr: 0xD2A0, symBinAddr: 0x10001053C, symSize: 0x24 }
  - { offsetInCU: 0x3F463, offset: 0x3F463, size: 0x8, addend: 0x0, symName: __ZNSt3__116reverse_iteratorIP15AssignmentShapeEC1B8ue170006ES2_, symObjAddr: 0xD3F0, symBinAddr: 0x10001068C, symSize: 0x34 }
  - { offsetInCU: 0x3F49C, offset: 0x3F49C, size: 0x8, addend: 0x0, symName: __ZNKSt3__116reverse_iteratorIP15AssignmentShapeE4baseB8ue170006Ev, symObjAddr: 0xD424, symBinAddr: 0x1000106C0, symSize: 0x18 }
  - { offsetInCU: 0x3F4C2, offset: 0x3F4C2, size: 0x8, addend: 0x0, symName: __ZNKSt3__16vectorI15AssignmentShapeNS_9allocatorIS1_EEE14__annotate_newB8ue170006Em, symObjAddr: 0xD478, symBinAddr: 0x100010714, symSize: 0xC8 }
  - { offsetInCU: 0x3F4F7, offset: 0x3F4F7, size: 0x8, addend: 0x0, symName: __ZNSt3__129_AllocatorDestroyRangeReverseINS_9allocatorI15AssignmentShapeEENS_16reverse_iteratorIPS2_EEEC1B8ue170006ERS3_RS6_S9_, symObjAddr: 0xD58C, symBinAddr: 0x100010828, symSize: 0x44 }
  - { offsetInCU: 0x3F54E, offset: 0x3F54E, size: 0x8, addend: 0x0, symName: __ZNKSt3__116reverse_iteratorIP15AssignmentShapeEdeB8ue170006Ev, symObjAddr: 0xD63C, symBinAddr: 0x1000108D8, symSize: 0x28 }
  - { offsetInCU: 0x3F583, offset: 0x3F583, size: 0x8, addend: 0x0, symName: __ZNSt3__116reverse_iteratorIP15AssignmentShapeEppB8ue170006Ev, symObjAddr: 0xD664, symBinAddr: 0x100010900, symSize: 0x20 }
  - { offsetInCU: 0x3F5A9, offset: 0x3F5A9, size: 0x8, addend: 0x0, symName: __ZNSt3__128__exception_guard_exceptionsINS_29_AllocatorDestroyRangeReverseINS_9allocatorI15AssignmentShapeEENS_16reverse_iteratorIPS3_EEEEE10__completeB8ue170006Ev, symObjAddr: 0xD684, symBinAddr: 0x100010920, symSize: 0x1C }
  - { offsetInCU: 0x3F5CF, offset: 0x3F5CF, size: 0x8, addend: 0x0, symName: __ZNSt3__128__exception_guard_exceptionsINS_29_AllocatorDestroyRangeReverseINS_9allocatorI15AssignmentShapeEENS_16reverse_iteratorIPS3_EEEEED1B8ue170006Ev, symObjAddr: 0xD6A0, symBinAddr: 0x10001093C, symSize: 0x2C }
  - { offsetInCU: 0x3F5F9, offset: 0x3F5F9, size: 0x8, addend: 0x0, symName: __ZNSt3__128__exception_guard_exceptionsINS_29_AllocatorDestroyRangeReverseINS_9allocatorI15AssignmentShapeEENS_16reverse_iteratorIPS3_EEEEEC1B8ue170006ES8_, symObjAddr: 0xD6CC, symBinAddr: 0x100010968, symSize: 0x34 }
  - { offsetInCU: 0x3F633, offset: 0x3F633, size: 0x8, addend: 0x0, symName: __ZNSt3__128__exception_guard_exceptionsINS_29_AllocatorDestroyRangeReverseINS_9allocatorI15AssignmentShapeEENS_16reverse_iteratorIPS3_EEEEEC2B8ue170006ES8_, symObjAddr: 0xD700, symBinAddr: 0x10001099C, symSize: 0x30 }
  - { offsetInCU: 0x3F66D, offset: 0x3F66D, size: 0x8, addend: 0x0, symName: __ZNSt3__129_AllocatorDestroyRangeReverseINS_9allocatorI15AssignmentShapeEENS_16reverse_iteratorIPS2_EEEC2B8ue170006ERS3_RS6_S9_, symObjAddr: 0xD730, symBinAddr: 0x1000109CC, symSize: 0x38 }
  - { offsetInCU: 0x3F6CA, offset: 0x3F6CA, size: 0x8, addend: 0x0, symName: __ZNSt3__119__to_address_helperINS_16reverse_iteratorIP15AssignmentShapeEEvE6__callB8ue170006ERKS4_, symObjAddr: 0xD768, symBinAddr: 0x100010A04, symSize: 0x38 }
  - { offsetInCU: 0x3F6EE, offset: 0x3F6EE, size: 0x8, addend: 0x0, symName: __ZNKSt3__116reverse_iteratorIP15AssignmentShapeEptB8ue170006Ev, symObjAddr: 0xD7A0, symBinAddr: 0x100010A3C, symSize: 0x24 }
  - { offsetInCU: 0x3F714, offset: 0x3F714, size: 0x8, addend: 0x0, symName: __ZNSt3__128__exception_guard_exceptionsINS_29_AllocatorDestroyRangeReverseINS_9allocatorI15AssignmentShapeEENS_16reverse_iteratorIPS3_EEEEED2B8ue170006Ev, symObjAddr: 0xD7C4, symBinAddr: 0x100010A60, symSize: 0x50 }
  - { offsetInCU: 0x3F73E, offset: 0x3F73E, size: 0x8, addend: 0x0, symName: __ZNKSt3__129_AllocatorDestroyRangeReverseINS_9allocatorI15AssignmentShapeEENS_16reverse_iteratorIPS2_EEEclB8ue170006Ev, symObjAddr: 0xD814, symBinAddr: 0x100010AB0, symSize: 0xB4 }
  - { offsetInCU: 0x3F765, offset: 0x3F765, size: 0x8, addend: 0x0, symName: __ZNSt3__116reverse_iteratorINS0_IP15AssignmentShapeEEEC1B8ue170006ES3_, symObjAddr: 0xD938, symBinAddr: 0x100010BD4, symSize: 0x3C }
  - { offsetInCU: 0x3F79E, offset: 0x3F79E, size: 0x8, addend: 0x0, symName: __ZNSt3__116reverse_iteratorINS0_IP15AssignmentShapeEEEppB8ue170006Ev, symObjAddr: 0xD9F8, symBinAddr: 0x100010C94, symSize: 0x30 }
  - { offsetInCU: 0x3F7C4, offset: 0x3F7C4, size: 0x8, addend: 0x0, symName: __ZNKSt3__116reverse_iteratorINS0_IP15AssignmentShapeEEE4baseB8ue170006Ev, symObjAddr: 0xDA28, symBinAddr: 0x100010CC4, symSize: 0x24 }
  - { offsetInCU: 0x3F7F0, offset: 0x3F7F0, size: 0x8, addend: 0x0, symName: __ZNSt3__119__to_address_helperINS_16reverse_iteratorINS1_IP15AssignmentShapeEEEEvE6__callB8ue170006ERKS5_, symObjAddr: 0xDA4C, symBinAddr: 0x100010CE8, symSize: 0x38 }
  - { offsetInCU: 0x3F814, offset: 0x3F814, size: 0x8, addend: 0x0, symName: __ZNKSt3__116reverse_iteratorINS0_IP15AssignmentShapeEEEptB8ue170006Ev, symObjAddr: 0xDA84, symBinAddr: 0x100010D20, symSize: 0x24 }
  - { offsetInCU: 0x3F83A, offset: 0x3F83A, size: 0x8, addend: 0x0, symName: __ZNKSt3__116reverse_iteratorINS0_IP15AssignmentShapeEEEdeB8ue170006Ev, symObjAddr: 0xDAA8, symBinAddr: 0x100010D44, symSize: 0x34 }
  - { offsetInCU: 0x3F86F, offset: 0x3F86F, size: 0x8, addend: 0x0, symName: __ZNSt3__116reverse_iteratorIP15AssignmentShapeEmmB8ue170006Ev, symObjAddr: 0xDADC, symBinAddr: 0x100010D78, symSize: 0x20 }
  - { offsetInCU: 0x3F895, offset: 0x3F895, size: 0x8, addend: 0x0, symName: __ZNSt3__116reverse_iteratorINS0_IP15AssignmentShapeEEEC2B8ue170006ES3_, symObjAddr: 0xDAFC, symBinAddr: 0x100010D98, symSize: 0x2C }
  - { offsetInCU: 0x3F8CE, offset: 0x3F8CE, size: 0x8, addend: 0x0, symName: __ZNSt3__116reverse_iteratorIP15AssignmentShapeEC2B8ue170006ES2_, symObjAddr: 0xDB28, symBinAddr: 0x100010DC4, symSize: 0x28 }
  - { offsetInCU: 0x3F907, offset: 0x3F907, size: 0x8, addend: 0x0, symName: __ZNSt3__114__split_bufferI15AssignmentShapeRNS_9allocatorIS1_EEED2Ev, symObjAddr: 0xDB50, symBinAddr: 0x100010DEC, symSize: 0x8C }
  - { offsetInCU: 0x3F933, offset: 0x3F933, size: 0x8, addend: 0x0, symName: __ZNSt3__114__split_bufferI15AssignmentShapeRNS_9allocatorIS1_EEE5clearB8ue170006Ev, symObjAddr: 0xDBDC, symBinAddr: 0x100010E78, symSize: 0x28 }
  - { offsetInCU: 0x3F959, offset: 0x3F959, size: 0x8, addend: 0x0, symName: __ZNKSt3__114__split_bufferI15AssignmentShapeRNS_9allocatorIS1_EEE8capacityB8ue170006Ev, symObjAddr: 0xDC04, symBinAddr: 0x100010EA0, symSize: 0x40 }
  - { offsetInCU: 0x3F97F, offset: 0x3F97F, size: 0x8, addend: 0x0, symName: __ZNSt3__114__split_bufferI15AssignmentShapeRNS_9allocatorIS1_EEE17__destruct_at_endB8ue170006EPS1_, symObjAddr: 0xDC44, symBinAddr: 0x100010EE0, symSize: 0x2C }
  - { offsetInCU: 0x3F9B4, offset: 0x3F9B4, size: 0x8, addend: 0x0, symName: __ZNSt3__114__split_bufferI15AssignmentShapeRNS_9allocatorIS1_EEE17__destruct_at_endB8ue170006EPS1_NS_17integral_constantIbLb0EEE, symObjAddr: 0xDC70, symBinAddr: 0x100010F0C, symSize: 0x80 }
  - { offsetInCU: 0x3F9F6, offset: 0x3F9F6, size: 0x8, addend: 0x0, symName: __ZNKSt3__114__split_bufferI15AssignmentShapeRNS_9allocatorIS1_EEE9__end_capB8ue170006Ev, symObjAddr: 0xDCF0, symBinAddr: 0x100010F8C, symSize: 0x28 }
  - { offsetInCU: 0x3FA1C, offset: 0x3FA1C, size: 0x8, addend: 0x0, symName: __ZNKSt3__117__compressed_pairIP15AssignmentShapeRNS_9allocatorIS1_EEE5firstB8ue170006Ev, symObjAddr: 0xDD18, symBinAddr: 0x100010FB4, symSize: 0x24 }
  - { offsetInCU: 0x3FA42, offset: 0x3FA42, size: 0x8, addend: 0x0, symName: __ZNSt3__19allocatorIN2sf14RectangleShapeEEC1B8ue170006Ev, symObjAddr: 0xDDD4, symBinAddr: 0x100011070, symSize: 0x2C }
  - { offsetInCU: 0x3FABD, offset: 0x3FABD, size: 0x8, addend: 0x0, symName: __ZNSt3__118__allocation_guardINS_9allocatorINS_20__shared_ptr_emplaceIN2sf14RectangleShapeENS1_IS4_EEEEEEEC1B8ue170006IS5_EET_m, symObjAddr: 0xDE00, symBinAddr: 0x10001109C, symSize: 0x34 }
  - { offsetInCU: 0x3FB0E, offset: 0x3FB0E, size: 0x8, addend: 0x0, symName: __ZNKSt3__118__allocation_guardINS_9allocatorINS_20__shared_ptr_emplaceIN2sf14RectangleShapeENS1_IS4_EEEEEEE5__getB8ue170006Ev, symObjAddr: 0xDE34, symBinAddr: 0x1000110D0, symSize: 0x18 }
  - { offsetInCU: 0x3FB3A, offset: 0x3FB3A, size: 0x8, addend: 0x0, symName: __ZNSt3__120__shared_ptr_emplaceIN2sf14RectangleShapeENS_9allocatorIS2_EEEC1B8ue170006IJNS1_7Vector2IfEEEEES4_DpOT_, symObjAddr: 0xDE4C, symBinAddr: 0x1000110E8, symSize: 0x34 }
  - { offsetInCU: 0x3FB8D, offset: 0x3FB8D, size: 0x8, addend: 0x0, symName: __ZNSt3__118__allocation_guardINS_9allocatorINS_20__shared_ptr_emplaceIN2sf14RectangleShapeENS1_IS4_EEEEEEE13__release_ptrB8ue170006Ev, symObjAddr: 0xDE80, symBinAddr: 0x10001111C, symSize: 0x24 }
  - { offsetInCU: 0x3FBC2, offset: 0x3FBC2, size: 0x8, addend: 0x0, symName: __ZNSt3__110shared_ptrIN2sf14RectangleShapeEE27__create_with_control_blockB8ue170006IS2_NS_20__shared_ptr_emplaceIS2_NS_9allocatorIS2_EEEEEES3_PT_PT0_, symObjAddr: 0xDEA4, symBinAddr: 0x100011140, symSize: 0xA4 }
  - { offsetInCU: 0x3FC17, offset: 0x3FC17, size: 0x8, addend: 0x0, symName: __ZNSt3__120__shared_ptr_emplaceIN2sf14RectangleShapeENS_9allocatorIS2_EEE10__get_elemB8ue170006Ev, symObjAddr: 0xDF48, symBinAddr: 0x1000111E4, symSize: 0x28 }
  - { offsetInCU: 0x3FC3D, offset: 0x3FC3D, size: 0x8, addend: 0x0, symName: __ZNSt3__118__allocation_guardINS_9allocatorINS_20__shared_ptr_emplaceIN2sf14RectangleShapeENS1_IS4_EEEEEEED1B8ue170006Ev, symObjAddr: 0xDF70, symBinAddr: 0x10001120C, symSize: 0x2C }
  - { offsetInCU: 0x3FC67, offset: 0x3FC67, size: 0x8, addend: 0x0, symName: __ZNSt3__118__allocation_guardINS_9allocatorINS_20__shared_ptr_emplaceIN2sf14RectangleShapeENS1_IS4_EEEEEEEC2B8ue170006IS5_EET_m, symObjAddr: 0xDF9C, symBinAddr: 0x100011238, symSize: 0x50 }
  - { offsetInCU: 0x3FCB8, offset: 0x3FCB8, size: 0x8, addend: 0x0, symName: __ZNSt3__19allocatorINS_20__shared_ptr_emplaceIN2sf14RectangleShapeENS0_IS3_EEEEEC1B8ue170006IS3_EERKNS0_IT_EE, symObjAddr: 0xDFEC, symBinAddr: 0x100011288, symSize: 0x34 }
  - { offsetInCU: 0x3FCF6, offset: 0x3FCF6, size: 0x8, addend: 0x0, symName: __ZNSt3__116allocator_traitsINS_9allocatorINS_20__shared_ptr_emplaceIN2sf14RectangleShapeENS1_IS4_EEEEEEE8allocateB8ue170006ERS7_m, symObjAddr: 0xE020, symBinAddr: 0x1000112BC, symSize: 0x2C }
  - { offsetInCU: 0x3FD29, offset: 0x3FD29, size: 0x8, addend: 0x0, symName: __ZNSt3__19allocatorINS_20__shared_ptr_emplaceIN2sf14RectangleShapeENS0_IS3_EEEEEC2B8ue170006IS3_EERKNS0_IT_EE, symObjAddr: 0xE04C, symBinAddr: 0x1000112E8, symSize: 0x30 }
  - { offsetInCU: 0x3FD67, offset: 0x3FD67, size: 0x8, addend: 0x0, symName: __ZNSt3__116__non_trivial_ifILb1ENS_9allocatorINS_20__shared_ptr_emplaceIN2sf14RectangleShapeENS1_IS4_EEEEEEEC2B8ue170006Ev, symObjAddr: 0xE07C, symBinAddr: 0x100011318, symSize: 0x14 }
  - { offsetInCU: 0x3FD91, offset: 0x3FD91, size: 0x8, addend: 0x0, symName: __ZNSt3__19allocatorINS_20__shared_ptr_emplaceIN2sf14RectangleShapeENS0_IS3_EEEEE8allocateB8ue170006Em, symObjAddr: 0xE090, symBinAddr: 0x10001132C, symSize: 0x5C }
  - { offsetInCU: 0x3FDD1, offset: 0x3FDD1, size: 0x8, addend: 0x0, symName: __ZNSt3__116allocator_traitsINS_9allocatorINS_20__shared_ptr_emplaceIN2sf14RectangleShapeENS1_IS4_EEEEEEE8max_sizeB8ue170006IS7_vEEmRKS7_, symObjAddr: 0xE0EC, symBinAddr: 0x100011388, symSize: 0x24 }
  - { offsetInCU: 0x3FDFF, offset: 0x3FDFF, size: 0x8, addend: 0x0, symName: __ZNKSt3__19allocatorINS_20__shared_ptr_emplaceIN2sf14RectangleShapeENS0_IS3_EEEEE8max_sizeB8ue170006Ev, symObjAddr: 0xE110, symBinAddr: 0x1000113AC, symSize: 0x20 }
  - { offsetInCU: 0x3FE25, offset: 0x3FE25, size: 0x8, addend: 0x0, symName: __ZNSt3__120__shared_ptr_emplaceIN2sf14RectangleShapeENS_9allocatorIS2_EEEC2B8ue170006IJNS1_7Vector2IfEEEEES4_DpOT_, symObjAddr: 0xE130, symBinAddr: 0x1000113CC, symSize: 0xC8 }
  - { offsetInCU: 0x3FE78, offset: 0x3FE78, size: 0x8, addend: 0x0, symName: __ZNSt3__120__shared_ptr_emplaceIN2sf14RectangleShapeENS_9allocatorIS2_EEE8_StorageC1B8ue170006EOS4_, symObjAddr: 0xE1F8, symBinAddr: 0x100011494, symSize: 0x34 }
  - { offsetInCU: 0x3FEB1, offset: 0x3FEB1, size: 0x8, addend: 0x0, symName: __ZNSt3__120__shared_ptr_emplaceIN2sf14RectangleShapeENS_9allocatorIS2_EEE8_StorageD1B8ue170006Ev, symObjAddr: 0xE22C, symBinAddr: 0x1000114C8, symSize: 0x2C }
  - { offsetInCU: 0x3FEDB, offset: 0x3FEDB, size: 0x8, addend: 0x0, symName: __ZNSt3__120__shared_ptr_emplaceIN2sf14RectangleShapeENS_9allocatorIS2_EEED1Ev, symObjAddr: 0xE258, symBinAddr: 0x1000114F4, symSize: 0x2C }
  - { offsetInCU: 0x3FF08, offset: 0x3FF08, size: 0x8, addend: 0x0, symName: __ZNSt3__120__shared_ptr_emplaceIN2sf14RectangleShapeENS_9allocatorIS2_EEED0Ev, symObjAddr: 0xE284, symBinAddr: 0x100011520, symSize: 0x30 }
  - { offsetInCU: 0x3FF35, offset: 0x3FF35, size: 0x8, addend: 0x0, symName: __ZNSt3__120__shared_ptr_emplaceIN2sf14RectangleShapeENS_9allocatorIS2_EEE16__on_zero_sharedEv, symObjAddr: 0xE2B4, symBinAddr: 0x100011550, symSize: 0x30 }
  - { offsetInCU: 0x3FF5B, offset: 0x3FF5B, size: 0x8, addend: 0x0, symName: __ZNSt3__120__shared_ptr_emplaceIN2sf14RectangleShapeENS_9allocatorIS2_EEE21__on_zero_shared_weakEv, symObjAddr: 0xE2E4, symBinAddr: 0x100011580, symSize: 0x5C }
  - { offsetInCU: 0x3FF9C, offset: 0x3FF9C, size: 0x8, addend: 0x0, symName: __ZNSt3__120__shared_ptr_emplaceIN2sf14RectangleShapeENS_9allocatorIS2_EEE8_StorageC2B8ue170006EOS4_, symObjAddr: 0xE340, symBinAddr: 0x1000115DC, symSize: 0x30 }
  - { offsetInCU: 0x3FFD5, offset: 0x3FFD5, size: 0x8, addend: 0x0, symName: __ZNSt3__120__shared_ptr_emplaceIN2sf14RectangleShapeENS_9allocatorIS2_EEE8_Storage11__get_allocB8ue170006Ev, symObjAddr: 0xE370, symBinAddr: 0x10001160C, symSize: 0x3C }
  - { offsetInCU: 0x40028, offset: 0x40028, size: 0x8, addend: 0x0, symName: __ZNSt3__117__compressed_pairINS_9allocatorIN2sf14RectangleShapeEEES3_E16__get_first_baseB8ue170006EPS5_, symObjAddr: 0xE3AC, symBinAddr: 0x100011648, symSize: 0x14 }
  - { offsetInCU: 0x4004C, offset: 0x4004C, size: 0x8, addend: 0x0, symName: __ZNSt3__120__shared_ptr_emplaceIN2sf14RectangleShapeENS_9allocatorIS2_EEE8_StorageD2B8ue170006Ev, symObjAddr: 0xE3C0, symBinAddr: 0x10001165C, symSize: 0x2C }
  - { offsetInCU: 0x40076, offset: 0x40076, size: 0x8, addend: 0x0, symName: __ZNSt3__120__shared_ptr_emplaceIN2sf14RectangleShapeENS_9allocatorIS2_EEED2Ev, symObjAddr: 0xE3EC, symBinAddr: 0x100011688, symSize: 0x48 }
  - { offsetInCU: 0x400A3, offset: 0x400A3, size: 0x8, addend: 0x0, symName: __ZNSt3__120__shared_ptr_emplaceIN2sf14RectangleShapeENS_9allocatorIS2_EEE11__get_allocB8ue170006Ev, symObjAddr: 0xE434, symBinAddr: 0x1000116D0, symSize: 0x28 }
  - { offsetInCU: 0x400C9, offset: 0x400C9, size: 0x8, addend: 0x0, symName: __ZNSt3__116allocator_traitsINS_9allocatorINS_20__shared_ptr_emplaceIN2sf14RectangleShapeENS1_IS4_EEEEEEE10deallocateB8ue170006ERS7_PS6_m, symObjAddr: 0xE45C, symBinAddr: 0x1000116F8, symSize: 0x34 }
  - { offsetInCU: 0x4010B, offset: 0x4010B, size: 0x8, addend: 0x0, symName: __ZNSt3__114pointer_traitsIPNS_20__shared_ptr_emplaceIN2sf14RectangleShapeENS_9allocatorIS3_EEEEE10pointer_toB8ue170006ERS6_, symObjAddr: 0xE490, symBinAddr: 0x10001172C, symSize: 0x14 }
  - { offsetInCU: 0x4012F, offset: 0x4012F, size: 0x8, addend: 0x0, symName: __ZNSt3__19allocatorINS_20__shared_ptr_emplaceIN2sf14RectangleShapeENS0_IS3_EEEEE10deallocateB8ue170006EPS5_m, symObjAddr: 0xE4A4, symBinAddr: 0x100011740, symSize: 0x44 }
  - { offsetInCU: 0x40173, offset: 0x40173, size: 0x8, addend: 0x0, symName: __ZNSt3__110shared_ptrIN2sf14RectangleShapeEEC1B8ue170006Ev, symObjAddr: 0xE4E8, symBinAddr: 0x100011784, symSize: 0x2C }
  - { offsetInCU: 0x4019D, offset: 0x4019D, size: 0x8, addend: 0x0, symName: __ZNSt3__110shared_ptrIN2sf14RectangleShapeEE18__enable_weak_thisB8ue170006Ez, symObjAddr: 0xE514, symBinAddr: 0x1000117B0, symSize: 0x10 }
  - { offsetInCU: 0x401C4, offset: 0x401C4, size: 0x8, addend: 0x0, symName: __ZNSt3__110shared_ptrIN2sf14RectangleShapeEEC2B8ue170006Ev, symObjAddr: 0xE524, symBinAddr: 0x1000117C0, symSize: 0x1C }
  - { offsetInCU: 0x401EE, offset: 0x401EE, size: 0x8, addend: 0x0, symName: __ZNSt3__120__shared_ptr_emplaceIN2sf14RectangleShapeENS_9allocatorIS2_EEE8_Storage10__get_elemB8ue170006Ev, symObjAddr: 0xE540, symBinAddr: 0x1000117DC, symSize: 0x3C }
  - { offsetInCU: 0x40241, offset: 0x40241, size: 0x8, addend: 0x0, symName: __ZNSt3__117__compressed_pairINS_9allocatorIN2sf14RectangleShapeEEES3_E17__get_second_baseB8ue170006EPS5_, symObjAddr: 0xE57C, symBinAddr: 0x100011818, symSize: 0x14 }
  - { offsetInCU: 0x40265, offset: 0x40265, size: 0x8, addend: 0x0, symName: __ZNSt3__118__allocation_guardINS_9allocatorINS_20__shared_ptr_emplaceIN2sf14RectangleShapeENS1_IS4_EEEEEEED2B8ue170006Ev, symObjAddr: 0xE590, symBinAddr: 0x10001182C, symSize: 0x2C }
  - { offsetInCU: 0x4028F, offset: 0x4028F, size: 0x8, addend: 0x0, symName: __ZNSt3__118__allocation_guardINS_9allocatorINS_20__shared_ptr_emplaceIN2sf14RectangleShapeENS1_IS4_EEEEEEE9__destroyB8ue170006Ev, symObjAddr: 0xE5BC, symBinAddr: 0x100011858, symSize: 0x4C }
  - { offsetInCU: 0x402B5, offset: 0x402B5, size: 0x8, addend: 0x0, symName: __ZNSt3__19allocatorIN2sf14RectangleShapeEEC2B8ue170006Ev, symObjAddr: 0xE608, symBinAddr: 0x1000118A4, symSize: 0x2C }
  - { offsetInCU: 0x402DF, offset: 0x402DF, size: 0x8, addend: 0x0, symName: __ZNSt3__116__non_trivial_ifILb1ENS_9allocatorIN2sf14RectangleShapeEEEEC2B8ue170006Ev, symObjAddr: 0xE634, symBinAddr: 0x1000118D0, symSize: 0x14 }
  - { offsetInCU: 0x40309, offset: 0x40309, size: 0x8, addend: 0x0, symName: __ZNSt3__110shared_ptrIN2sf14RectangleShapeEED2B8ue170006Ev, symObjAddr: 0xE648, symBinAddr: 0x1000118E4, symSize: 0x54 }
  - { offsetInCU: 0x40333, offset: 0x40333, size: 0x8, addend: 0x0, symName: __ZNSt3__110shared_ptrIN2sf5ShapeEEC2B8ue170006INS1_14RectangleShapeEvEEONS0_IT_EE, symObjAddr: 0xE69C, symBinAddr: 0x100011938, symSize: 0x40 }
  - { offsetInCU: 0x40376, offset: 0x40376, size: 0x8, addend: 0x0, symName: __ZNSt3__120__shared_ptr_emplaceIN2sf4TextENS_9allocatorIS2_EEEC1B8ue170006IJRNS1_4FontERKNS_12basic_stringIcNS_11char_traitsIcEENS3_IcEEEEfEEES4_DpOT_, symObjAddr: 0xE784, symBinAddr: 0x100011A20, symSize: 0x44 }
  - { offsetInCU: 0x403F1, offset: 0x403F1, size: 0x8, addend: 0x0, symName: __ZNSt3__120__shared_ptr_emplaceIN2sf4TextENS_9allocatorIS2_EEEC2B8ue170006IJRNS1_4FontERKNS_12basic_stringIcNS_11char_traitsIcEENS3_IcEEEEfEEES4_DpOT_, symObjAddr: 0xE7C8, symBinAddr: 0x100011A64, symSize: 0x138 }
  - { offsetInCU: 0x4046C, offset: 0x4046C, size: 0x8, addend: 0x0, symName: __ZNKSt3__18optionalIN2sf5EventEEcvbB8ue170006Ev, symObjAddr: 0xE900, symBinAddr: 0x100011B9C, symSize: 0x28 }
  - { offsetInCU: 0x40492, offset: 0x40492, size: 0x8, addend: 0x0, symName: __ZNKSt3__18optionalIN2sf5EventEEptB8ue170006Ev, symObjAddr: 0xE928, symBinAddr: 0x100011BC4, symSize: 0x24 }
  - { offsetInCU: 0x404BD, offset: 0x404BD, size: 0x8, addend: 0x0, symName: '__ZNK2sf5Event5visitIRNS_4priv11OverloadSetIJZ6drivervE3$_0ZNS_10WindowBase12handleEventsIJRKS4_EEEvDpOT_EUlRKNS2_23DelayOverloadResolutionEE_EEEEEDcOT_', symObjAddr: 0xE94C, symBinAddr: 0x100011BE8, symSize: 0x2C }
  - { offsetInCU: 0x404FB, offset: 0x404FB, size: 0x8, addend: 0x0, symName: __ZNKSt3__123__optional_storage_baseIN2sf5EventELb0EE9has_valueB8ue170006Ev, symObjAddr: 0xE978, symBinAddr: 0x100011C14, symSize: 0x1C }
  - { offsetInCU: 0x40521, offset: 0x40521, size: 0x8, addend: 0x0, symName: __ZNKRSt3__123__optional_storage_baseIN2sf5EventELb0EE5__getB8ue170006Ev, symObjAddr: 0xE994, symBinAddr: 0x100011C30, symSize: 0x14 }
  - { offsetInCU: 0x40547, offset: 0x40547, size: 0x8, addend: 0x0, symName: '__ZNSt3__116__variant_detail12__visitation9__variant13__visit_valueB8ue170006IRN2sf4priv11OverloadSetIJZ6drivervE3$_0ZNS4_10WindowBase12handleEventsIJRKS7_EEEvDpOT_EUlRKNS5_23DelayOverloadResolutionEE_EEEJRKNS_7variantIJNS4_5Event6ClosedENSM_7ResizedENSM_9FocusLostENSM_11FocusGainedENSM_11TextEnteredENSM_10KeyPressedENSM_11KeyReleasedENSM_18MouseWheelScrolledENSM_18MouseButtonPressedENSM_19MouseButtonReleasedENSM_10MouseMovedENSM_13MouseMovedRawENSM_12MouseEnteredENSM_9MouseLeftENSM_21JoystickButtonPressedENSM_22JoystickButtonReleasedENSM_13JoystickMovedENSM_17JoystickConnectedENSM_20JoystickDisconnectedENSM_10TouchBeganENSM_10TouchMovedENSM_10TouchEndedENSM_13SensorChangedEEEEEEEDcOT_DpOT0_', symObjAddr: 0xEA20, symBinAddr: 0x100011CBC, symSize: 0x3C }
  - { offsetInCU: 0x4058E, offset: 0x4058E, size: 0x8, addend: 0x0, symName: __ZNKSt3__17variantIJN2sf5Event6ClosedENS2_7ResizedENS2_9FocusLostENS2_11FocusGainedENS2_11TextEnteredENS2_10KeyPressedENS2_11KeyReleasedENS2_18MouseWheelScrolledENS2_18MouseButtonPressedENS2_19MouseButtonReleasedENS2_10MouseMovedENS2_13MouseMovedRawENS2_12MouseEnteredENS2_9MouseLeftENS2_21JoystickButtonPressedENS2_22JoystickButtonReleasedENS2_13JoystickMovedENS2_17JoystickConnectedENS2_20JoystickDisconnectedENS2_10TouchBeganENS2_10TouchMovedENS2_10TouchEndedENS2_13SensorChangedEEE22valueless_by_exceptionB8ue170006Ev, symObjAddr: 0xEA70, symBinAddr: 0x100011D0C, symSize: 0x28 }
  - { offsetInCU: 0x405B4, offset: 0x405B4, size: 0x8, addend: 0x0, symName: __ZNKSt3__116__variant_detail6__baseILNS0_6_TraitE0EJN2sf5Event6ClosedENS4_7ResizedENS4_9FocusLostENS4_11FocusGainedENS4_11TextEnteredENS4_10KeyPressedENS4_11KeyReleasedENS4_18MouseWheelScrolledENS4_18MouseButtonPressedENS4_19MouseButtonReleasedENS4_10MouseMovedENS4_13MouseMovedRawENS4_12MouseEnteredENS4_9MouseLeftENS4_21JoystickButtonPressedENS4_22JoystickButtonReleasedENS4_13JoystickMovedENS4_17JoystickConnectedENS4_20JoystickDisconnectedENS4_10TouchBeganENS4_10TouchMovedENS4_10TouchEndedENS4_13SensorChangedEEE22valueless_by_exceptionB8ue170006Ev, symObjAddr: 0xEAD0, symBinAddr: 0x100011D6C, symSize: 0x30 }
  - { offsetInCU: 0x405DA, offset: 0x405DA, size: 0x8, addend: 0x0, symName: __ZNKSt3__116__variant_detail6__baseILNS0_6_TraitE0EJN2sf5Event6ClosedENS4_7ResizedENS4_9FocusLostENS4_11FocusGainedENS4_11TextEnteredENS4_10KeyPressedENS4_11KeyReleasedENS4_18MouseWheelScrolledENS4_18MouseButtonPressedENS4_19MouseButtonReleasedENS4_10MouseMovedENS4_13MouseMovedRawENS4_12MouseEnteredENS4_9MouseLeftENS4_21JoystickButtonPressedENS4_22JoystickButtonReleasedENS4_13JoystickMovedENS4_17JoystickConnectedENS4_20JoystickDisconnectedENS4_10TouchBeganENS4_10TouchMovedENS4_10TouchEndedENS4_13SensorChangedEEE5indexB8ue170006Ev, symObjAddr: 0xEB00, symBinAddr: 0x100011D9C, symSize: 0x4C }
  - { offsetInCU: 0x4060F, offset: 0x4060F, size: 0x8, addend: 0x0, symName: __ZNSt18bad_variant_accessC1Ev, symObjAddr: 0xEB4C, symBinAddr: 0x100011DE8, symSize: 0x2C }
  - { offsetInCU: 0x4063C, offset: 0x4063C, size: 0x8, addend: 0x0, symName: __ZNSt18bad_variant_accessD1Ev, symObjAddr: 0xEB78, symBinAddr: 0x100011E14, symSize: 0x2C }
  - { offsetInCU: 0x40669, offset: 0x40669, size: 0x8, addend: 0x0, symName: __ZNSt18bad_variant_accessC2Ev, symObjAddr: 0xEBA4, symBinAddr: 0x100011E40, symSize: 0x44 }
  - { offsetInCU: 0x40696, offset: 0x40696, size: 0x8, addend: 0x0, symName: __ZNSt9exceptionC2B8ue170006Ev, symObjAddr: 0xEBE8, symBinAddr: 0x100011E84, symSize: 0x24 }
  - { offsetInCU: 0x406C0, offset: 0x406C0, size: 0x8, addend: 0x0, symName: __ZNSt18bad_variant_accessD2Ev, symObjAddr: 0xEC0C, symBinAddr: 0x100011EA8, symSize: 0x2C }
  - { offsetInCU: 0x406F3, offset: 0x406F3, size: 0x8, addend: 0x0, symName: '__ZNSt3__116__variant_detail12__visitation9__variant11__visit_altB8ue170006INS2_15__value_visitorIRN2sf4priv11OverloadSetIJZ6drivervE3$_0ZNS5_10WindowBase12handleEventsIJRKS8_EEEvDpOT_EUlRKNS6_23DelayOverloadResolutionEE_EEEEEJRKNS_7variantIJNS5_5Event6ClosedENSO_7ResizedENSO_9FocusLostENSO_11FocusGainedENSO_11TextEnteredENSO_10KeyPressedENSO_11KeyReleasedENSO_18MouseWheelScrolledENSO_18MouseButtonPressedENSO_19MouseButtonReleasedENSO_10MouseMovedENSO_13MouseMovedRawENSO_12MouseEnteredENSO_9MouseLeftENSO_21JoystickButtonPressedENSO_22JoystickButtonReleasedENSO_13JoystickMovedENSO_17JoystickConnectedENSO_20JoystickDisconnectedENSO_10TouchBeganENSO_10TouchMovedENSO_10TouchEndedENSO_13SensorChangedEEEEEEEDcOT_DpOT0_', symObjAddr: 0xEC38, symBinAddr: 0x100011ED4, symSize: 0x3C }
  - { offsetInCU: 0x4073A, offset: 0x4073A, size: 0x8, addend: 0x0, symName: '__ZNSt3__116__variant_detail12__visitation9__variant20__make_value_visitorB8ue170006IRN2sf4priv11OverloadSetIJZ6drivervE3$_0ZNS4_10WindowBase12handleEventsIJRKS7_EEEvDpOT_EUlRKNS5_23DelayOverloadResolutionEE_EEEEEDaOT_', symObjAddr: 0xEC74, symBinAddr: 0x100011F10, symSize: 0x1C }
  - { offsetInCU: 0x40767, offset: 0x40767, size: 0x8, addend: 0x0, symName: '__ZNSt3__116__variant_detail12__visitation6__base11__visit_altB8ue170006INS1_9__variant15__value_visitorIRN2sf4priv11OverloadSetIJZ6drivervE3$_0ZNS6_10WindowBase12handleEventsIJRKS9_EEEvDpOT_EUlRKNS7_23DelayOverloadResolutionEE_EEEEEJRKNS0_6__implIJNS6_5Event6ClosedENSP_7ResizedENSP_9FocusLostENSP_11FocusGainedENSP_11TextEnteredENSP_10KeyPressedENSP_11KeyReleasedENSP_18MouseWheelScrolledENSP_18MouseButtonPressedENSP_19MouseButtonReleasedENSP_10MouseMovedENSP_13MouseMovedRawENSP_12MouseEnteredENSP_9MouseLeftENSP_21JoystickButtonPressedENSP_22JoystickButtonReleasedENSP_13JoystickMovedENSP_17JoystickConnectedENSP_20JoystickDisconnectedENSP_10TouchBeganENSP_10TouchMovedENSP_10TouchEndedENSP_13SensorChangedEEEEEEEDcOT_DpOT0_', symObjAddr: 0xEC90, symBinAddr: 0x100011F2C, symSize: 0x74 }
  - { offsetInCU: 0x407C3, offset: 0x407C3, size: 0x8, addend: 0x0, symName: '__ZNSt3__116__variant_detail12__visitation6__base12__dispatcherIJLm0EEE10__dispatchB8ue170006IONS1_9__variant15__value_visitorIRN2sf4priv11OverloadSetIJZ6drivervE3$_0ZNS8_10WindowBase12handleEventsIJRKSB_EEEvDpOT_EUlRKNS9_23DelayOverloadResolutionEE_EEEEEJRKNS0_6__baseILNS0_6_TraitE0EJNS8_5Event6ClosedENST_7ResizedENST_9FocusLostENST_11FocusGainedENST_11TextEnteredENST_10KeyPressedENST_11KeyReleasedENST_18MouseWheelScrolledENST_18MouseButtonPressedENST_19MouseButtonReleasedENST_10MouseMovedENST_13MouseMovedRawENST_12MouseEnteredENST_9MouseLeftENST_21JoystickButtonPressedENST_22JoystickButtonReleasedENST_13JoystickMovedENST_17JoystickConnectedENST_20JoystickDisconnectedENST_10TouchBeganENST_10TouchMovedENST_10TouchEndedENST_13SensorChangedEEEEEEEDcT_DpT0_', symObjAddr: 0xED04, symBinAddr: 0x100011FA0, symSize: 0x3C }
  - { offsetInCU: 0x4080A, offset: 0x4080A, size: 0x8, addend: 0x0, symName: '__ZNSt3__116__variant_detail12__visitation6__base12__dispatcherIJLm1EEE10__dispatchB8ue170006IONS1_9__variant15__value_visitorIRN2sf4priv11OverloadSetIJZ6drivervE3$_0ZNS8_10WindowBase12handleEventsIJRKSB_EEEvDpOT_EUlRKNS9_23DelayOverloadResolutionEE_EEEEEJRKNS0_6__baseILNS0_6_TraitE0EJNS8_5Event6ClosedENST_7ResizedENST_9FocusLostENST_11FocusGainedENST_11TextEnteredENST_10KeyPressedENST_11KeyReleasedENST_18MouseWheelScrolledENST_18MouseButtonPressedENST_19MouseButtonReleasedENST_10MouseMovedENST_13MouseMovedRawENST_12MouseEnteredENST_9MouseLeftENST_21JoystickButtonPressedENST_22JoystickButtonReleasedENST_13JoystickMovedENST_17JoystickConnectedENST_20JoystickDisconnectedENST_10TouchBeganENST_10TouchMovedENST_10TouchEndedENST_13SensorChangedEEEEEEEDcT_DpT0_', symObjAddr: 0xED40, symBinAddr: 0x100011FDC, symSize: 0x3C }
  - { offsetInCU: 0x40851, offset: 0x40851, size: 0x8, addend: 0x0, symName: '__ZNSt3__116__variant_detail12__visitation6__base12__dispatcherIJLm2EEE10__dispatchB8ue170006IONS1_9__variant15__value_visitorIRN2sf4priv11OverloadSetIJZ6drivervE3$_0ZNS8_10WindowBase12handleEventsIJRKSB_EEEvDpOT_EUlRKNS9_23DelayOverloadResolutionEE_EEEEEJRKNS0_6__baseILNS0_6_TraitE0EJNS8_5Event6ClosedENST_7ResizedENST_9FocusLostENST_11FocusGainedENST_11TextEnteredENST_10KeyPressedENST_11KeyReleasedENST_18MouseWheelScrolledENST_18MouseButtonPressedENST_19MouseButtonReleasedENST_10MouseMovedENST_13MouseMovedRawENST_12MouseEnteredENST_9MouseLeftENST_21JoystickButtonPressedENST_22JoystickButtonReleasedENST_13JoystickMovedENST_17JoystickConnectedENST_20JoystickDisconnectedENST_10TouchBeganENST_10TouchMovedENST_10TouchEndedENST_13SensorChangedEEEEEEEDcT_DpT0_', symObjAddr: 0xED7C, symBinAddr: 0x100012018, symSize: 0x3C }
  - { offsetInCU: 0x40898, offset: 0x40898, size: 0x8, addend: 0x0, symName: '__ZNSt3__116__variant_detail12__visitation6__base12__dispatcherIJLm3EEE10__dispatchB8ue170006IONS1_9__variant15__value_visitorIRN2sf4priv11OverloadSetIJZ6drivervE3$_0ZNS8_10WindowBase12handleEventsIJRKSB_EEEvDpOT_EUlRKNS9_23DelayOverloadResolutionEE_EEEEEJRKNS0_6__baseILNS0_6_TraitE0EJNS8_5Event6ClosedENST_7ResizedENST_9FocusLostENST_11FocusGainedENST_11TextEnteredENST_10KeyPressedENST_11KeyReleasedENST_18MouseWheelScrolledENST_18MouseButtonPressedENST_19MouseButtonReleasedENST_10MouseMovedENST_13MouseMovedRawENST_12MouseEnteredENST_9MouseLeftENST_21JoystickButtonPressedENST_22JoystickButtonReleasedENST_13JoystickMovedENST_17JoystickConnectedENST_20JoystickDisconnectedENST_10TouchBeganENST_10TouchMovedENST_10TouchEndedENST_13SensorChangedEEEEEEEDcT_DpT0_', symObjAddr: 0xEDB8, symBinAddr: 0x100012054, symSize: 0x3C }
  - { offsetInCU: 0x408DF, offset: 0x408DF, size: 0x8, addend: 0x0, symName: '__ZNSt3__116__variant_detail12__visitation6__base12__dispatcherIJLm4EEE10__dispatchB8ue170006IONS1_9__variant15__value_visitorIRN2sf4priv11OverloadSetIJZ6drivervE3$_0ZNS8_10WindowBase12handleEventsIJRKSB_EEEvDpOT_EUlRKNS9_23DelayOverloadResolutionEE_EEEEEJRKNS0_6__baseILNS0_6_TraitE0EJNS8_5Event6ClosedENST_7ResizedENST_9FocusLostENST_11FocusGainedENST_11TextEnteredENST_10KeyPressedENST_11KeyReleasedENST_18MouseWheelScrolledENST_18MouseButtonPressedENST_19MouseButtonReleasedENST_10MouseMovedENST_13MouseMovedRawENST_12MouseEnteredENST_9MouseLeftENST_21JoystickButtonPressedENST_22JoystickButtonReleasedENST_13JoystickMovedENST_17JoystickConnectedENST_20JoystickDisconnectedENST_10TouchBeganENST_10TouchMovedENST_10TouchEndedENST_13SensorChangedEEEEEEEDcT_DpT0_', symObjAddr: 0xEDF4, symBinAddr: 0x100012090, symSize: 0x3C }
  - { offsetInCU: 0x40926, offset: 0x40926, size: 0x8, addend: 0x0, symName: '__ZNSt3__116__variant_detail12__visitation6__base12__dispatcherIJLm5EEE10__dispatchB8ue170006IONS1_9__variant15__value_visitorIRN2sf4priv11OverloadSetIJZ6drivervE3$_0ZNS8_10WindowBase12handleEventsIJRKSB_EEEvDpOT_EUlRKNS9_23DelayOverloadResolutionEE_EEEEEJRKNS0_6__baseILNS0_6_TraitE0EJNS8_5Event6ClosedENST_7ResizedENST_9FocusLostENST_11FocusGainedENST_11TextEnteredENST_10KeyPressedENST_11KeyReleasedENST_18MouseWheelScrolledENST_18MouseButtonPressedENST_19MouseButtonReleasedENST_10MouseMovedENST_13MouseMovedRawENST_12MouseEnteredENST_9MouseLeftENST_21JoystickButtonPressedENST_22JoystickButtonReleasedENST_13JoystickMovedENST_17JoystickConnectedENST_20JoystickDisconnectedENST_10TouchBeganENST_10TouchMovedENST_10TouchEndedENST_13SensorChangedEEEEEEEDcT_DpT0_', symObjAddr: 0xEE30, symBinAddr: 0x1000120CC, symSize: 0x3C }
  - { offsetInCU: 0x4096D, offset: 0x4096D, size: 0x8, addend: 0x0, symName: '__ZNSt3__116__variant_detail12__visitation6__base12__dispatcherIJLm6EEE10__dispatchB8ue170006IONS1_9__variant15__value_visitorIRN2sf4priv11OverloadSetIJZ6drivervE3$_0ZNS8_10WindowBase12handleEventsIJRKSB_EEEvDpOT_EUlRKNS9_23DelayOverloadResolutionEE_EEEEEJRKNS0_6__baseILNS0_6_TraitE0EJNS8_5Event6ClosedENST_7ResizedENST_9FocusLostENST_11FocusGainedENST_11TextEnteredENST_10KeyPressedENST_11KeyReleasedENST_18MouseWheelScrolledENST_18MouseButtonPressedENST_19MouseButtonReleasedENST_10MouseMovedENST_13MouseMovedRawENST_12MouseEnteredENST_9MouseLeftENST_21JoystickButtonPressedENST_22JoystickButtonReleasedENST_13JoystickMovedENST_17JoystickConnectedENST_20JoystickDisconnectedENST_10TouchBeganENST_10TouchMovedENST_10TouchEndedENST_13SensorChangedEEEEEEEDcT_DpT0_', symObjAddr: 0xEE6C, symBinAddr: 0x100012108, symSize: 0x3C }
  - { offsetInCU: 0x409B4, offset: 0x409B4, size: 0x8, addend: 0x0, symName: '__ZNSt3__116__variant_detail12__visitation6__base12__dispatcherIJLm7EEE10__dispatchB8ue170006IONS1_9__variant15__value_visitorIRN2sf4priv11OverloadSetIJZ6drivervE3$_0ZNS8_10WindowBase12handleEventsIJRKSB_EEEvDpOT_EUlRKNS9_23DelayOverloadResolutionEE_EEEEEJRKNS0_6__baseILNS0_6_TraitE0EJNS8_5Event6ClosedENST_7ResizedENST_9FocusLostENST_11FocusGainedENST_11TextEnteredENST_10KeyPressedENST_11KeyReleasedENST_18MouseWheelScrolledENST_18MouseButtonPressedENST_19MouseButtonReleasedENST_10MouseMovedENST_13MouseMovedRawENST_12MouseEnteredENST_9MouseLeftENST_21JoystickButtonPressedENST_22JoystickButtonReleasedENST_13JoystickMovedENST_17JoystickConnectedENST_20JoystickDisconnectedENST_10TouchBeganENST_10TouchMovedENST_10TouchEndedENST_13SensorChangedEEEEEEEDcT_DpT0_', symObjAddr: 0xEEA8, symBinAddr: 0x100012144, symSize: 0x3C }
  - { offsetInCU: 0x409FB, offset: 0x409FB, size: 0x8, addend: 0x0, symName: '__ZNSt3__116__variant_detail12__visitation6__base12__dispatcherIJLm8EEE10__dispatchB8ue170006IONS1_9__variant15__value_visitorIRN2sf4priv11OverloadSetIJZ6drivervE3$_0ZNS8_10WindowBase12handleEventsIJRKSB_EEEvDpOT_EUlRKNS9_23DelayOverloadResolutionEE_EEEEEJRKNS0_6__baseILNS0_6_TraitE0EJNS8_5Event6ClosedENST_7ResizedENST_9FocusLostENST_11FocusGainedENST_11TextEnteredENST_10KeyPressedENST_11KeyReleasedENST_18MouseWheelScrolledENST_18MouseButtonPressedENST_19MouseButtonReleasedENST_10MouseMovedENST_13MouseMovedRawENST_12MouseEnteredENST_9MouseLeftENST_21JoystickButtonPressedENST_22JoystickButtonReleasedENST_13JoystickMovedENST_17JoystickConnectedENST_20JoystickDisconnectedENST_10TouchBeganENST_10TouchMovedENST_10TouchEndedENST_13SensorChangedEEEEEEEDcT_DpT0_', symObjAddr: 0xEEE4, symBinAddr: 0x100012180, symSize: 0x3C }
  - { offsetInCU: 0x40A42, offset: 0x40A42, size: 0x8, addend: 0x0, symName: '__ZNSt3__116__variant_detail12__visitation6__base12__dispatcherIJLm9EEE10__dispatchB8ue170006IONS1_9__variant15__value_visitorIRN2sf4priv11OverloadSetIJZ6drivervE3$_0ZNS8_10WindowBase12handleEventsIJRKSB_EEEvDpOT_EUlRKNS9_23DelayOverloadResolutionEE_EEEEEJRKNS0_6__baseILNS0_6_TraitE0EJNS8_5Event6ClosedENST_7ResizedENST_9FocusLostENST_11FocusGainedENST_11TextEnteredENST_10KeyPressedENST_11KeyReleasedENST_18MouseWheelScrolledENST_18MouseButtonPressedENST_19MouseButtonReleasedENST_10MouseMovedENST_13MouseMovedRawENST_12MouseEnteredENST_9MouseLeftENST_21JoystickButtonPressedENST_22JoystickButtonReleasedENST_13JoystickMovedENST_17JoystickConnectedENST_20JoystickDisconnectedENST_10TouchBeganENST_10TouchMovedENST_10TouchEndedENST_13SensorChangedEEEEEEEDcT_DpT0_', symObjAddr: 0xEF20, symBinAddr: 0x1000121BC, symSize: 0x3C }
  - { offsetInCU: 0x40A89, offset: 0x40A89, size: 0x8, addend: 0x0, symName: '__ZNSt3__116__variant_detail12__visitation6__base12__dispatcherIJLm10EEE10__dispatchB8ue170006IONS1_9__variant15__value_visitorIRN2sf4priv11OverloadSetIJZ6drivervE3$_0ZNS8_10WindowBase12handleEventsIJRKSB_EEEvDpOT_EUlRKNS9_23DelayOverloadResolutionEE_EEEEEJRKNS0_6__baseILNS0_6_TraitE0EJNS8_5Event6ClosedENST_7ResizedENST_9FocusLostENST_11FocusGainedENST_11TextEnteredENST_10KeyPressedENST_11KeyReleasedENST_18MouseWheelScrolledENST_18MouseButtonPressedENST_19MouseButtonReleasedENST_10MouseMovedENST_13MouseMovedRawENST_12MouseEnteredENST_9MouseLeftENST_21JoystickButtonPressedENST_22JoystickButtonReleasedENST_13JoystickMovedENST_17JoystickConnectedENST_20JoystickDisconnectedENST_10TouchBeganENST_10TouchMovedENST_10TouchEndedENST_13SensorChangedEEEEEEEDcT_DpT0_', symObjAddr: 0xEF5C, symBinAddr: 0x1000121F8, symSize: 0x3C }
  - { offsetInCU: 0x40AD0, offset: 0x40AD0, size: 0x8, addend: 0x0, symName: '__ZNSt3__116__variant_detail12__visitation6__base12__dispatcherIJLm11EEE10__dispatchB8ue170006IONS1_9__variant15__value_visitorIRN2sf4priv11OverloadSetIJZ6drivervE3$_0ZNS8_10WindowBase12handleEventsIJRKSB_EEEvDpOT_EUlRKNS9_23DelayOverloadResolutionEE_EEEEEJRKNS0_6__baseILNS0_6_TraitE0EJNS8_5Event6ClosedENST_7ResizedENST_9FocusLostENST_11FocusGainedENST_11TextEnteredENST_10KeyPressedENST_11KeyReleasedENST_18MouseWheelScrolledENST_18MouseButtonPressedENST_19MouseButtonReleasedENST_10MouseMovedENST_13MouseMovedRawENST_12MouseEnteredENST_9MouseLeftENST_21JoystickButtonPressedENST_22JoystickButtonReleasedENST_13JoystickMovedENST_17JoystickConnectedENST_20JoystickDisconnectedENST_10TouchBeganENST_10TouchMovedENST_10TouchEndedENST_13SensorChangedEEEEEEEDcT_DpT0_', symObjAddr: 0xEF98, symBinAddr: 0x100012234, symSize: 0x3C }
  - { offsetInCU: 0x40B17, offset: 0x40B17, size: 0x8, addend: 0x0, symName: '__ZNSt3__116__variant_detail12__visitation6__base12__dispatcherIJLm12EEE10__dispatchB8ue170006IONS1_9__variant15__value_visitorIRN2sf4priv11OverloadSetIJZ6drivervE3$_0ZNS8_10WindowBase12handleEventsIJRKSB_EEEvDpOT_EUlRKNS9_23DelayOverloadResolutionEE_EEEEEJRKNS0_6__baseILNS0_6_TraitE0EJNS8_5Event6ClosedENST_7ResizedENST_9FocusLostENST_11FocusGainedENST_11TextEnteredENST_10KeyPressedENST_11KeyReleasedENST_18MouseWheelScrolledENST_18MouseButtonPressedENST_19MouseButtonReleasedENST_10MouseMovedENST_13MouseMovedRawENST_12MouseEnteredENST_9MouseLeftENST_21JoystickButtonPressedENST_22JoystickButtonReleasedENST_13JoystickMovedENST_17JoystickConnectedENST_20JoystickDisconnectedENST_10TouchBeganENST_10TouchMovedENST_10TouchEndedENST_13SensorChangedEEEEEEEDcT_DpT0_', symObjAddr: 0xEFD4, symBinAddr: 0x100012270, symSize: 0x3C }
  - { offsetInCU: 0x40B5E, offset: 0x40B5E, size: 0x8, addend: 0x0, symName: '__ZNSt3__116__variant_detail12__visitation6__base12__dispatcherIJLm13EEE10__dispatchB8ue170006IONS1_9__variant15__value_visitorIRN2sf4priv11OverloadSetIJZ6drivervE3$_0ZNS8_10WindowBase12handleEventsIJRKSB_EEEvDpOT_EUlRKNS9_23DelayOverloadResolutionEE_EEEEEJRKNS0_6__baseILNS0_6_TraitE0EJNS8_5Event6ClosedENST_7ResizedENST_9FocusLostENST_11FocusGainedENST_11TextEnteredENST_10KeyPressedENST_11KeyReleasedENST_18MouseWheelScrolledENST_18MouseButtonPressedENST_19MouseButtonReleasedENST_10MouseMovedENST_13MouseMovedRawENST_12MouseEnteredENST_9MouseLeftENST_21JoystickButtonPressedENST_22JoystickButtonReleasedENST_13JoystickMovedENST_17JoystickConnectedENST_20JoystickDisconnectedENST_10TouchBeganENST_10TouchMovedENST_10TouchEndedENST_13SensorChangedEEEEEEEDcT_DpT0_', symObjAddr: 0xF010, symBinAddr: 0x1000122AC, symSize: 0x3C }
  - { offsetInCU: 0x40BA5, offset: 0x40BA5, size: 0x8, addend: 0x0, symName: '__ZNSt3__116__variant_detail12__visitation6__base12__dispatcherIJLm14EEE10__dispatchB8ue170006IONS1_9__variant15__value_visitorIRN2sf4priv11OverloadSetIJZ6drivervE3$_0ZNS8_10WindowBase12handleEventsIJRKSB_EEEvDpOT_EUlRKNS9_23DelayOverloadResolutionEE_EEEEEJRKNS0_6__baseILNS0_6_TraitE0EJNS8_5Event6ClosedENST_7ResizedENST_9FocusLostENST_11FocusGainedENST_11TextEnteredENST_10KeyPressedENST_11KeyReleasedENST_18MouseWheelScrolledENST_18MouseButtonPressedENST_19MouseButtonReleasedENST_10MouseMovedENST_13MouseMovedRawENST_12MouseEnteredENST_9MouseLeftENST_21JoystickButtonPressedENST_22JoystickButtonReleasedENST_13JoystickMovedENST_17JoystickConnectedENST_20JoystickDisconnectedENST_10TouchBeganENST_10TouchMovedENST_10TouchEndedENST_13SensorChangedEEEEEEEDcT_DpT0_', symObjAddr: 0xF04C, symBinAddr: 0x1000122E8, symSize: 0x3C }
  - { offsetInCU: 0x40BEC, offset: 0x40BEC, size: 0x8, addend: 0x0, symName: '__ZNSt3__116__variant_detail12__visitation6__base12__dispatcherIJLm15EEE10__dispatchB8ue170006IONS1_9__variant15__value_visitorIRN2sf4priv11OverloadSetIJZ6drivervE3$_0ZNS8_10WindowBase12handleEventsIJRKSB_EEEvDpOT_EUlRKNS9_23DelayOverloadResolutionEE_EEEEEJRKNS0_6__baseILNS0_6_TraitE0EJNS8_5Event6ClosedENST_7ResizedENST_9FocusLostENST_11FocusGainedENST_11TextEnteredENST_10KeyPressedENST_11KeyReleasedENST_18MouseWheelScrolledENST_18MouseButtonPressedENST_19MouseButtonReleasedENST_10MouseMovedENST_13MouseMovedRawENST_12MouseEnteredENST_9MouseLeftENST_21JoystickButtonPressedENST_22JoystickButtonReleasedENST_13JoystickMovedENST_17JoystickConnectedENST_20JoystickDisconnectedENST_10TouchBeganENST_10TouchMovedENST_10TouchEndedENST_13SensorChangedEEEEEEEDcT_DpT0_', symObjAddr: 0xF088, symBinAddr: 0x100012324, symSize: 0x3C }
  - { offsetInCU: 0x40C33, offset: 0x40C33, size: 0x8, addend: 0x0, symName: '__ZNSt3__116__variant_detail12__visitation6__base12__dispatcherIJLm16EEE10__dispatchB8ue170006IONS1_9__variant15__value_visitorIRN2sf4priv11OverloadSetIJZ6drivervE3$_0ZNS8_10WindowBase12handleEventsIJRKSB_EEEvDpOT_EUlRKNS9_23DelayOverloadResolutionEE_EEEEEJRKNS0_6__baseILNS0_6_TraitE0EJNS8_5Event6ClosedENST_7ResizedENST_9FocusLostENST_11FocusGainedENST_11TextEnteredENST_10KeyPressedENST_11KeyReleasedENST_18MouseWheelScrolledENST_18MouseButtonPressedENST_19MouseButtonReleasedENST_10MouseMovedENST_13MouseMovedRawENST_12MouseEnteredENST_9MouseLeftENST_21JoystickButtonPressedENST_22JoystickButtonReleasedENST_13JoystickMovedENST_17JoystickConnectedENST_20JoystickDisconnectedENST_10TouchBeganENST_10TouchMovedENST_10TouchEndedENST_13SensorChangedEEEEEEEDcT_DpT0_', symObjAddr: 0xF0C4, symBinAddr: 0x100012360, symSize: 0x3C }
  - { offsetInCU: 0x40C7A, offset: 0x40C7A, size: 0x8, addend: 0x0, symName: '__ZNSt3__116__variant_detail12__visitation6__base12__dispatcherIJLm17EEE10__dispatchB8ue170006IONS1_9__variant15__value_visitorIRN2sf4priv11OverloadSetIJZ6drivervE3$_0ZNS8_10WindowBase12handleEventsIJRKSB_EEEvDpOT_EUlRKNS9_23DelayOverloadResolutionEE_EEEEEJRKNS0_6__baseILNS0_6_TraitE0EJNS8_5Event6ClosedENST_7ResizedENST_9FocusLostENST_11FocusGainedENST_11TextEnteredENST_10KeyPressedENST_11KeyReleasedENST_18MouseWheelScrolledENST_18MouseButtonPressedENST_19MouseButtonReleasedENST_10MouseMovedENST_13MouseMovedRawENST_12MouseEnteredENST_9MouseLeftENST_21JoystickButtonPressedENST_22JoystickButtonReleasedENST_13JoystickMovedENST_17JoystickConnectedENST_20JoystickDisconnectedENST_10TouchBeganENST_10TouchMovedENST_10TouchEndedENST_13SensorChangedEEEEEEEDcT_DpT0_', symObjAddr: 0xF100, symBinAddr: 0x10001239C, symSize: 0x3C }
  - { offsetInCU: 0x40CC1, offset: 0x40CC1, size: 0x8, addend: 0x0, symName: '__ZNSt3__116__variant_detail12__visitation6__base12__dispatcherIJLm18EEE10__dispatchB8ue170006IONS1_9__variant15__value_visitorIRN2sf4priv11OverloadSetIJZ6drivervE3$_0ZNS8_10WindowBase12handleEventsIJRKSB_EEEvDpOT_EUlRKNS9_23DelayOverloadResolutionEE_EEEEEJRKNS0_6__baseILNS0_6_TraitE0EJNS8_5Event6ClosedENST_7ResizedENST_9FocusLostENST_11FocusGainedENST_11TextEnteredENST_10KeyPressedENST_11KeyReleasedENST_18MouseWheelScrolledENST_18MouseButtonPressedENST_19MouseButtonReleasedENST_10MouseMovedENST_13MouseMovedRawENST_12MouseEnteredENST_9MouseLeftENST_21JoystickButtonPressedENST_22JoystickButtonReleasedENST_13JoystickMovedENST_17JoystickConnectedENST_20JoystickDisconnectedENST_10TouchBeganENST_10TouchMovedENST_10TouchEndedENST_13SensorChangedEEEEEEEDcT_DpT0_', symObjAddr: 0xF13C, symBinAddr: 0x1000123D8, symSize: 0x3C }
  - { offsetInCU: 0x40D08, offset: 0x40D08, size: 0x8, addend: 0x0, symName: '__ZNSt3__116__variant_detail12__visitation6__base12__dispatcherIJLm19EEE10__dispatchB8ue170006IONS1_9__variant15__value_visitorIRN2sf4priv11OverloadSetIJZ6drivervE3$_0ZNS8_10WindowBase12handleEventsIJRKSB_EEEvDpOT_EUlRKNS9_23DelayOverloadResolutionEE_EEEEEJRKNS0_6__baseILNS0_6_TraitE0EJNS8_5Event6ClosedENST_7ResizedENST_9FocusLostENST_11FocusGainedENST_11TextEnteredENST_10KeyPressedENST_11KeyReleasedENST_18MouseWheelScrolledENST_18MouseButtonPressedENST_19MouseButtonReleasedENST_10MouseMovedENST_13MouseMovedRawENST_12MouseEnteredENST_9MouseLeftENST_21JoystickButtonPressedENST_22JoystickButtonReleasedENST_13JoystickMovedENST_17JoystickConnectedENST_20JoystickDisconnectedENST_10TouchBeganENST_10TouchMovedENST_10TouchEndedENST_13SensorChangedEEEEEEEDcT_DpT0_', symObjAddr: 0xF178, symBinAddr: 0x100012414, symSize: 0x3C }
  - { offsetInCU: 0x40D4F, offset: 0x40D4F, size: 0x8, addend: 0x0, symName: '__ZNSt3__116__variant_detail12__visitation6__base12__dispatcherIJLm20EEE10__dispatchB8ue170006IONS1_9__variant15__value_visitorIRN2sf4priv11OverloadSetIJZ6drivervE3$_0ZNS8_10WindowBase12handleEventsIJRKSB_EEEvDpOT_EUlRKNS9_23DelayOverloadResolutionEE_EEEEEJRKNS0_6__baseILNS0_6_TraitE0EJNS8_5Event6ClosedENST_7ResizedENST_9FocusLostENST_11FocusGainedENST_11TextEnteredENST_10KeyPressedENST_11KeyReleasedENST_18MouseWheelScrolledENST_18MouseButtonPressedENST_19MouseButtonReleasedENST_10MouseMovedENST_13MouseMovedRawENST_12MouseEnteredENST_9MouseLeftENST_21JoystickButtonPressedENST_22JoystickButtonReleasedENST_13JoystickMovedENST_17JoystickConnectedENST_20JoystickDisconnectedENST_10TouchBeganENST_10TouchMovedENST_10TouchEndedENST_13SensorChangedEEEEEEEDcT_DpT0_', symObjAddr: 0xF1B4, symBinAddr: 0x100012450, symSize: 0x3C }
  - { offsetInCU: 0x40D96, offset: 0x40D96, size: 0x8, addend: 0x0, symName: '__ZNSt3__116__variant_detail12__visitation6__base12__dispatcherIJLm21EEE10__dispatchB8ue170006IONS1_9__variant15__value_visitorIRN2sf4priv11OverloadSetIJZ6drivervE3$_0ZNS8_10WindowBase12handleEventsIJRKSB_EEEvDpOT_EUlRKNS9_23DelayOverloadResolutionEE_EEEEEJRKNS0_6__baseILNS0_6_TraitE0EJNS8_5Event6ClosedENST_7ResizedENST_9FocusLostENST_11FocusGainedENST_11TextEnteredENST_10KeyPressedENST_11KeyReleasedENST_18MouseWheelScrolledENST_18MouseButtonPressedENST_19MouseButtonReleasedENST_10MouseMovedENST_13MouseMovedRawENST_12MouseEnteredENST_9MouseLeftENST_21JoystickButtonPressedENST_22JoystickButtonReleasedENST_13JoystickMovedENST_17JoystickConnectedENST_20JoystickDisconnectedENST_10TouchBeganENST_10TouchMovedENST_10TouchEndedENST_13SensorChangedEEEEEEEDcT_DpT0_', symObjAddr: 0xF1F0, symBinAddr: 0x10001248C, symSize: 0x3C }
  - { offsetInCU: 0x40DDD, offset: 0x40DDD, size: 0x8, addend: 0x0, symName: '__ZNSt3__116__variant_detail12__visitation6__base12__dispatcherIJLm22EEE10__dispatchB8ue170006IONS1_9__variant15__value_visitorIRN2sf4priv11OverloadSetIJZ6drivervE3$_0ZNS8_10WindowBase12handleEventsIJRKSB_EEEvDpOT_EUlRKNS9_23DelayOverloadResolutionEE_EEEEEJRKNS0_6__baseILNS0_6_TraitE0EJNS8_5Event6ClosedENST_7ResizedENST_9FocusLostENST_11FocusGainedENST_11TextEnteredENST_10KeyPressedENST_11KeyReleasedENST_18MouseWheelScrolledENST_18MouseButtonPressedENST_19MouseButtonReleasedENST_10MouseMovedENST_13MouseMovedRawENST_12MouseEnteredENST_9MouseLeftENST_21JoystickButtonPressedENST_22JoystickButtonReleasedENST_13JoystickMovedENST_17JoystickConnectedENST_20JoystickDisconnectedENST_10TouchBeganENST_10TouchMovedENST_10TouchEndedENST_13SensorChangedEEEEEEEDcT_DpT0_', symObjAddr: 0xF22C, symBinAddr: 0x1000124C8, symSize: 0x3C }
  - { offsetInCU: 0x40E5F, offset: 0x40E5F, size: 0x8, addend: 0x0, symName: '__ZNSt3__116__variant_detail12__visitation6__base4__atB8ue170006IPFvONS1_9__variant15__value_visitorIRN2sf4priv11OverloadSetIJZ6drivervE3$_0ZNS6_10WindowBase12handleEventsIJRKS9_EEEvDpOT_EUlRKNS7_23DelayOverloadResolutionEE_EEEEERKNS0_6__baseILNS0_6_TraitE0EJNS6_5Event6ClosedENSR_7ResizedENSR_9FocusLostENSR_11FocusGainedENSR_11TextEnteredENSR_10KeyPressedENSR_11KeyReleasedENSR_18MouseWheelScrolledENSR_18MouseButtonPressedENSR_19MouseButtonReleasedENSR_10MouseMovedENSR_13MouseMovedRawENSR_12MouseEnteredENSR_9MouseLeftENSR_21JoystickButtonPressedENSR_22JoystickButtonReleasedENSR_13JoystickMovedENSR_17JoystickConnectedENSR_20JoystickDisconnectedENSR_10TouchBeganENSR_10TouchMovedENSR_10TouchEndedENSR_13SensorChangedEEEEELm23EJEEEODaRKNS_8__farrayIT_XT0_EEEmDpT1_', symObjAddr: 0xF268, symBinAddr: 0x100012504, symSize: 0x30 }
  - { offsetInCU: 0x40EAA, offset: 0x40EAA, size: 0x8, addend: 0x0, symName: __ZNKRSt3__116__variant_detail6__baseILNS0_6_TraitE0EJN2sf5Event6ClosedENS4_7ResizedENS4_9FocusLostENS4_11FocusGainedENS4_11TextEnteredENS4_10KeyPressedENS4_11KeyReleasedENS4_18MouseWheelScrolledENS4_18MouseButtonPressedENS4_19MouseButtonReleasedENS4_10MouseMovedENS4_13MouseMovedRawENS4_12MouseEnteredENS4_9MouseLeftENS4_21JoystickButtonPressedENS4_22JoystickButtonReleasedENS4_13JoystickMovedENS4_17JoystickConnectedENS4_20JoystickDisconnectedENS4_10TouchBeganENS4_10TouchMovedENS4_10TouchEndedENS4_13SensorChangedEEE9__as_baseB8ue170006Ev, symObjAddr: 0xF298, symBinAddr: 0x100012534, symSize: 0x14 }
  - { offsetInCU: 0x40EDB, offset: 0x40EDB, size: 0x8, addend: 0x0, symName: __ZNSt3__116__variant_detail8__access6__base9__get_altB8ue170006ILm0ERKNS0_6__baseILNS0_6_TraitE0EJN2sf5Event6ClosedENS7_7ResizedENS7_9FocusLostENS7_11FocusGainedENS7_11TextEnteredENS7_10KeyPressedENS7_11KeyReleasedENS7_18MouseWheelScrolledENS7_18MouseButtonPressedENS7_19MouseButtonReleasedENS7_10MouseMovedENS7_13MouseMovedRawENS7_12MouseEnteredENS7_9MouseLeftENS7_21JoystickButtonPressedENS7_22JoystickButtonReleasedENS7_13JoystickMovedENS7_17JoystickConnectedENS7_20JoystickDisconnectedENS7_10TouchBeganENS7_10TouchMovedENS7_10TouchEndedENS7_13SensorChangedEEEEEEODaOT0_, symObjAddr: 0xF2D8, symBinAddr: 0x100012574, symSize: 0x24 }
  - { offsetInCU: 0x40F1C, offset: 0x40F1C, size: 0x8, addend: 0x0, symName: '__ZNKSt3__116__variant_detail12__visitation9__variant15__value_visitorIRN2sf4priv11OverloadSetIJZ6drivervE3$_0ZNS4_10WindowBase12handleEventsIJRKS7_EEEvDpOT_EUlRKNS5_23DelayOverloadResolutionEE_EEEEclB8ue170006IJRKNS0_5__altILm0ENS4_5Event6ClosedEEEEEEDcSE_', symObjAddr: 0xF2FC, symBinAddr: 0x100012598, symSize: 0x3C }
  - { offsetInCU: 0x40F67, offset: 0x40F67, size: 0x8, addend: 0x0, symName: '__ZNSt3__116__variant_detail12__visitation9__variant36__std_visit_exhaustive_visitor_checkB8ue170006IRN2sf4priv11OverloadSetIJZ6drivervE3$_0ZNS4_10WindowBase12handleEventsIJRKS7_EEEvDpOT_EUlRKNS5_23DelayOverloadResolutionEE_EEEJRKNS4_5Event6ClosedEEEEvv', symObjAddr: 0xF338, symBinAddr: 0x1000125D4, symSize: 0x4 }
  - { offsetInCU: 0x40F95, offset: 0x40F95, size: 0x8, addend: 0x0, symName: '__ZZ6drivervENK3$_0clERKN2sf5Event6ClosedE', symObjAddr: 0xF368, symBinAddr: 0x100012604, symSize: 0x2C }
  - { offsetInCU: 0x40FCA, offset: 0x40FCA, size: 0x8, addend: 0x0, symName: __ZNSt3__116__variant_detail8__access7__union9__get_altB8ue170006IRKNS0_7__unionILNS0_6_TraitE0ELm0EJN2sf5Event6ClosedENS7_7ResizedENS7_9FocusLostENS7_11FocusGainedENS7_11TextEnteredENS7_10KeyPressedENS7_11KeyReleasedENS7_18MouseWheelScrolledENS7_18MouseButtonPressedENS7_19MouseButtonReleasedENS7_10MouseMovedENS7_13MouseMovedRawENS7_12MouseEnteredENS7_9MouseLeftENS7_21JoystickButtonPressedENS7_22JoystickButtonReleasedENS7_13JoystickMovedENS7_17JoystickConnectedENS7_20JoystickDisconnectedENS7_10TouchBeganENS7_10TouchMovedENS7_10TouchEndedENS7_13SensorChangedEEEEEEODaOT_NS_16in_place_index_tILm0EEE, symObjAddr: 0xF394, symBinAddr: 0x100012630, symSize: 0x14 }
  - { offsetInCU: 0x4100E, offset: 0x4100E, size: 0x8, addend: 0x0, symName: __ZNSt3__116__variant_detail8__access6__base9__get_altB8ue170006ILm1ERKNS0_6__baseILNS0_6_TraitE0EJN2sf5Event6ClosedENS7_7ResizedENS7_9FocusLostENS7_11FocusGainedENS7_11TextEnteredENS7_10KeyPressedENS7_11KeyReleasedENS7_18MouseWheelScrolledENS7_18MouseButtonPressedENS7_19MouseButtonReleasedENS7_10MouseMovedENS7_13MouseMovedRawENS7_12MouseEnteredENS7_9MouseLeftENS7_21JoystickButtonPressedENS7_22JoystickButtonReleasedENS7_13JoystickMovedENS7_17JoystickConnectedENS7_20JoystickDisconnectedENS7_10TouchBeganENS7_10TouchMovedENS7_10TouchEndedENS7_13SensorChangedEEEEEEODaOT0_, symObjAddr: 0xF3D4, symBinAddr: 0x100012670, symSize: 0x24 }
  - { offsetInCU: 0x41045, offset: 0x41045, size: 0x8, addend: 0x0, symName: '__ZNKSt3__116__variant_detail12__visitation9__variant15__value_visitorIRN2sf4priv11OverloadSetIJZ6drivervE3$_0ZNS4_10WindowBase12handleEventsIJRKS7_EEEvDpOT_EUlRKNS5_23DelayOverloadResolutionEE_EEEEclB8ue170006IJRKNS0_5__altILm1ENS4_5Event7ResizedEEEEEEDcSE_', symObjAddr: 0xF3F8, symBinAddr: 0x100012694, symSize: 0x3C }
  - { offsetInCU: 0x41090, offset: 0x41090, size: 0x8, addend: 0x0, symName: '__ZNSt3__116__variant_detail12__visitation9__variant36__std_visit_exhaustive_visitor_checkB8ue170006IRN2sf4priv11OverloadSetIJZ6drivervE3$_0ZNS4_10WindowBase12handleEventsIJRKS7_EEEvDpOT_EUlRKNS5_23DelayOverloadResolutionEE_EEEJRKNS4_5Event7ResizedEEEEvv', symObjAddr: 0xF434, symBinAddr: 0x1000126D0, symSize: 0x4 }
  - { offsetInCU: 0x410CE, offset: 0x410CE, size: 0x8, addend: 0x0, symName: '__ZZN2sf10WindowBase12handleEventsIJRKZ6drivervE3$_0EEEvDpOT_ENKUlRKNS_4priv23DelayOverloadResolutionEE_clESB_', symObjAddr: 0xF47C, symBinAddr: 0x100012718, symSize: 0x14 }
  - { offsetInCU: 0x41108, offset: 0x41108, size: 0x8, addend: 0x0, symName: __ZN2sf4priv23DelayOverloadResolutionC1INS_5Event7ResizedEEERKT_, symObjAddr: 0xF490, symBinAddr: 0x10001272C, symSize: 0x34 }
  - { offsetInCU: 0x41146, offset: 0x41146, size: 0x8, addend: 0x0, symName: __ZN2sf4priv23DelayOverloadResolutionC2INS_5Event7ResizedEEERKT_, symObjAddr: 0xF4C4, symBinAddr: 0x100012760, symSize: 0x18 }
  - { offsetInCU: 0x41184, offset: 0x41184, size: 0x8, addend: 0x0, symName: __ZNSt3__116__variant_detail8__access7__union9__get_altB8ue170006IRKNS0_7__unionILNS0_6_TraitE0ELm0EJN2sf5Event6ClosedENS7_7ResizedENS7_9FocusLostENS7_11FocusGainedENS7_11TextEnteredENS7_10KeyPressedENS7_11KeyReleasedENS7_18MouseWheelScrolledENS7_18MouseButtonPressedENS7_19MouseButtonReleasedENS7_10MouseMovedENS7_13MouseMovedRawENS7_12MouseEnteredENS7_9MouseLeftENS7_21JoystickButtonPressedENS7_22JoystickButtonReleasedENS7_13JoystickMovedENS7_17JoystickConnectedENS7_20JoystickDisconnectedENS7_10TouchBeganENS7_10TouchMovedENS7_10TouchEndedENS7_13SensorChangedEEEELm1EEEODaOT_NS_16in_place_index_tIXT0_EEE, symObjAddr: 0xF4DC, symBinAddr: 0x100012778, symSize: 0x24 }
  - { offsetInCU: 0x411C7, offset: 0x411C7, size: 0x8, addend: 0x0, symName: __ZNSt3__116__variant_detail8__access7__union9__get_altB8ue170006IRKNS0_7__unionILNS0_6_TraitE0ELm1EJN2sf5Event7ResizedENS7_9FocusLostENS7_11FocusGainedENS7_11TextEnteredENS7_10KeyPressedENS7_11KeyReleasedENS7_18MouseWheelScrolledENS7_18MouseButtonPressedENS7_19MouseButtonReleasedENS7_10MouseMovedENS7_13MouseMovedRawENS7_12MouseEnteredENS7_9MouseLeftENS7_21JoystickButtonPressedENS7_22JoystickButtonReleasedENS7_13JoystickMovedENS7_17JoystickConnectedENS7_20JoystickDisconnectedENS7_10TouchBeganENS7_10TouchMovedENS7_10TouchEndedENS7_13SensorChangedEEEEEEODaOT_NS_16in_place_index_tILm0EEE, symObjAddr: 0xF500, symBinAddr: 0x10001279C, symSize: 0x14 }
  - { offsetInCU: 0x4120B, offset: 0x4120B, size: 0x8, addend: 0x0, symName: __ZNSt3__116__variant_detail8__access6__base9__get_altB8ue170006ILm2ERKNS0_6__baseILNS0_6_TraitE0EJN2sf5Event6ClosedENS7_7ResizedENS7_9FocusLostENS7_11FocusGainedENS7_11TextEnteredENS7_10KeyPressedENS7_11KeyReleasedENS7_18MouseWheelScrolledENS7_18MouseButtonPressedENS7_19MouseButtonReleasedENS7_10MouseMovedENS7_13MouseMovedRawENS7_12MouseEnteredENS7_9MouseLeftENS7_21JoystickButtonPressedENS7_22JoystickButtonReleasedENS7_13JoystickMovedENS7_17JoystickConnectedENS7_20JoystickDisconnectedENS7_10TouchBeganENS7_10TouchMovedENS7_10TouchEndedENS7_13SensorChangedEEEEEEODaOT0_, symObjAddr: 0xF540, symBinAddr: 0x1000127DC, symSize: 0x24 }
  - { offsetInCU: 0x41242, offset: 0x41242, size: 0x8, addend: 0x0, symName: '__ZNKSt3__116__variant_detail12__visitation9__variant15__value_visitorIRN2sf4priv11OverloadSetIJZ6drivervE3$_0ZNS4_10WindowBase12handleEventsIJRKS7_EEEvDpOT_EUlRKNS5_23DelayOverloadResolutionEE_EEEEclB8ue170006IJRKNS0_5__altILm2ENS4_5Event9FocusLostEEEEEEDcSE_', symObjAddr: 0xF564, symBinAddr: 0x100012800, symSize: 0x3C }
  - { offsetInCU: 0x4128D, offset: 0x4128D, size: 0x8, addend: 0x0, symName: '__ZNSt3__116__variant_detail12__visitation9__variant36__std_visit_exhaustive_visitor_checkB8ue170006IRN2sf4priv11OverloadSetIJZ6drivervE3$_0ZNS4_10WindowBase12handleEventsIJRKS7_EEEvDpOT_EUlRKNS5_23DelayOverloadResolutionEE_EEEJRKNS4_5Event9FocusLostEEEEvv', symObjAddr: 0xF5A0, symBinAddr: 0x10001283C, symSize: 0x4 }
  - { offsetInCU: 0x412B6, offset: 0x412B6, size: 0x8, addend: 0x0, symName: __ZN2sf4priv23DelayOverloadResolutionC1INS_5Event9FocusLostEEERKT_, symObjAddr: 0xF5E8, symBinAddr: 0x100012884, symSize: 0x34 }
  - { offsetInCU: 0x412F4, offset: 0x412F4, size: 0x8, addend: 0x0, symName: __ZN2sf4priv23DelayOverloadResolutionC2INS_5Event9FocusLostEEERKT_, symObjAddr: 0xF61C, symBinAddr: 0x1000128B8, symSize: 0x18 }
  - { offsetInCU: 0x41332, offset: 0x41332, size: 0x8, addend: 0x0, symName: __ZNSt3__116__variant_detail8__access7__union9__get_altB8ue170006IRKNS0_7__unionILNS0_6_TraitE0ELm0EJN2sf5Event6ClosedENS7_7ResizedENS7_9FocusLostENS7_11FocusGainedENS7_11TextEnteredENS7_10KeyPressedENS7_11KeyReleasedENS7_18MouseWheelScrolledENS7_18MouseButtonPressedENS7_19MouseButtonReleasedENS7_10MouseMovedENS7_13MouseMovedRawENS7_12MouseEnteredENS7_9MouseLeftENS7_21JoystickButtonPressedENS7_22JoystickButtonReleasedENS7_13JoystickMovedENS7_17JoystickConnectedENS7_20JoystickDisconnectedENS7_10TouchBeganENS7_10TouchMovedENS7_10TouchEndedENS7_13SensorChangedEEEELm2EEEODaOT_NS_16in_place_index_tIXT0_EEE, symObjAddr: 0xF634, symBinAddr: 0x1000128D0, symSize: 0x24 }
  - { offsetInCU: 0x41375, offset: 0x41375, size: 0x8, addend: 0x0, symName: __ZNSt3__116__variant_detail8__access7__union9__get_altB8ue170006IRKNS0_7__unionILNS0_6_TraitE0ELm1EJN2sf5Event7ResizedENS7_9FocusLostENS7_11FocusGainedENS7_11TextEnteredENS7_10KeyPressedENS7_11KeyReleasedENS7_18MouseWheelScrolledENS7_18MouseButtonPressedENS7_19MouseButtonReleasedENS7_10MouseMovedENS7_13MouseMovedRawENS7_12MouseEnteredENS7_9MouseLeftENS7_21JoystickButtonPressedENS7_22JoystickButtonReleasedENS7_13JoystickMovedENS7_17JoystickConnectedENS7_20JoystickDisconnectedENS7_10TouchBeganENS7_10TouchMovedENS7_10TouchEndedENS7_13SensorChangedEEEELm1EEEODaOT_NS_16in_place_index_tIXT0_EEE, symObjAddr: 0xF658, symBinAddr: 0x1000128F4, symSize: 0x24 }
  - { offsetInCU: 0x413B8, offset: 0x413B8, size: 0x8, addend: 0x0, symName: __ZNSt3__116__variant_detail8__access7__union9__get_altB8ue170006IRKNS0_7__unionILNS0_6_TraitE0ELm2EJN2sf5Event9FocusLostENS7_11FocusGainedENS7_11TextEnteredENS7_10KeyPressedENS7_11KeyReleasedENS7_18MouseWheelScrolledENS7_18MouseButtonPressedENS7_19MouseButtonReleasedENS7_10MouseMovedENS7_13MouseMovedRawENS7_12MouseEnteredENS7_9MouseLeftENS7_21JoystickButtonPressedENS7_22JoystickButtonReleasedENS7_13JoystickMovedENS7_17JoystickConnectedENS7_20JoystickDisconnectedENS7_10TouchBeganENS7_10TouchMovedENS7_10TouchEndedENS7_13SensorChangedEEEEEEODaOT_NS_16in_place_index_tILm0EEE, symObjAddr: 0xF67C, symBinAddr: 0x100012918, symSize: 0x14 }
  - { offsetInCU: 0x413FC, offset: 0x413FC, size: 0x8, addend: 0x0, symName: __ZNSt3__116__variant_detail8__access6__base9__get_altB8ue170006ILm3ERKNS0_6__baseILNS0_6_TraitE0EJN2sf5Event6ClosedENS7_7ResizedENS7_9FocusLostENS7_11FocusGainedENS7_11TextEnteredENS7_10KeyPressedENS7_11KeyReleasedENS7_18MouseWheelScrolledENS7_18MouseButtonPressedENS7_19MouseButtonReleasedENS7_10MouseMovedENS7_13MouseMovedRawENS7_12MouseEnteredENS7_9MouseLeftENS7_21JoystickButtonPressedENS7_22JoystickButtonReleasedENS7_13JoystickMovedENS7_17JoystickConnectedENS7_20JoystickDisconnectedENS7_10TouchBeganENS7_10TouchMovedENS7_10TouchEndedENS7_13SensorChangedEEEEEEODaOT0_, symObjAddr: 0xF6BC, symBinAddr: 0x100012958, symSize: 0x24 }
  - { offsetInCU: 0x41433, offset: 0x41433, size: 0x8, addend: 0x0, symName: '__ZNKSt3__116__variant_detail12__visitation9__variant15__value_visitorIRN2sf4priv11OverloadSetIJZ6drivervE3$_0ZNS4_10WindowBase12handleEventsIJRKS7_EEEvDpOT_EUlRKNS5_23DelayOverloadResolutionEE_EEEEclB8ue170006IJRKNS0_5__altILm3ENS4_5Event11FocusGainedEEEEEEDcSE_', symObjAddr: 0xF6E0, symBinAddr: 0x10001297C, symSize: 0x3C }
  - { offsetInCU: 0x4147E, offset: 0x4147E, size: 0x8, addend: 0x0, symName: '__ZNSt3__116__variant_detail12__visitation9__variant36__std_visit_exhaustive_visitor_checkB8ue170006IRN2sf4priv11OverloadSetIJZ6drivervE3$_0ZNS4_10WindowBase12handleEventsIJRKS7_EEEvDpOT_EUlRKNS5_23DelayOverloadResolutionEE_EEEJRKNS4_5Event11FocusGainedEEEEvv', symObjAddr: 0xF71C, symBinAddr: 0x1000129B8, symSize: 0x4 }
  - { offsetInCU: 0x414A7, offset: 0x414A7, size: 0x8, addend: 0x0, symName: __ZN2sf4priv23DelayOverloadResolutionC1INS_5Event11FocusGainedEEERKT_, symObjAddr: 0xF764, symBinAddr: 0x100012A00, symSize: 0x34 }
  - { offsetInCU: 0x414E5, offset: 0x414E5, size: 0x8, addend: 0x0, symName: __ZN2sf4priv23DelayOverloadResolutionC2INS_5Event11FocusGainedEEERKT_, symObjAddr: 0xF798, symBinAddr: 0x100012A34, symSize: 0x18 }
  - { offsetInCU: 0x41523, offset: 0x41523, size: 0x8, addend: 0x0, symName: __ZNSt3__116__variant_detail8__access7__union9__get_altB8ue170006IRKNS0_7__unionILNS0_6_TraitE0ELm0EJN2sf5Event6ClosedENS7_7ResizedENS7_9FocusLostENS7_11FocusGainedENS7_11TextEnteredENS7_10KeyPressedENS7_11KeyReleasedENS7_18MouseWheelScrolledENS7_18MouseButtonPressedENS7_19MouseButtonReleasedENS7_10MouseMovedENS7_13MouseMovedRawENS7_12MouseEnteredENS7_9MouseLeftENS7_21JoystickButtonPressedENS7_22JoystickButtonReleasedENS7_13JoystickMovedENS7_17JoystickConnectedENS7_20JoystickDisconnectedENS7_10TouchBeganENS7_10TouchMovedENS7_10TouchEndedENS7_13SensorChangedEEEELm3EEEODaOT_NS_16in_place_index_tIXT0_EEE, symObjAddr: 0xF7B0, symBinAddr: 0x100012A4C, symSize: 0x24 }
  - { offsetInCU: 0x41566, offset: 0x41566, size: 0x8, addend: 0x0, symName: __ZNSt3__116__variant_detail8__access7__union9__get_altB8ue170006IRKNS0_7__unionILNS0_6_TraitE0ELm1EJN2sf5Event7ResizedENS7_9FocusLostENS7_11FocusGainedENS7_11TextEnteredENS7_10KeyPressedENS7_11KeyReleasedENS7_18MouseWheelScrolledENS7_18MouseButtonPressedENS7_19MouseButtonReleasedENS7_10MouseMovedENS7_13MouseMovedRawENS7_12MouseEnteredENS7_9MouseLeftENS7_21JoystickButtonPressedENS7_22JoystickButtonReleasedENS7_13JoystickMovedENS7_17JoystickConnectedENS7_20JoystickDisconnectedENS7_10TouchBeganENS7_10TouchMovedENS7_10TouchEndedENS7_13SensorChangedEEEELm2EEEODaOT_NS_16in_place_index_tIXT0_EEE, symObjAddr: 0xF7D4, symBinAddr: 0x100012A70, symSize: 0x24 }
  - { offsetInCU: 0x415A9, offset: 0x415A9, size: 0x8, addend: 0x0, symName: __ZNSt3__116__variant_detail8__access7__union9__get_altB8ue170006IRKNS0_7__unionILNS0_6_TraitE0ELm2EJN2sf5Event9FocusLostENS7_11FocusGainedENS7_11TextEnteredENS7_10KeyPressedENS7_11KeyReleasedENS7_18MouseWheelScrolledENS7_18MouseButtonPressedENS7_19MouseButtonReleasedENS7_10MouseMovedENS7_13MouseMovedRawENS7_12MouseEnteredENS7_9MouseLeftENS7_21JoystickButtonPressedENS7_22JoystickButtonReleasedENS7_13JoystickMovedENS7_17JoystickConnectedENS7_20JoystickDisconnectedENS7_10TouchBeganENS7_10TouchMovedENS7_10TouchEndedENS7_13SensorChangedEEEELm1EEEODaOT_NS_16in_place_index_tIXT0_EEE, symObjAddr: 0xF7F8, symBinAddr: 0x100012A94, symSize: 0x24 }
  - { offsetInCU: 0x415EC, offset: 0x415EC, size: 0x8, addend: 0x0, symName: __ZNSt3__116__variant_detail8__access7__union9__get_altB8ue170006IRKNS0_7__unionILNS0_6_TraitE0ELm3EJN2sf5Event11FocusGainedENS7_11TextEnteredENS7_10KeyPressedENS7_11KeyReleasedENS7_18MouseWheelScrolledENS7_18MouseButtonPressedENS7_19MouseButtonReleasedENS7_10MouseMovedENS7_13MouseMovedRawENS7_12MouseEnteredENS7_9MouseLeftENS7_21JoystickButtonPressedENS7_22JoystickButtonReleasedENS7_13JoystickMovedENS7_17JoystickConnectedENS7_20JoystickDisconnectedENS7_10TouchBeganENS7_10TouchMovedENS7_10TouchEndedENS7_13SensorChangedEEEEEEODaOT_NS_16in_place_index_tILm0EEE, symObjAddr: 0xF81C, symBinAddr: 0x100012AB8, symSize: 0x14 }
  - { offsetInCU: 0x41630, offset: 0x41630, size: 0x8, addend: 0x0, symName: __ZNSt3__116__variant_detail8__access6__base9__get_altB8ue170006ILm4ERKNS0_6__baseILNS0_6_TraitE0EJN2sf5Event6ClosedENS7_7ResizedENS7_9FocusLostENS7_11FocusGainedENS7_11TextEnteredENS7_10KeyPressedENS7_11KeyReleasedENS7_18MouseWheelScrolledENS7_18MouseButtonPressedENS7_19MouseButtonReleasedENS7_10MouseMovedENS7_13MouseMovedRawENS7_12MouseEnteredENS7_9MouseLeftENS7_21JoystickButtonPressedENS7_22JoystickButtonReleasedENS7_13JoystickMovedENS7_17JoystickConnectedENS7_20JoystickDisconnectedENS7_10TouchBeganENS7_10TouchMovedENS7_10TouchEndedENS7_13SensorChangedEEEEEEODaOT0_, symObjAddr: 0xF85C, symBinAddr: 0x100012AF8, symSize: 0x24 }
  - { offsetInCU: 0x41667, offset: 0x41667, size: 0x8, addend: 0x0, symName: '__ZNKSt3__116__variant_detail12__visitation9__variant15__value_visitorIRN2sf4priv11OverloadSetIJZ6drivervE3$_0ZNS4_10WindowBase12handleEventsIJRKS7_EEEvDpOT_EUlRKNS5_23DelayOverloadResolutionEE_EEEEclB8ue170006IJRKNS0_5__altILm4ENS4_5Event11TextEnteredEEEEEEDcSE_', symObjAddr: 0xF880, symBinAddr: 0x100012B1C, symSize: 0x3C }
  - { offsetInCU: 0x416B2, offset: 0x416B2, size: 0x8, addend: 0x0, symName: '__ZNSt3__116__variant_detail12__visitation9__variant36__std_visit_exhaustive_visitor_checkB8ue170006IRN2sf4priv11OverloadSetIJZ6drivervE3$_0ZNS4_10WindowBase12handleEventsIJRKS7_EEEvDpOT_EUlRKNS5_23DelayOverloadResolutionEE_EEEJRKNS4_5Event11TextEnteredEEEEvv', symObjAddr: 0xF8BC, symBinAddr: 0x100012B58, symSize: 0x4 }
  - { offsetInCU: 0x416DB, offset: 0x416DB, size: 0x8, addend: 0x0, symName: __ZN2sf4priv23DelayOverloadResolutionC1INS_5Event11TextEnteredEEERKT_, symObjAddr: 0xF904, symBinAddr: 0x100012BA0, symSize: 0x34 }
  - { offsetInCU: 0x41719, offset: 0x41719, size: 0x8, addend: 0x0, symName: __ZN2sf4priv23DelayOverloadResolutionC2INS_5Event11TextEnteredEEERKT_, symObjAddr: 0xF938, symBinAddr: 0x100012BD4, symSize: 0x18 }
  - { offsetInCU: 0x41757, offset: 0x41757, size: 0x8, addend: 0x0, symName: __ZNSt3__116__variant_detail8__access7__union9__get_altB8ue170006IRKNS0_7__unionILNS0_6_TraitE0ELm0EJN2sf5Event6ClosedENS7_7ResizedENS7_9FocusLostENS7_11FocusGainedENS7_11TextEnteredENS7_10KeyPressedENS7_11KeyReleasedENS7_18MouseWheelScrolledENS7_18MouseButtonPressedENS7_19MouseButtonReleasedENS7_10MouseMovedENS7_13MouseMovedRawENS7_12MouseEnteredENS7_9MouseLeftENS7_21JoystickButtonPressedENS7_22JoystickButtonReleasedENS7_13JoystickMovedENS7_17JoystickConnectedENS7_20JoystickDisconnectedENS7_10TouchBeganENS7_10TouchMovedENS7_10TouchEndedENS7_13SensorChangedEEEELm4EEEODaOT_NS_16in_place_index_tIXT0_EEE, symObjAddr: 0xF950, symBinAddr: 0x100012BEC, symSize: 0x24 }
  - { offsetInCU: 0x4179A, offset: 0x4179A, size: 0x8, addend: 0x0, symName: __ZNSt3__116__variant_detail8__access7__union9__get_altB8ue170006IRKNS0_7__unionILNS0_6_TraitE0ELm1EJN2sf5Event7ResizedENS7_9FocusLostENS7_11FocusGainedENS7_11TextEnteredENS7_10KeyPressedENS7_11KeyReleasedENS7_18MouseWheelScrolledENS7_18MouseButtonPressedENS7_19MouseButtonReleasedENS7_10MouseMovedENS7_13MouseMovedRawENS7_12MouseEnteredENS7_9MouseLeftENS7_21JoystickButtonPressedENS7_22JoystickButtonReleasedENS7_13JoystickMovedENS7_17JoystickConnectedENS7_20JoystickDisconnectedENS7_10TouchBeganENS7_10TouchMovedENS7_10TouchEndedENS7_13SensorChangedEEEELm3EEEODaOT_NS_16in_place_index_tIXT0_EEE, symObjAddr: 0xF974, symBinAddr: 0x100012C10, symSize: 0x24 }
  - { offsetInCU: 0x417DD, offset: 0x417DD, size: 0x8, addend: 0x0, symName: __ZNSt3__116__variant_detail8__access7__union9__get_altB8ue170006IRKNS0_7__unionILNS0_6_TraitE0ELm2EJN2sf5Event9FocusLostENS7_11FocusGainedENS7_11TextEnteredENS7_10KeyPressedENS7_11KeyReleasedENS7_18MouseWheelScrolledENS7_18MouseButtonPressedENS7_19MouseButtonReleasedENS7_10MouseMovedENS7_13MouseMovedRawENS7_12MouseEnteredENS7_9MouseLeftENS7_21JoystickButtonPressedENS7_22JoystickButtonReleasedENS7_13JoystickMovedENS7_17JoystickConnectedENS7_20JoystickDisconnectedENS7_10TouchBeganENS7_10TouchMovedENS7_10TouchEndedENS7_13SensorChangedEEEELm2EEEODaOT_NS_16in_place_index_tIXT0_EEE, symObjAddr: 0xF998, symBinAddr: 0x100012C34, symSize: 0x24 }
  - { offsetInCU: 0x41820, offset: 0x41820, size: 0x8, addend: 0x0, symName: __ZNSt3__116__variant_detail8__access7__union9__get_altB8ue170006IRKNS0_7__unionILNS0_6_TraitE0ELm3EJN2sf5Event11FocusGainedENS7_11TextEnteredENS7_10KeyPressedENS7_11KeyReleasedENS7_18MouseWheelScrolledENS7_18MouseButtonPressedENS7_19MouseButtonReleasedENS7_10MouseMovedENS7_13MouseMovedRawENS7_12MouseEnteredENS7_9MouseLeftENS7_21JoystickButtonPressedENS7_22JoystickButtonReleasedENS7_13JoystickMovedENS7_17JoystickConnectedENS7_20JoystickDisconnectedENS7_10TouchBeganENS7_10TouchMovedENS7_10TouchEndedENS7_13SensorChangedEEEELm1EEEODaOT_NS_16in_place_index_tIXT0_EEE, symObjAddr: 0xF9BC, symBinAddr: 0x100012C58, symSize: 0x24 }
  - { offsetInCU: 0x41863, offset: 0x41863, size: 0x8, addend: 0x0, symName: __ZNSt3__116__variant_detail8__access7__union9__get_altB8ue170006IRKNS0_7__unionILNS0_6_TraitE0ELm4EJN2sf5Event11TextEnteredENS7_10KeyPressedENS7_11KeyReleasedENS7_18MouseWheelScrolledENS7_18MouseButtonPressedENS7_19MouseButtonReleasedENS7_10MouseMovedENS7_13MouseMovedRawENS7_12MouseEnteredENS7_9MouseLeftENS7_21JoystickButtonPressedENS7_22JoystickButtonReleasedENS7_13JoystickMovedENS7_17JoystickConnectedENS7_20JoystickDisconnectedENS7_10TouchBeganENS7_10TouchMovedENS7_10TouchEndedENS7_13SensorChangedEEEEEEODaOT_NS_16in_place_index_tILm0EEE, symObjAddr: 0xF9E0, symBinAddr: 0x100012C7C, symSize: 0x14 }
  - { offsetInCU: 0x418A7, offset: 0x418A7, size: 0x8, addend: 0x0, symName: __ZNSt3__116__variant_detail8__access6__base9__get_altB8ue170006ILm5ERKNS0_6__baseILNS0_6_TraitE0EJN2sf5Event6ClosedENS7_7ResizedENS7_9FocusLostENS7_11FocusGainedENS7_11TextEnteredENS7_10KeyPressedENS7_11KeyReleasedENS7_18MouseWheelScrolledENS7_18MouseButtonPressedENS7_19MouseButtonReleasedENS7_10MouseMovedENS7_13MouseMovedRawENS7_12MouseEnteredENS7_9MouseLeftENS7_21JoystickButtonPressedENS7_22JoystickButtonReleasedENS7_13JoystickMovedENS7_17JoystickConnectedENS7_20JoystickDisconnectedENS7_10TouchBeganENS7_10TouchMovedENS7_10TouchEndedENS7_13SensorChangedEEEEEEODaOT0_, symObjAddr: 0xFA20, symBinAddr: 0x100012CBC, symSize: 0x24 }
  - { offsetInCU: 0x418DE, offset: 0x418DE, size: 0x8, addend: 0x0, symName: '__ZNKSt3__116__variant_detail12__visitation9__variant15__value_visitorIRN2sf4priv11OverloadSetIJZ6drivervE3$_0ZNS4_10WindowBase12handleEventsIJRKS7_EEEvDpOT_EUlRKNS5_23DelayOverloadResolutionEE_EEEEclB8ue170006IJRKNS0_5__altILm5ENS4_5Event10KeyPressedEEEEEEDcSE_', symObjAddr: 0xFA44, symBinAddr: 0x100012CE0, symSize: 0x3C }
  - { offsetInCU: 0x41929, offset: 0x41929, size: 0x8, addend: 0x0, symName: '__ZNSt3__116__variant_detail12__visitation9__variant36__std_visit_exhaustive_visitor_checkB8ue170006IRN2sf4priv11OverloadSetIJZ6drivervE3$_0ZNS4_10WindowBase12handleEventsIJRKS7_EEEvDpOT_EUlRKNS5_23DelayOverloadResolutionEE_EEEJRKNS4_5Event10KeyPressedEEEEvv', symObjAddr: 0xFA80, symBinAddr: 0x100012D1C, symSize: 0x4 }
  - { offsetInCU: 0x41952, offset: 0x41952, size: 0x8, addend: 0x0, symName: __ZN2sf4priv23DelayOverloadResolutionC1INS_5Event10KeyPressedEEERKT_, symObjAddr: 0xFAC8, symBinAddr: 0x100012D64, symSize: 0x34 }
  - { offsetInCU: 0x41990, offset: 0x41990, size: 0x8, addend: 0x0, symName: __ZN2sf4priv23DelayOverloadResolutionC2INS_5Event10KeyPressedEEERKT_, symObjAddr: 0xFAFC, symBinAddr: 0x100012D98, symSize: 0x18 }
  - { offsetInCU: 0x419CE, offset: 0x419CE, size: 0x8, addend: 0x0, symName: __ZNSt3__116__variant_detail8__access7__union9__get_altB8ue170006IRKNS0_7__unionILNS0_6_TraitE0ELm0EJN2sf5Event6ClosedENS7_7ResizedENS7_9FocusLostENS7_11FocusGainedENS7_11TextEnteredENS7_10KeyPressedENS7_11KeyReleasedENS7_18MouseWheelScrolledENS7_18MouseButtonPressedENS7_19MouseButtonReleasedENS7_10MouseMovedENS7_13MouseMovedRawENS7_12MouseEnteredENS7_9MouseLeftENS7_21JoystickButtonPressedENS7_22JoystickButtonReleasedENS7_13JoystickMovedENS7_17JoystickConnectedENS7_20JoystickDisconnectedENS7_10TouchBeganENS7_10TouchMovedENS7_10TouchEndedENS7_13SensorChangedEEEELm5EEEODaOT_NS_16in_place_index_tIXT0_EEE, symObjAddr: 0xFB14, symBinAddr: 0x100012DB0, symSize: 0x24 }
  - { offsetInCU: 0x41A11, offset: 0x41A11, size: 0x8, addend: 0x0, symName: __ZNSt3__116__variant_detail8__access7__union9__get_altB8ue170006IRKNS0_7__unionILNS0_6_TraitE0ELm1EJN2sf5Event7ResizedENS7_9FocusLostENS7_11FocusGainedENS7_11TextEnteredENS7_10KeyPressedENS7_11KeyReleasedENS7_18MouseWheelScrolledENS7_18MouseButtonPressedENS7_19MouseButtonReleasedENS7_10MouseMovedENS7_13MouseMovedRawENS7_12MouseEnteredENS7_9MouseLeftENS7_21JoystickButtonPressedENS7_22JoystickButtonReleasedENS7_13JoystickMovedENS7_17JoystickConnectedENS7_20JoystickDisconnectedENS7_10TouchBeganENS7_10TouchMovedENS7_10TouchEndedENS7_13SensorChangedEEEELm4EEEODaOT_NS_16in_place_index_tIXT0_EEE, symObjAddr: 0xFB38, symBinAddr: 0x100012DD4, symSize: 0x24 }
  - { offsetInCU: 0x41A54, offset: 0x41A54, size: 0x8, addend: 0x0, symName: __ZNSt3__116__variant_detail8__access7__union9__get_altB8ue170006IRKNS0_7__unionILNS0_6_TraitE0ELm2EJN2sf5Event9FocusLostENS7_11FocusGainedENS7_11TextEnteredENS7_10KeyPressedENS7_11KeyReleasedENS7_18MouseWheelScrolledENS7_18MouseButtonPressedENS7_19MouseButtonReleasedENS7_10MouseMovedENS7_13MouseMovedRawENS7_12MouseEnteredENS7_9MouseLeftENS7_21JoystickButtonPressedENS7_22JoystickButtonReleasedENS7_13JoystickMovedENS7_17JoystickConnectedENS7_20JoystickDisconnectedENS7_10TouchBeganENS7_10TouchMovedENS7_10TouchEndedENS7_13SensorChangedEEEELm3EEEODaOT_NS_16in_place_index_tIXT0_EEE, symObjAddr: 0xFB5C, symBinAddr: 0x100012DF8, symSize: 0x24 }
  - { offsetInCU: 0x41A97, offset: 0x41A97, size: 0x8, addend: 0x0, symName: __ZNSt3__116__variant_detail8__access7__union9__get_altB8ue170006IRKNS0_7__unionILNS0_6_TraitE0ELm3EJN2sf5Event11FocusGainedENS7_11TextEnteredENS7_10KeyPressedENS7_11KeyReleasedENS7_18MouseWheelScrolledENS7_18MouseButtonPressedENS7_19MouseButtonReleasedENS7_10MouseMovedENS7_13MouseMovedRawENS7_12MouseEnteredENS7_9MouseLeftENS7_21JoystickButtonPressedENS7_22JoystickButtonReleasedENS7_13JoystickMovedENS7_17JoystickConnectedENS7_20JoystickDisconnectedENS7_10TouchBeganENS7_10TouchMovedENS7_10TouchEndedENS7_13SensorChangedEEEELm2EEEODaOT_NS_16in_place_index_tIXT0_EEE, symObjAddr: 0xFB80, symBinAddr: 0x100012E1C, symSize: 0x24 }
  - { offsetInCU: 0x41ADA, offset: 0x41ADA, size: 0x8, addend: 0x0, symName: __ZNSt3__116__variant_detail8__access7__union9__get_altB8ue170006IRKNS0_7__unionILNS0_6_TraitE0ELm4EJN2sf5Event11TextEnteredENS7_10KeyPressedENS7_11KeyReleasedENS7_18MouseWheelScrolledENS7_18MouseButtonPressedENS7_19MouseButtonReleasedENS7_10MouseMovedENS7_13MouseMovedRawENS7_12MouseEnteredENS7_9MouseLeftENS7_21JoystickButtonPressedENS7_22JoystickButtonReleasedENS7_13JoystickMovedENS7_17JoystickConnectedENS7_20JoystickDisconnectedENS7_10TouchBeganENS7_10TouchMovedENS7_10TouchEndedENS7_13SensorChangedEEEELm1EEEODaOT_NS_16in_place_index_tIXT0_EEE, symObjAddr: 0xFBA4, symBinAddr: 0x100012E40, symSize: 0x24 }
  - { offsetInCU: 0x41B1D, offset: 0x41B1D, size: 0x8, addend: 0x0, symName: __ZNSt3__116__variant_detail8__access7__union9__get_altB8ue170006IRKNS0_7__unionILNS0_6_TraitE0ELm5EJN2sf5Event10KeyPressedENS7_11KeyReleasedENS7_18MouseWheelScrolledENS7_18MouseButtonPressedENS7_19MouseButtonReleasedENS7_10MouseMovedENS7_13MouseMovedRawENS7_12MouseEnteredENS7_9MouseLeftENS7_21JoystickButtonPressedENS7_22JoystickButtonReleasedENS7_13JoystickMovedENS7_17JoystickConnectedENS7_20JoystickDisconnectedENS7_10TouchBeganENS7_10TouchMovedENS7_10TouchEndedENS7_13SensorChangedEEEEEEODaOT_NS_16in_place_index_tILm0EEE, symObjAddr: 0xFBC8, symBinAddr: 0x100012E64, symSize: 0x14 }
  - { offsetInCU: 0x41B61, offset: 0x41B61, size: 0x8, addend: 0x0, symName: __ZNSt3__116__variant_detail8__access6__base9__get_altB8ue170006ILm6ERKNS0_6__baseILNS0_6_TraitE0EJN2sf5Event6ClosedENS7_7ResizedENS7_9FocusLostENS7_11FocusGainedENS7_11TextEnteredENS7_10KeyPressedENS7_11KeyReleasedENS7_18MouseWheelScrolledENS7_18MouseButtonPressedENS7_19MouseButtonReleasedENS7_10MouseMovedENS7_13MouseMovedRawENS7_12MouseEnteredENS7_9MouseLeftENS7_21JoystickButtonPressedENS7_22JoystickButtonReleasedENS7_13JoystickMovedENS7_17JoystickConnectedENS7_20JoystickDisconnectedENS7_10TouchBeganENS7_10TouchMovedENS7_10TouchEndedENS7_13SensorChangedEEEEEEODaOT0_, symObjAddr: 0xFC08, symBinAddr: 0x100012EA4, symSize: 0x24 }
  - { offsetInCU: 0x41B98, offset: 0x41B98, size: 0x8, addend: 0x0, symName: '__ZNKSt3__116__variant_detail12__visitation9__variant15__value_visitorIRN2sf4priv11OverloadSetIJZ6drivervE3$_0ZNS4_10WindowBase12handleEventsIJRKS7_EEEvDpOT_EUlRKNS5_23DelayOverloadResolutionEE_EEEEclB8ue170006IJRKNS0_5__altILm6ENS4_5Event11KeyReleasedEEEEEEDcSE_', symObjAddr: 0xFC2C, symBinAddr: 0x100012EC8, symSize: 0x3C }
  - { offsetInCU: 0x41BE3, offset: 0x41BE3, size: 0x8, addend: 0x0, symName: '__ZNSt3__116__variant_detail12__visitation9__variant36__std_visit_exhaustive_visitor_checkB8ue170006IRN2sf4priv11OverloadSetIJZ6drivervE3$_0ZNS4_10WindowBase12handleEventsIJRKS7_EEEvDpOT_EUlRKNS5_23DelayOverloadResolutionEE_EEEJRKNS4_5Event11KeyReleasedEEEEvv', symObjAddr: 0xFC68, symBinAddr: 0x100012F04, symSize: 0x4 }
  - { offsetInCU: 0x41C0C, offset: 0x41C0C, size: 0x8, addend: 0x0, symName: __ZN2sf4priv23DelayOverloadResolutionC1INS_5Event11KeyReleasedEEERKT_, symObjAddr: 0xFCB0, symBinAddr: 0x100012F4C, symSize: 0x34 }
  - { offsetInCU: 0x41C4A, offset: 0x41C4A, size: 0x8, addend: 0x0, symName: __ZN2sf4priv23DelayOverloadResolutionC2INS_5Event11KeyReleasedEEERKT_, symObjAddr: 0xFCE4, symBinAddr: 0x100012F80, symSize: 0x18 }
  - { offsetInCU: 0x41C88, offset: 0x41C88, size: 0x8, addend: 0x0, symName: __ZNSt3__116__variant_detail8__access7__union9__get_altB8ue170006IRKNS0_7__unionILNS0_6_TraitE0ELm0EJN2sf5Event6ClosedENS7_7ResizedENS7_9FocusLostENS7_11FocusGainedENS7_11TextEnteredENS7_10KeyPressedENS7_11KeyReleasedENS7_18MouseWheelScrolledENS7_18MouseButtonPressedENS7_19MouseButtonReleasedENS7_10MouseMovedENS7_13MouseMovedRawENS7_12MouseEnteredENS7_9MouseLeftENS7_21JoystickButtonPressedENS7_22JoystickButtonReleasedENS7_13JoystickMovedENS7_17JoystickConnectedENS7_20JoystickDisconnectedENS7_10TouchBeganENS7_10TouchMovedENS7_10TouchEndedENS7_13SensorChangedEEEELm6EEEODaOT_NS_16in_place_index_tIXT0_EEE, symObjAddr: 0xFCFC, symBinAddr: 0x100012F98, symSize: 0x24 }
  - { offsetInCU: 0x41CCB, offset: 0x41CCB, size: 0x8, addend: 0x0, symName: __ZNSt3__116__variant_detail8__access7__union9__get_altB8ue170006IRKNS0_7__unionILNS0_6_TraitE0ELm1EJN2sf5Event7ResizedENS7_9FocusLostENS7_11FocusGainedENS7_11TextEnteredENS7_10KeyPressedENS7_11KeyReleasedENS7_18MouseWheelScrolledENS7_18MouseButtonPressedENS7_19MouseButtonReleasedENS7_10MouseMovedENS7_13MouseMovedRawENS7_12MouseEnteredENS7_9MouseLeftENS7_21JoystickButtonPressedENS7_22JoystickButtonReleasedENS7_13JoystickMovedENS7_17JoystickConnectedENS7_20JoystickDisconnectedENS7_10TouchBeganENS7_10TouchMovedENS7_10TouchEndedENS7_13SensorChangedEEEELm5EEEODaOT_NS_16in_place_index_tIXT0_EEE, symObjAddr: 0xFD20, symBinAddr: 0x100012FBC, symSize: 0x24 }
  - { offsetInCU: 0x41D0E, offset: 0x41D0E, size: 0x8, addend: 0x0, symName: __ZNSt3__116__variant_detail8__access7__union9__get_altB8ue170006IRKNS0_7__unionILNS0_6_TraitE0ELm2EJN2sf5Event9FocusLostENS7_11FocusGainedENS7_11TextEnteredENS7_10KeyPressedENS7_11KeyReleasedENS7_18MouseWheelScrolledENS7_18MouseButtonPressedENS7_19MouseButtonReleasedENS7_10MouseMovedENS7_13MouseMovedRawENS7_12MouseEnteredENS7_9MouseLeftENS7_21JoystickButtonPressedENS7_22JoystickButtonReleasedENS7_13JoystickMovedENS7_17JoystickConnectedENS7_20JoystickDisconnectedENS7_10TouchBeganENS7_10TouchMovedENS7_10TouchEndedENS7_13SensorChangedEEEELm4EEEODaOT_NS_16in_place_index_tIXT0_EEE, symObjAddr: 0xFD44, symBinAddr: 0x100012FE0, symSize: 0x24 }
  - { offsetInCU: 0x41D51, offset: 0x41D51, size: 0x8, addend: 0x0, symName: __ZNSt3__116__variant_detail8__access7__union9__get_altB8ue170006IRKNS0_7__unionILNS0_6_TraitE0ELm3EJN2sf5Event11FocusGainedENS7_11TextEnteredENS7_10KeyPressedENS7_11KeyReleasedENS7_18MouseWheelScrolledENS7_18MouseButtonPressedENS7_19MouseButtonReleasedENS7_10MouseMovedENS7_13MouseMovedRawENS7_12MouseEnteredENS7_9MouseLeftENS7_21JoystickButtonPressedENS7_22JoystickButtonReleasedENS7_13JoystickMovedENS7_17JoystickConnectedENS7_20JoystickDisconnectedENS7_10TouchBeganENS7_10TouchMovedENS7_10TouchEndedENS7_13SensorChangedEEEELm3EEEODaOT_NS_16in_place_index_tIXT0_EEE, symObjAddr: 0xFD68, symBinAddr: 0x100013004, symSize: 0x24 }
  - { offsetInCU: 0x41D94, offset: 0x41D94, size: 0x8, addend: 0x0, symName: __ZNSt3__116__variant_detail8__access7__union9__get_altB8ue170006IRKNS0_7__unionILNS0_6_TraitE0ELm4EJN2sf5Event11TextEnteredENS7_10KeyPressedENS7_11KeyReleasedENS7_18MouseWheelScrolledENS7_18MouseButtonPressedENS7_19MouseButtonReleasedENS7_10MouseMovedENS7_13MouseMovedRawENS7_12MouseEnteredENS7_9MouseLeftENS7_21JoystickButtonPressedENS7_22JoystickButtonReleasedENS7_13JoystickMovedENS7_17JoystickConnectedENS7_20JoystickDisconnectedENS7_10TouchBeganENS7_10TouchMovedENS7_10TouchEndedENS7_13SensorChangedEEEELm2EEEODaOT_NS_16in_place_index_tIXT0_EEE, symObjAddr: 0xFD8C, symBinAddr: 0x100013028, symSize: 0x24 }
  - { offsetInCU: 0x41DD7, offset: 0x41DD7, size: 0x8, addend: 0x0, symName: __ZNSt3__116__variant_detail8__access7__union9__get_altB8ue170006IRKNS0_7__unionILNS0_6_TraitE0ELm5EJN2sf5Event10KeyPressedENS7_11KeyReleasedENS7_18MouseWheelScrolledENS7_18MouseButtonPressedENS7_19MouseButtonReleasedENS7_10MouseMovedENS7_13MouseMovedRawENS7_12MouseEnteredENS7_9MouseLeftENS7_21JoystickButtonPressedENS7_22JoystickButtonReleasedENS7_13JoystickMovedENS7_17JoystickConnectedENS7_20JoystickDisconnectedENS7_10TouchBeganENS7_10TouchMovedENS7_10TouchEndedENS7_13SensorChangedEEEELm1EEEODaOT_NS_16in_place_index_tIXT0_EEE, symObjAddr: 0xFDB0, symBinAddr: 0x10001304C, symSize: 0x24 }
  - { offsetInCU: 0x41E1A, offset: 0x41E1A, size: 0x8, addend: 0x0, symName: __ZNSt3__116__variant_detail8__access7__union9__get_altB8ue170006IRKNS0_7__unionILNS0_6_TraitE0ELm6EJN2sf5Event11KeyReleasedENS7_18MouseWheelScrolledENS7_18MouseButtonPressedENS7_19MouseButtonReleasedENS7_10MouseMovedENS7_13MouseMovedRawENS7_12MouseEnteredENS7_9MouseLeftENS7_21JoystickButtonPressedENS7_22JoystickButtonReleasedENS7_13JoystickMovedENS7_17JoystickConnectedENS7_20JoystickDisconnectedENS7_10TouchBeganENS7_10TouchMovedENS7_10TouchEndedENS7_13SensorChangedEEEEEEODaOT_NS_16in_place_index_tILm0EEE, symObjAddr: 0xFDD4, symBinAddr: 0x100013070, symSize: 0x14 }
  - { offsetInCU: 0x41E5E, offset: 0x41E5E, size: 0x8, addend: 0x0, symName: __ZNSt3__116__variant_detail8__access6__base9__get_altB8ue170006ILm7ERKNS0_6__baseILNS0_6_TraitE0EJN2sf5Event6ClosedENS7_7ResizedENS7_9FocusLostENS7_11FocusGainedENS7_11TextEnteredENS7_10KeyPressedENS7_11KeyReleasedENS7_18MouseWheelScrolledENS7_18MouseButtonPressedENS7_19MouseButtonReleasedENS7_10MouseMovedENS7_13MouseMovedRawENS7_12MouseEnteredENS7_9MouseLeftENS7_21JoystickButtonPressedENS7_22JoystickButtonReleasedENS7_13JoystickMovedENS7_17JoystickConnectedENS7_20JoystickDisconnectedENS7_10TouchBeganENS7_10TouchMovedENS7_10TouchEndedENS7_13SensorChangedEEEEEEODaOT0_, symObjAddr: 0xFE14, symBinAddr: 0x1000130B0, symSize: 0x24 }
  - { offsetInCU: 0x41E95, offset: 0x41E95, size: 0x8, addend: 0x0, symName: '__ZNKSt3__116__variant_detail12__visitation9__variant15__value_visitorIRN2sf4priv11OverloadSetIJZ6drivervE3$_0ZNS4_10WindowBase12handleEventsIJRKS7_EEEvDpOT_EUlRKNS5_23DelayOverloadResolutionEE_EEEEclB8ue170006IJRKNS0_5__altILm7ENS4_5Event18MouseWheelScrolledEEEEEEDcSE_', symObjAddr: 0xFE38, symBinAddr: 0x1000130D4, symSize: 0x3C }
  - { offsetInCU: 0x41EE0, offset: 0x41EE0, size: 0x8, addend: 0x0, symName: '__ZNSt3__116__variant_detail12__visitation9__variant36__std_visit_exhaustive_visitor_checkB8ue170006IRN2sf4priv11OverloadSetIJZ6drivervE3$_0ZNS4_10WindowBase12handleEventsIJRKS7_EEEvDpOT_EUlRKNS5_23DelayOverloadResolutionEE_EEEJRKNS4_5Event18MouseWheelScrolledEEEEvv', symObjAddr: 0xFE74, symBinAddr: 0x100013110, symSize: 0x4 }
  - { offsetInCU: 0x41F09, offset: 0x41F09, size: 0x8, addend: 0x0, symName: __ZN2sf4priv23DelayOverloadResolutionC1INS_5Event18MouseWheelScrolledEEERKT_, symObjAddr: 0xFEBC, symBinAddr: 0x100013158, symSize: 0x34 }
  - { offsetInCU: 0x41F47, offset: 0x41F47, size: 0x8, addend: 0x0, symName: __ZN2sf4priv23DelayOverloadResolutionC2INS_5Event18MouseWheelScrolledEEERKT_, symObjAddr: 0xFEF0, symBinAddr: 0x10001318C, symSize: 0x18 }
  - { offsetInCU: 0x41F85, offset: 0x41F85, size: 0x8, addend: 0x0, symName: __ZNSt3__116__variant_detail8__access7__union9__get_altB8ue170006IRKNS0_7__unionILNS0_6_TraitE0ELm0EJN2sf5Event6ClosedENS7_7ResizedENS7_9FocusLostENS7_11FocusGainedENS7_11TextEnteredENS7_10KeyPressedENS7_11KeyReleasedENS7_18MouseWheelScrolledENS7_18MouseButtonPressedENS7_19MouseButtonReleasedENS7_10MouseMovedENS7_13MouseMovedRawENS7_12MouseEnteredENS7_9MouseLeftENS7_21JoystickButtonPressedENS7_22JoystickButtonReleasedENS7_13JoystickMovedENS7_17JoystickConnectedENS7_20JoystickDisconnectedENS7_10TouchBeganENS7_10TouchMovedENS7_10TouchEndedENS7_13SensorChangedEEEELm7EEEODaOT_NS_16in_place_index_tIXT0_EEE, symObjAddr: 0xFF08, symBinAddr: 0x1000131A4, symSize: 0x24 }
  - { offsetInCU: 0x41FC8, offset: 0x41FC8, size: 0x8, addend: 0x0, symName: __ZNSt3__116__variant_detail8__access7__union9__get_altB8ue170006IRKNS0_7__unionILNS0_6_TraitE0ELm1EJN2sf5Event7ResizedENS7_9FocusLostENS7_11FocusGainedENS7_11TextEnteredENS7_10KeyPressedENS7_11KeyReleasedENS7_18MouseWheelScrolledENS7_18MouseButtonPressedENS7_19MouseButtonReleasedENS7_10MouseMovedENS7_13MouseMovedRawENS7_12MouseEnteredENS7_9MouseLeftENS7_21JoystickButtonPressedENS7_22JoystickButtonReleasedENS7_13JoystickMovedENS7_17JoystickConnectedENS7_20JoystickDisconnectedENS7_10TouchBeganENS7_10TouchMovedENS7_10TouchEndedENS7_13SensorChangedEEEELm6EEEODaOT_NS_16in_place_index_tIXT0_EEE, symObjAddr: 0xFF2C, symBinAddr: 0x1000131C8, symSize: 0x24 }
  - { offsetInCU: 0x4200B, offset: 0x4200B, size: 0x8, addend: 0x0, symName: __ZNSt3__116__variant_detail8__access7__union9__get_altB8ue170006IRKNS0_7__unionILNS0_6_TraitE0ELm2EJN2sf5Event9FocusLostENS7_11FocusGainedENS7_11TextEnteredENS7_10KeyPressedENS7_11KeyReleasedENS7_18MouseWheelScrolledENS7_18MouseButtonPressedENS7_19MouseButtonReleasedENS7_10MouseMovedENS7_13MouseMovedRawENS7_12MouseEnteredENS7_9MouseLeftENS7_21JoystickButtonPressedENS7_22JoystickButtonReleasedENS7_13JoystickMovedENS7_17JoystickConnectedENS7_20JoystickDisconnectedENS7_10TouchBeganENS7_10TouchMovedENS7_10TouchEndedENS7_13SensorChangedEEEELm5EEEODaOT_NS_16in_place_index_tIXT0_EEE, symObjAddr: 0xFF50, symBinAddr: 0x1000131EC, symSize: 0x24 }
  - { offsetInCU: 0x4204E, offset: 0x4204E, size: 0x8, addend: 0x0, symName: __ZNSt3__116__variant_detail8__access7__union9__get_altB8ue170006IRKNS0_7__unionILNS0_6_TraitE0ELm3EJN2sf5Event11FocusGainedENS7_11TextEnteredENS7_10KeyPressedENS7_11KeyReleasedENS7_18MouseWheelScrolledENS7_18MouseButtonPressedENS7_19MouseButtonReleasedENS7_10MouseMovedENS7_13MouseMovedRawENS7_12MouseEnteredENS7_9MouseLeftENS7_21JoystickButtonPressedENS7_22JoystickButtonReleasedENS7_13JoystickMovedENS7_17JoystickConnectedENS7_20JoystickDisconnectedENS7_10TouchBeganENS7_10TouchMovedENS7_10TouchEndedENS7_13SensorChangedEEEELm4EEEODaOT_NS_16in_place_index_tIXT0_EEE, symObjAddr: 0xFF74, symBinAddr: 0x100013210, symSize: 0x24 }
  - { offsetInCU: 0x42091, offset: 0x42091, size: 0x8, addend: 0x0, symName: __ZNSt3__116__variant_detail8__access7__union9__get_altB8ue170006IRKNS0_7__unionILNS0_6_TraitE0ELm4EJN2sf5Event11TextEnteredENS7_10KeyPressedENS7_11KeyReleasedENS7_18MouseWheelScrolledENS7_18MouseButtonPressedENS7_19MouseButtonReleasedENS7_10MouseMovedENS7_13MouseMovedRawENS7_12MouseEnteredENS7_9MouseLeftENS7_21JoystickButtonPressedENS7_22JoystickButtonReleasedENS7_13JoystickMovedENS7_17JoystickConnectedENS7_20JoystickDisconnectedENS7_10TouchBeganENS7_10TouchMovedENS7_10TouchEndedENS7_13SensorChangedEEEELm3EEEODaOT_NS_16in_place_index_tIXT0_EEE, symObjAddr: 0xFF98, symBinAddr: 0x100013234, symSize: 0x24 }
  - { offsetInCU: 0x420D4, offset: 0x420D4, size: 0x8, addend: 0x0, symName: __ZNSt3__116__variant_detail8__access7__union9__get_altB8ue170006IRKNS0_7__unionILNS0_6_TraitE0ELm5EJN2sf5Event10KeyPressedENS7_11KeyReleasedENS7_18MouseWheelScrolledENS7_18MouseButtonPressedENS7_19MouseButtonReleasedENS7_10MouseMovedENS7_13MouseMovedRawENS7_12MouseEnteredENS7_9MouseLeftENS7_21JoystickButtonPressedENS7_22JoystickButtonReleasedENS7_13JoystickMovedENS7_17JoystickConnectedENS7_20JoystickDisconnectedENS7_10TouchBeganENS7_10TouchMovedENS7_10TouchEndedENS7_13SensorChangedEEEELm2EEEODaOT_NS_16in_place_index_tIXT0_EEE, symObjAddr: 0xFFBC, symBinAddr: 0x100013258, symSize: 0x24 }
  - { offsetInCU: 0x42117, offset: 0x42117, size: 0x8, addend: 0x0, symName: __ZNSt3__116__variant_detail8__access7__union9__get_altB8ue170006IRKNS0_7__unionILNS0_6_TraitE0ELm6EJN2sf5Event11KeyReleasedENS7_18MouseWheelScrolledENS7_18MouseButtonPressedENS7_19MouseButtonReleasedENS7_10MouseMovedENS7_13MouseMovedRawENS7_12MouseEnteredENS7_9MouseLeftENS7_21JoystickButtonPressedENS7_22JoystickButtonReleasedENS7_13JoystickMovedENS7_17JoystickConnectedENS7_20JoystickDisconnectedENS7_10TouchBeganENS7_10TouchMovedENS7_10TouchEndedENS7_13SensorChangedEEEELm1EEEODaOT_NS_16in_place_index_tIXT0_EEE, symObjAddr: 0xFFE0, symBinAddr: 0x10001327C, symSize: 0x24 }
  - { offsetInCU: 0x4215A, offset: 0x4215A, size: 0x8, addend: 0x0, symName: __ZNSt3__116__variant_detail8__access7__union9__get_altB8ue170006IRKNS0_7__unionILNS0_6_TraitE0ELm7EJN2sf5Event18MouseWheelScrolledENS7_18MouseButtonPressedENS7_19MouseButtonReleasedENS7_10MouseMovedENS7_13MouseMovedRawENS7_12MouseEnteredENS7_9MouseLeftENS7_21JoystickButtonPressedENS7_22JoystickButtonReleasedENS7_13JoystickMovedENS7_17JoystickConnectedENS7_20JoystickDisconnectedENS7_10TouchBeganENS7_10TouchMovedENS7_10TouchEndedENS7_13SensorChangedEEEEEEODaOT_NS_16in_place_index_tILm0EEE, symObjAddr: 0x10004, symBinAddr: 0x1000132A0, symSize: 0x14 }
  - { offsetInCU: 0x4219E, offset: 0x4219E, size: 0x8, addend: 0x0, symName: __ZNSt3__116__variant_detail8__access6__base9__get_altB8ue170006ILm8ERKNS0_6__baseILNS0_6_TraitE0EJN2sf5Event6ClosedENS7_7ResizedENS7_9FocusLostENS7_11FocusGainedENS7_11TextEnteredENS7_10KeyPressedENS7_11KeyReleasedENS7_18MouseWheelScrolledENS7_18MouseButtonPressedENS7_19MouseButtonReleasedENS7_10MouseMovedENS7_13MouseMovedRawENS7_12MouseEnteredENS7_9MouseLeftENS7_21JoystickButtonPressedENS7_22JoystickButtonReleasedENS7_13JoystickMovedENS7_17JoystickConnectedENS7_20JoystickDisconnectedENS7_10TouchBeganENS7_10TouchMovedENS7_10TouchEndedENS7_13SensorChangedEEEEEEODaOT0_, symObjAddr: 0x10044, symBinAddr: 0x1000132E0, symSize: 0x24 }
  - { offsetInCU: 0x421D5, offset: 0x421D5, size: 0x8, addend: 0x0, symName: '__ZNKSt3__116__variant_detail12__visitation9__variant15__value_visitorIRN2sf4priv11OverloadSetIJZ6drivervE3$_0ZNS4_10WindowBase12handleEventsIJRKS7_EEEvDpOT_EUlRKNS5_23DelayOverloadResolutionEE_EEEEclB8ue170006IJRKNS0_5__altILm8ENS4_5Event18MouseButtonPressedEEEEEEDcSE_', symObjAddr: 0x10068, symBinAddr: 0x100013304, symSize: 0x3C }
  - { offsetInCU: 0x42220, offset: 0x42220, size: 0x8, addend: 0x0, symName: '__ZNSt3__116__variant_detail12__visitation9__variant36__std_visit_exhaustive_visitor_checkB8ue170006IRN2sf4priv11OverloadSetIJZ6drivervE3$_0ZNS4_10WindowBase12handleEventsIJRKS7_EEEvDpOT_EUlRKNS5_23DelayOverloadResolutionEE_EEEJRKNS4_5Event18MouseButtonPressedEEEEvv', symObjAddr: 0x100A4, symBinAddr: 0x100013340, symSize: 0x4 }
  - { offsetInCU: 0x42249, offset: 0x42249, size: 0x8, addend: 0x0, symName: __ZN2sf4priv23DelayOverloadResolutionC1INS_5Event18MouseButtonPressedEEERKT_, symObjAddr: 0x100EC, symBinAddr: 0x100013388, symSize: 0x34 }
  - { offsetInCU: 0x42287, offset: 0x42287, size: 0x8, addend: 0x0, symName: __ZN2sf4priv23DelayOverloadResolutionC2INS_5Event18MouseButtonPressedEEERKT_, symObjAddr: 0x10120, symBinAddr: 0x1000133BC, symSize: 0x18 }
  - { offsetInCU: 0x422C5, offset: 0x422C5, size: 0x8, addend: 0x0, symName: __ZNSt3__116__variant_detail8__access7__union9__get_altB8ue170006IRKNS0_7__unionILNS0_6_TraitE0ELm0EJN2sf5Event6ClosedENS7_7ResizedENS7_9FocusLostENS7_11FocusGainedENS7_11TextEnteredENS7_10KeyPressedENS7_11KeyReleasedENS7_18MouseWheelScrolledENS7_18MouseButtonPressedENS7_19MouseButtonReleasedENS7_10MouseMovedENS7_13MouseMovedRawENS7_12MouseEnteredENS7_9MouseLeftENS7_21JoystickButtonPressedENS7_22JoystickButtonReleasedENS7_13JoystickMovedENS7_17JoystickConnectedENS7_20JoystickDisconnectedENS7_10TouchBeganENS7_10TouchMovedENS7_10TouchEndedENS7_13SensorChangedEEEELm8EEEODaOT_NS_16in_place_index_tIXT0_EEE, symObjAddr: 0x10138, symBinAddr: 0x1000133D4, symSize: 0x24 }
  - { offsetInCU: 0x42308, offset: 0x42308, size: 0x8, addend: 0x0, symName: __ZNSt3__116__variant_detail8__access7__union9__get_altB8ue170006IRKNS0_7__unionILNS0_6_TraitE0ELm1EJN2sf5Event7ResizedENS7_9FocusLostENS7_11FocusGainedENS7_11TextEnteredENS7_10KeyPressedENS7_11KeyReleasedENS7_18MouseWheelScrolledENS7_18MouseButtonPressedENS7_19MouseButtonReleasedENS7_10MouseMovedENS7_13MouseMovedRawENS7_12MouseEnteredENS7_9MouseLeftENS7_21JoystickButtonPressedENS7_22JoystickButtonReleasedENS7_13JoystickMovedENS7_17JoystickConnectedENS7_20JoystickDisconnectedENS7_10TouchBeganENS7_10TouchMovedENS7_10TouchEndedENS7_13SensorChangedEEEELm7EEEODaOT_NS_16in_place_index_tIXT0_EEE, symObjAddr: 0x1015C, symBinAddr: 0x1000133F8, symSize: 0x24 }
  - { offsetInCU: 0x4234B, offset: 0x4234B, size: 0x8, addend: 0x0, symName: __ZNSt3__116__variant_detail8__access7__union9__get_altB8ue170006IRKNS0_7__unionILNS0_6_TraitE0ELm2EJN2sf5Event9FocusLostENS7_11FocusGainedENS7_11TextEnteredENS7_10KeyPressedENS7_11KeyReleasedENS7_18MouseWheelScrolledENS7_18MouseButtonPressedENS7_19MouseButtonReleasedENS7_10MouseMovedENS7_13MouseMovedRawENS7_12MouseEnteredENS7_9MouseLeftENS7_21JoystickButtonPressedENS7_22JoystickButtonReleasedENS7_13JoystickMovedENS7_17JoystickConnectedENS7_20JoystickDisconnectedENS7_10TouchBeganENS7_10TouchMovedENS7_10TouchEndedENS7_13SensorChangedEEEELm6EEEODaOT_NS_16in_place_index_tIXT0_EEE, symObjAddr: 0x10180, symBinAddr: 0x10001341C, symSize: 0x24 }
  - { offsetInCU: 0x4238E, offset: 0x4238E, size: 0x8, addend: 0x0, symName: __ZNSt3__116__variant_detail8__access7__union9__get_altB8ue170006IRKNS0_7__unionILNS0_6_TraitE0ELm3EJN2sf5Event11FocusGainedENS7_11TextEnteredENS7_10KeyPressedENS7_11KeyReleasedENS7_18MouseWheelScrolledENS7_18MouseButtonPressedENS7_19MouseButtonReleasedENS7_10MouseMovedENS7_13MouseMovedRawENS7_12MouseEnteredENS7_9MouseLeftENS7_21JoystickButtonPressedENS7_22JoystickButtonReleasedENS7_13JoystickMovedENS7_17JoystickConnectedENS7_20JoystickDisconnectedENS7_10TouchBeganENS7_10TouchMovedENS7_10TouchEndedENS7_13SensorChangedEEEELm5EEEODaOT_NS_16in_place_index_tIXT0_EEE, symObjAddr: 0x101A4, symBinAddr: 0x100013440, symSize: 0x24 }
  - { offsetInCU: 0x423D1, offset: 0x423D1, size: 0x8, addend: 0x0, symName: __ZNSt3__116__variant_detail8__access7__union9__get_altB8ue170006IRKNS0_7__unionILNS0_6_TraitE0ELm4EJN2sf5Event11TextEnteredENS7_10KeyPressedENS7_11KeyReleasedENS7_18MouseWheelScrolledENS7_18MouseButtonPressedENS7_19MouseButtonReleasedENS7_10MouseMovedENS7_13MouseMovedRawENS7_12MouseEnteredENS7_9MouseLeftENS7_21JoystickButtonPressedENS7_22JoystickButtonReleasedENS7_13JoystickMovedENS7_17JoystickConnectedENS7_20JoystickDisconnectedENS7_10TouchBeganENS7_10TouchMovedENS7_10TouchEndedENS7_13SensorChangedEEEELm4EEEODaOT_NS_16in_place_index_tIXT0_EEE, symObjAddr: 0x101C8, symBinAddr: 0x100013464, symSize: 0x24 }
  - { offsetInCU: 0x42414, offset: 0x42414, size: 0x8, addend: 0x0, symName: __ZNSt3__116__variant_detail8__access7__union9__get_altB8ue170006IRKNS0_7__unionILNS0_6_TraitE0ELm5EJN2sf5Event10KeyPressedENS7_11KeyReleasedENS7_18MouseWheelScrolledENS7_18MouseButtonPressedENS7_19MouseButtonReleasedENS7_10MouseMovedENS7_13MouseMovedRawENS7_12MouseEnteredENS7_9MouseLeftENS7_21JoystickButtonPressedENS7_22JoystickButtonReleasedENS7_13JoystickMovedENS7_17JoystickConnectedENS7_20JoystickDisconnectedENS7_10TouchBeganENS7_10TouchMovedENS7_10TouchEndedENS7_13SensorChangedEEEELm3EEEODaOT_NS_16in_place_index_tIXT0_EEE, symObjAddr: 0x101EC, symBinAddr: 0x100013488, symSize: 0x24 }
  - { offsetInCU: 0x42457, offset: 0x42457, size: 0x8, addend: 0x0, symName: __ZNSt3__116__variant_detail8__access7__union9__get_altB8ue170006IRKNS0_7__unionILNS0_6_TraitE0ELm6EJN2sf5Event11KeyReleasedENS7_18MouseWheelScrolledENS7_18MouseButtonPressedENS7_19MouseButtonReleasedENS7_10MouseMovedENS7_13MouseMovedRawENS7_12MouseEnteredENS7_9MouseLeftENS7_21JoystickButtonPressedENS7_22JoystickButtonReleasedENS7_13JoystickMovedENS7_17JoystickConnectedENS7_20JoystickDisconnectedENS7_10TouchBeganENS7_10TouchMovedENS7_10TouchEndedENS7_13SensorChangedEEEELm2EEEODaOT_NS_16in_place_index_tIXT0_EEE, symObjAddr: 0x10210, symBinAddr: 0x1000134AC, symSize: 0x24 }
  - { offsetInCU: 0x4249A, offset: 0x4249A, size: 0x8, addend: 0x0, symName: __ZNSt3__116__variant_detail8__access7__union9__get_altB8ue170006IRKNS0_7__unionILNS0_6_TraitE0ELm7EJN2sf5Event18MouseWheelScrolledENS7_18MouseButtonPressedENS7_19MouseButtonReleasedENS7_10MouseMovedENS7_13MouseMovedRawENS7_12MouseEnteredENS7_9MouseLeftENS7_21JoystickButtonPressedENS7_22JoystickButtonReleasedENS7_13JoystickMovedENS7_17JoystickConnectedENS7_20JoystickDisconnectedENS7_10TouchBeganENS7_10TouchMovedENS7_10TouchEndedENS7_13SensorChangedEEEELm1EEEODaOT_NS_16in_place_index_tIXT0_EEE, symObjAddr: 0x10234, symBinAddr: 0x1000134D0, symSize: 0x24 }
  - { offsetInCU: 0x424DD, offset: 0x424DD, size: 0x8, addend: 0x0, symName: __ZNSt3__116__variant_detail8__access7__union9__get_altB8ue170006IRKNS0_7__unionILNS0_6_TraitE0ELm8EJN2sf5Event18MouseButtonPressedENS7_19MouseButtonReleasedENS7_10MouseMovedENS7_13MouseMovedRawENS7_12MouseEnteredENS7_9MouseLeftENS7_21JoystickButtonPressedENS7_22JoystickButtonReleasedENS7_13JoystickMovedENS7_17JoystickConnectedENS7_20JoystickDisconnectedENS7_10TouchBeganENS7_10TouchMovedENS7_10TouchEndedENS7_13SensorChangedEEEEEEODaOT_NS_16in_place_index_tILm0EEE, symObjAddr: 0x10258, symBinAddr: 0x1000134F4, symSize: 0x14 }
  - { offsetInCU: 0x42521, offset: 0x42521, size: 0x8, addend: 0x0, symName: __ZNSt3__116__variant_detail8__access6__base9__get_altB8ue170006ILm9ERKNS0_6__baseILNS0_6_TraitE0EJN2sf5Event6ClosedENS7_7ResizedENS7_9FocusLostENS7_11FocusGainedENS7_11TextEnteredENS7_10KeyPressedENS7_11KeyReleasedENS7_18MouseWheelScrolledENS7_18MouseButtonPressedENS7_19MouseButtonReleasedENS7_10MouseMovedENS7_13MouseMovedRawENS7_12MouseEnteredENS7_9MouseLeftENS7_21JoystickButtonPressedENS7_22JoystickButtonReleasedENS7_13JoystickMovedENS7_17JoystickConnectedENS7_20JoystickDisconnectedENS7_10TouchBeganENS7_10TouchMovedENS7_10TouchEndedENS7_13SensorChangedEEEEEEODaOT0_, symObjAddr: 0x10298, symBinAddr: 0x100013534, symSize: 0x24 }
  - { offsetInCU: 0x42558, offset: 0x42558, size: 0x8, addend: 0x0, symName: '__ZNKSt3__116__variant_detail12__visitation9__variant15__value_visitorIRN2sf4priv11OverloadSetIJZ6drivervE3$_0ZNS4_10WindowBase12handleEventsIJRKS7_EEEvDpOT_EUlRKNS5_23DelayOverloadResolutionEE_EEEEclB8ue170006IJRKNS0_5__altILm9ENS4_5Event19MouseButtonReleasedEEEEEEDcSE_', symObjAddr: 0x102BC, symBinAddr: 0x100013558, symSize: 0x3C }
  - { offsetInCU: 0x425A3, offset: 0x425A3, size: 0x8, addend: 0x0, symName: '__ZNSt3__116__variant_detail12__visitation9__variant36__std_visit_exhaustive_visitor_checkB8ue170006IRN2sf4priv11OverloadSetIJZ6drivervE3$_0ZNS4_10WindowBase12handleEventsIJRKS7_EEEvDpOT_EUlRKNS5_23DelayOverloadResolutionEE_EEEJRKNS4_5Event19MouseButtonReleasedEEEEvv', symObjAddr: 0x102F8, symBinAddr: 0x100013594, symSize: 0x4 }
  - { offsetInCU: 0x425CC, offset: 0x425CC, size: 0x8, addend: 0x0, symName: __ZN2sf4priv23DelayOverloadResolutionC1INS_5Event19MouseButtonReleasedEEERKT_, symObjAddr: 0x10340, symBinAddr: 0x1000135DC, symSize: 0x34 }
  - { offsetInCU: 0x4260A, offset: 0x4260A, size: 0x8, addend: 0x0, symName: __ZN2sf4priv23DelayOverloadResolutionC2INS_5Event19MouseButtonReleasedEEERKT_, symObjAddr: 0x10374, symBinAddr: 0x100013610, symSize: 0x18 }
  - { offsetInCU: 0x42648, offset: 0x42648, size: 0x8, addend: 0x0, symName: __ZNSt3__116__variant_detail8__access7__union9__get_altB8ue170006IRKNS0_7__unionILNS0_6_TraitE0ELm0EJN2sf5Event6ClosedENS7_7ResizedENS7_9FocusLostENS7_11FocusGainedENS7_11TextEnteredENS7_10KeyPressedENS7_11KeyReleasedENS7_18MouseWheelScrolledENS7_18MouseButtonPressedENS7_19MouseButtonReleasedENS7_10MouseMovedENS7_13MouseMovedRawENS7_12MouseEnteredENS7_9MouseLeftENS7_21JoystickButtonPressedENS7_22JoystickButtonReleasedENS7_13JoystickMovedENS7_17JoystickConnectedENS7_20JoystickDisconnectedENS7_10TouchBeganENS7_10TouchMovedENS7_10TouchEndedENS7_13SensorChangedEEEELm9EEEODaOT_NS_16in_place_index_tIXT0_EEE, symObjAddr: 0x1038C, symBinAddr: 0x100013628, symSize: 0x24 }
  - { offsetInCU: 0x4268B, offset: 0x4268B, size: 0x8, addend: 0x0, symName: __ZNSt3__116__variant_detail8__access7__union9__get_altB8ue170006IRKNS0_7__unionILNS0_6_TraitE0ELm1EJN2sf5Event7ResizedENS7_9FocusLostENS7_11FocusGainedENS7_11TextEnteredENS7_10KeyPressedENS7_11KeyReleasedENS7_18MouseWheelScrolledENS7_18MouseButtonPressedENS7_19MouseButtonReleasedENS7_10MouseMovedENS7_13MouseMovedRawENS7_12MouseEnteredENS7_9MouseLeftENS7_21JoystickButtonPressedENS7_22JoystickButtonReleasedENS7_13JoystickMovedENS7_17JoystickConnectedENS7_20JoystickDisconnectedENS7_10TouchBeganENS7_10TouchMovedENS7_10TouchEndedENS7_13SensorChangedEEEELm8EEEODaOT_NS_16in_place_index_tIXT0_EEE, symObjAddr: 0x103B0, symBinAddr: 0x10001364C, symSize: 0x24 }
  - { offsetInCU: 0x426CE, offset: 0x426CE, size: 0x8, addend: 0x0, symName: __ZNSt3__116__variant_detail8__access7__union9__get_altB8ue170006IRKNS0_7__unionILNS0_6_TraitE0ELm2EJN2sf5Event9FocusLostENS7_11FocusGainedENS7_11TextEnteredENS7_10KeyPressedENS7_11KeyReleasedENS7_18MouseWheelScrolledENS7_18MouseButtonPressedENS7_19MouseButtonReleasedENS7_10MouseMovedENS7_13MouseMovedRawENS7_12MouseEnteredENS7_9MouseLeftENS7_21JoystickButtonPressedENS7_22JoystickButtonReleasedENS7_13JoystickMovedENS7_17JoystickConnectedENS7_20JoystickDisconnectedENS7_10TouchBeganENS7_10TouchMovedENS7_10TouchEndedENS7_13SensorChangedEEEELm7EEEODaOT_NS_16in_place_index_tIXT0_EEE, symObjAddr: 0x103D4, symBinAddr: 0x100013670, symSize: 0x24 }
  - { offsetInCU: 0x42711, offset: 0x42711, size: 0x8, addend: 0x0, symName: __ZNSt3__116__variant_detail8__access7__union9__get_altB8ue170006IRKNS0_7__unionILNS0_6_TraitE0ELm3EJN2sf5Event11FocusGainedENS7_11TextEnteredENS7_10KeyPressedENS7_11KeyReleasedENS7_18MouseWheelScrolledENS7_18MouseButtonPressedENS7_19MouseButtonReleasedENS7_10MouseMovedENS7_13MouseMovedRawENS7_12MouseEnteredENS7_9MouseLeftENS7_21JoystickButtonPressedENS7_22JoystickButtonReleasedENS7_13JoystickMovedENS7_17JoystickConnectedENS7_20JoystickDisconnectedENS7_10TouchBeganENS7_10TouchMovedENS7_10TouchEndedENS7_13SensorChangedEEEELm6EEEODaOT_NS_16in_place_index_tIXT0_EEE, symObjAddr: 0x103F8, symBinAddr: 0x100013694, symSize: 0x24 }
  - { offsetInCU: 0x42754, offset: 0x42754, size: 0x8, addend: 0x0, symName: __ZNSt3__116__variant_detail8__access7__union9__get_altB8ue170006IRKNS0_7__unionILNS0_6_TraitE0ELm4EJN2sf5Event11TextEnteredENS7_10KeyPressedENS7_11KeyReleasedENS7_18MouseWheelScrolledENS7_18MouseButtonPressedENS7_19MouseButtonReleasedENS7_10MouseMovedENS7_13MouseMovedRawENS7_12MouseEnteredENS7_9MouseLeftENS7_21JoystickButtonPressedENS7_22JoystickButtonReleasedENS7_13JoystickMovedENS7_17JoystickConnectedENS7_20JoystickDisconnectedENS7_10TouchBeganENS7_10TouchMovedENS7_10TouchEndedENS7_13SensorChangedEEEELm5EEEODaOT_NS_16in_place_index_tIXT0_EEE, symObjAddr: 0x1041C, symBinAddr: 0x1000136B8, symSize: 0x24 }
  - { offsetInCU: 0x42797, offset: 0x42797, size: 0x8, addend: 0x0, symName: __ZNSt3__116__variant_detail8__access7__union9__get_altB8ue170006IRKNS0_7__unionILNS0_6_TraitE0ELm5EJN2sf5Event10KeyPressedENS7_11KeyReleasedENS7_18MouseWheelScrolledENS7_18MouseButtonPressedENS7_19MouseButtonReleasedENS7_10MouseMovedENS7_13MouseMovedRawENS7_12MouseEnteredENS7_9MouseLeftENS7_21JoystickButtonPressedENS7_22JoystickButtonReleasedENS7_13JoystickMovedENS7_17JoystickConnectedENS7_20JoystickDisconnectedENS7_10TouchBeganENS7_10TouchMovedENS7_10TouchEndedENS7_13SensorChangedEEEELm4EEEODaOT_NS_16in_place_index_tIXT0_EEE, symObjAddr: 0x10440, symBinAddr: 0x1000136DC, symSize: 0x24 }
  - { offsetInCU: 0x427DA, offset: 0x427DA, size: 0x8, addend: 0x0, symName: __ZNSt3__116__variant_detail8__access7__union9__get_altB8ue170006IRKNS0_7__unionILNS0_6_TraitE0ELm6EJN2sf5Event11KeyReleasedENS7_18MouseWheelScrolledENS7_18MouseButtonPressedENS7_19MouseButtonReleasedENS7_10MouseMovedENS7_13MouseMovedRawENS7_12MouseEnteredENS7_9MouseLeftENS7_21JoystickButtonPressedENS7_22JoystickButtonReleasedENS7_13JoystickMovedENS7_17JoystickConnectedENS7_20JoystickDisconnectedENS7_10TouchBeganENS7_10TouchMovedENS7_10TouchEndedENS7_13SensorChangedEEEELm3EEEODaOT_NS_16in_place_index_tIXT0_EEE, symObjAddr: 0x10464, symBinAddr: 0x100013700, symSize: 0x24 }
  - { offsetInCU: 0x4281D, offset: 0x4281D, size: 0x8, addend: 0x0, symName: __ZNSt3__116__variant_detail8__access7__union9__get_altB8ue170006IRKNS0_7__unionILNS0_6_TraitE0ELm7EJN2sf5Event18MouseWheelScrolledENS7_18MouseButtonPressedENS7_19MouseButtonReleasedENS7_10MouseMovedENS7_13MouseMovedRawENS7_12MouseEnteredENS7_9MouseLeftENS7_21JoystickButtonPressedENS7_22JoystickButtonReleasedENS7_13JoystickMovedENS7_17JoystickConnectedENS7_20JoystickDisconnectedENS7_10TouchBeganENS7_10TouchMovedENS7_10TouchEndedENS7_13SensorChangedEEEELm2EEEODaOT_NS_16in_place_index_tIXT0_EEE, symObjAddr: 0x10488, symBinAddr: 0x100013724, symSize: 0x24 }
  - { offsetInCU: 0x42860, offset: 0x42860, size: 0x8, addend: 0x0, symName: __ZNSt3__116__variant_detail8__access7__union9__get_altB8ue170006IRKNS0_7__unionILNS0_6_TraitE0ELm8EJN2sf5Event18MouseButtonPressedENS7_19MouseButtonReleasedENS7_10MouseMovedENS7_13MouseMovedRawENS7_12MouseEnteredENS7_9MouseLeftENS7_21JoystickButtonPressedENS7_22JoystickButtonReleasedENS7_13JoystickMovedENS7_17JoystickConnectedENS7_20JoystickDisconnectedENS7_10TouchBeganENS7_10TouchMovedENS7_10TouchEndedENS7_13SensorChangedEEEELm1EEEODaOT_NS_16in_place_index_tIXT0_EEE, symObjAddr: 0x104AC, symBinAddr: 0x100013748, symSize: 0x24 }
  - { offsetInCU: 0x428A3, offset: 0x428A3, size: 0x8, addend: 0x0, symName: __ZNSt3__116__variant_detail8__access7__union9__get_altB8ue170006IRKNS0_7__unionILNS0_6_TraitE0ELm9EJN2sf5Event19MouseButtonReleasedENS7_10MouseMovedENS7_13MouseMovedRawENS7_12MouseEnteredENS7_9MouseLeftENS7_21JoystickButtonPressedENS7_22JoystickButtonReleasedENS7_13JoystickMovedENS7_17JoystickConnectedENS7_20JoystickDisconnectedENS7_10TouchBeganENS7_10TouchMovedENS7_10TouchEndedENS7_13SensorChangedEEEEEEODaOT_NS_16in_place_index_tILm0EEE, symObjAddr: 0x104D0, symBinAddr: 0x10001376C, symSize: 0x14 }
  - { offsetInCU: 0x428E7, offset: 0x428E7, size: 0x8, addend: 0x0, symName: __ZNSt3__116__variant_detail8__access6__base9__get_altB8ue170006ILm10ERKNS0_6__baseILNS0_6_TraitE0EJN2sf5Event6ClosedENS7_7ResizedENS7_9FocusLostENS7_11FocusGainedENS7_11TextEnteredENS7_10KeyPressedENS7_11KeyReleasedENS7_18MouseWheelScrolledENS7_18MouseButtonPressedENS7_19MouseButtonReleasedENS7_10MouseMovedENS7_13MouseMovedRawENS7_12MouseEnteredENS7_9MouseLeftENS7_21JoystickButtonPressedENS7_22JoystickButtonReleasedENS7_13JoystickMovedENS7_17JoystickConnectedENS7_20JoystickDisconnectedENS7_10TouchBeganENS7_10TouchMovedENS7_10TouchEndedENS7_13SensorChangedEEEEEEODaOT0_, symObjAddr: 0x10510, symBinAddr: 0x1000137AC, symSize: 0x24 }
  - { offsetInCU: 0x4291E, offset: 0x4291E, size: 0x8, addend: 0x0, symName: '__ZNKSt3__116__variant_detail12__visitation9__variant15__value_visitorIRN2sf4priv11OverloadSetIJZ6drivervE3$_0ZNS4_10WindowBase12handleEventsIJRKS7_EEEvDpOT_EUlRKNS5_23DelayOverloadResolutionEE_EEEEclB8ue170006IJRKNS0_5__altILm10ENS4_5Event10MouseMovedEEEEEEDcSE_', symObjAddr: 0x10534, symBinAddr: 0x1000137D0, symSize: 0x3C }
  - { offsetInCU: 0x42969, offset: 0x42969, size: 0x8, addend: 0x0, symName: '__ZNSt3__116__variant_detail12__visitation9__variant36__std_visit_exhaustive_visitor_checkB8ue170006IRN2sf4priv11OverloadSetIJZ6drivervE3$_0ZNS4_10WindowBase12handleEventsIJRKS7_EEEvDpOT_EUlRKNS5_23DelayOverloadResolutionEE_EEEJRKNS4_5Event10MouseMovedEEEEvv', symObjAddr: 0x10570, symBinAddr: 0x10001380C, symSize: 0x4 }
  - { offsetInCU: 0x42992, offset: 0x42992, size: 0x8, addend: 0x0, symName: __ZN2sf4priv23DelayOverloadResolutionC1INS_5Event10MouseMovedEEERKT_, symObjAddr: 0x105B8, symBinAddr: 0x100013854, symSize: 0x34 }
  - { offsetInCU: 0x429D0, offset: 0x429D0, size: 0x8, addend: 0x0, symName: __ZN2sf4priv23DelayOverloadResolutionC2INS_5Event10MouseMovedEEERKT_, symObjAddr: 0x105EC, symBinAddr: 0x100013888, symSize: 0x18 }
  - { offsetInCU: 0x42A0E, offset: 0x42A0E, size: 0x8, addend: 0x0, symName: __ZNSt3__116__variant_detail8__access7__union9__get_altB8ue170006IRKNS0_7__unionILNS0_6_TraitE0ELm0EJN2sf5Event6ClosedENS7_7ResizedENS7_9FocusLostENS7_11FocusGainedENS7_11TextEnteredENS7_10KeyPressedENS7_11KeyReleasedENS7_18MouseWheelScrolledENS7_18MouseButtonPressedENS7_19MouseButtonReleasedENS7_10MouseMovedENS7_13MouseMovedRawENS7_12MouseEnteredENS7_9MouseLeftENS7_21JoystickButtonPressedENS7_22JoystickButtonReleasedENS7_13JoystickMovedENS7_17JoystickConnectedENS7_20JoystickDisconnectedENS7_10TouchBeganENS7_10TouchMovedENS7_10TouchEndedENS7_13SensorChangedEEEELm10EEEODaOT_NS_16in_place_index_tIXT0_EEE, symObjAddr: 0x10604, symBinAddr: 0x1000138A0, symSize: 0x24 }
  - { offsetInCU: 0x42A51, offset: 0x42A51, size: 0x8, addend: 0x0, symName: __ZNSt3__116__variant_detail8__access7__union9__get_altB8ue170006IRKNS0_7__unionILNS0_6_TraitE0ELm1EJN2sf5Event7ResizedENS7_9FocusLostENS7_11FocusGainedENS7_11TextEnteredENS7_10KeyPressedENS7_11KeyReleasedENS7_18MouseWheelScrolledENS7_18MouseButtonPressedENS7_19MouseButtonReleasedENS7_10MouseMovedENS7_13MouseMovedRawENS7_12MouseEnteredENS7_9MouseLeftENS7_21JoystickButtonPressedENS7_22JoystickButtonReleasedENS7_13JoystickMovedENS7_17JoystickConnectedENS7_20JoystickDisconnectedENS7_10TouchBeganENS7_10TouchMovedENS7_10TouchEndedENS7_13SensorChangedEEEELm9EEEODaOT_NS_16in_place_index_tIXT0_EEE, symObjAddr: 0x10628, symBinAddr: 0x1000138C4, symSize: 0x24 }
  - { offsetInCU: 0x42A94, offset: 0x42A94, size: 0x8, addend: 0x0, symName: __ZNSt3__116__variant_detail8__access7__union9__get_altB8ue170006IRKNS0_7__unionILNS0_6_TraitE0ELm2EJN2sf5Event9FocusLostENS7_11FocusGainedENS7_11TextEnteredENS7_10KeyPressedENS7_11KeyReleasedENS7_18MouseWheelScrolledENS7_18MouseButtonPressedENS7_19MouseButtonReleasedENS7_10MouseMovedENS7_13MouseMovedRawENS7_12MouseEnteredENS7_9MouseLeftENS7_21JoystickButtonPressedENS7_22JoystickButtonReleasedENS7_13JoystickMovedENS7_17JoystickConnectedENS7_20JoystickDisconnectedENS7_10TouchBeganENS7_10TouchMovedENS7_10TouchEndedENS7_13SensorChangedEEEELm8EEEODaOT_NS_16in_place_index_tIXT0_EEE, symObjAddr: 0x1064C, symBinAddr: 0x1000138E8, symSize: 0x24 }
  - { offsetInCU: 0x42AD7, offset: 0x42AD7, size: 0x8, addend: 0x0, symName: __ZNSt3__116__variant_detail8__access7__union9__get_altB8ue170006IRKNS0_7__unionILNS0_6_TraitE0ELm3EJN2sf5Event11FocusGainedENS7_11TextEnteredENS7_10KeyPressedENS7_11KeyReleasedENS7_18MouseWheelScrolledENS7_18MouseButtonPressedENS7_19MouseButtonReleasedENS7_10MouseMovedENS7_13MouseMovedRawENS7_12MouseEnteredENS7_9MouseLeftENS7_21JoystickButtonPressedENS7_22JoystickButtonReleasedENS7_13JoystickMovedENS7_17JoystickConnectedENS7_20JoystickDisconnectedENS7_10TouchBeganENS7_10TouchMovedENS7_10TouchEndedENS7_13SensorChangedEEEELm7EEEODaOT_NS_16in_place_index_tIXT0_EEE, symObjAddr: 0x10670, symBinAddr: 0x10001390C, symSize: 0x24 }
  - { offsetInCU: 0x42B1A, offset: 0x42B1A, size: 0x8, addend: 0x0, symName: __ZNSt3__116__variant_detail8__access7__union9__get_altB8ue170006IRKNS0_7__unionILNS0_6_TraitE0ELm4EJN2sf5Event11TextEnteredENS7_10KeyPressedENS7_11KeyReleasedENS7_18MouseWheelScrolledENS7_18MouseButtonPressedENS7_19MouseButtonReleasedENS7_10MouseMovedENS7_13MouseMovedRawENS7_12MouseEnteredENS7_9MouseLeftENS7_21JoystickButtonPressedENS7_22JoystickButtonReleasedENS7_13JoystickMovedENS7_17JoystickConnectedENS7_20JoystickDisconnectedENS7_10TouchBeganENS7_10TouchMovedENS7_10TouchEndedENS7_13SensorChangedEEEELm6EEEODaOT_NS_16in_place_index_tIXT0_EEE, symObjAddr: 0x10694, symBinAddr: 0x100013930, symSize: 0x24 }
  - { offsetInCU: 0x42B5D, offset: 0x42B5D, size: 0x8, addend: 0x0, symName: __ZNSt3__116__variant_detail8__access7__union9__get_altB8ue170006IRKNS0_7__unionILNS0_6_TraitE0ELm5EJN2sf5Event10KeyPressedENS7_11KeyReleasedENS7_18MouseWheelScrolledENS7_18MouseButtonPressedENS7_19MouseButtonReleasedENS7_10MouseMovedENS7_13MouseMovedRawENS7_12MouseEnteredENS7_9MouseLeftENS7_21JoystickButtonPressedENS7_22JoystickButtonReleasedENS7_13JoystickMovedENS7_17JoystickConnectedENS7_20JoystickDisconnectedENS7_10TouchBeganENS7_10TouchMovedENS7_10TouchEndedENS7_13SensorChangedEEEELm5EEEODaOT_NS_16in_place_index_tIXT0_EEE, symObjAddr: 0x106B8, symBinAddr: 0x100013954, symSize: 0x24 }
  - { offsetInCU: 0x42BA0, offset: 0x42BA0, size: 0x8, addend: 0x0, symName: __ZNSt3__116__variant_detail8__access7__union9__get_altB8ue170006IRKNS0_7__unionILNS0_6_TraitE0ELm6EJN2sf5Event11KeyReleasedENS7_18MouseWheelScrolledENS7_18MouseButtonPressedENS7_19MouseButtonReleasedENS7_10MouseMovedENS7_13MouseMovedRawENS7_12MouseEnteredENS7_9MouseLeftENS7_21JoystickButtonPressedENS7_22JoystickButtonReleasedENS7_13JoystickMovedENS7_17JoystickConnectedENS7_20JoystickDisconnectedENS7_10TouchBeganENS7_10TouchMovedENS7_10TouchEndedENS7_13SensorChangedEEEELm4EEEODaOT_NS_16in_place_index_tIXT0_EEE, symObjAddr: 0x106DC, symBinAddr: 0x100013978, symSize: 0x24 }
  - { offsetInCU: 0x42BE3, offset: 0x42BE3, size: 0x8, addend: 0x0, symName: __ZNSt3__116__variant_detail8__access7__union9__get_altB8ue170006IRKNS0_7__unionILNS0_6_TraitE0ELm7EJN2sf5Event18MouseWheelScrolledENS7_18MouseButtonPressedENS7_19MouseButtonReleasedENS7_10MouseMovedENS7_13MouseMovedRawENS7_12MouseEnteredENS7_9MouseLeftENS7_21JoystickButtonPressedENS7_22JoystickButtonReleasedENS7_13JoystickMovedENS7_17JoystickConnectedENS7_20JoystickDisconnectedENS7_10TouchBeganENS7_10TouchMovedENS7_10TouchEndedENS7_13SensorChangedEEEELm3EEEODaOT_NS_16in_place_index_tIXT0_EEE, symObjAddr: 0x10700, symBinAddr: 0x10001399C, symSize: 0x24 }
  - { offsetInCU: 0x42C26, offset: 0x42C26, size: 0x8, addend: 0x0, symName: __ZNSt3__116__variant_detail8__access7__union9__get_altB8ue170006IRKNS0_7__unionILNS0_6_TraitE0ELm8EJN2sf5Event18MouseButtonPressedENS7_19MouseButtonReleasedENS7_10MouseMovedENS7_13MouseMovedRawENS7_12MouseEnteredENS7_9MouseLeftENS7_21JoystickButtonPressedENS7_22JoystickButtonReleasedENS7_13JoystickMovedENS7_17JoystickConnectedENS7_20JoystickDisconnectedENS7_10TouchBeganENS7_10TouchMovedENS7_10TouchEndedENS7_13SensorChangedEEEELm2EEEODaOT_NS_16in_place_index_tIXT0_EEE, symObjAddr: 0x10724, symBinAddr: 0x1000139C0, symSize: 0x24 }
  - { offsetInCU: 0x42C69, offset: 0x42C69, size: 0x8, addend: 0x0, symName: __ZNSt3__116__variant_detail8__access7__union9__get_altB8ue170006IRKNS0_7__unionILNS0_6_TraitE0ELm9EJN2sf5Event19MouseButtonReleasedENS7_10MouseMovedENS7_13MouseMovedRawENS7_12MouseEnteredENS7_9MouseLeftENS7_21JoystickButtonPressedENS7_22JoystickButtonReleasedENS7_13JoystickMovedENS7_17JoystickConnectedENS7_20JoystickDisconnectedENS7_10TouchBeganENS7_10TouchMovedENS7_10TouchEndedENS7_13SensorChangedEEEELm1EEEODaOT_NS_16in_place_index_tIXT0_EEE, symObjAddr: 0x10748, symBinAddr: 0x1000139E4, symSize: 0x24 }
  - { offsetInCU: 0x42CAC, offset: 0x42CAC, size: 0x8, addend: 0x0, symName: __ZNSt3__116__variant_detail8__access7__union9__get_altB8ue170006IRKNS0_7__unionILNS0_6_TraitE0ELm10EJN2sf5Event10MouseMovedENS7_13MouseMovedRawENS7_12MouseEnteredENS7_9MouseLeftENS7_21JoystickButtonPressedENS7_22JoystickButtonReleasedENS7_13JoystickMovedENS7_17JoystickConnectedENS7_20JoystickDisconnectedENS7_10TouchBeganENS7_10TouchMovedENS7_10TouchEndedENS7_13SensorChangedEEEEEEODaOT_NS_16in_place_index_tILm0EEE, symObjAddr: 0x1076C, symBinAddr: 0x100013A08, symSize: 0x14 }
  - { offsetInCU: 0x42CF0, offset: 0x42CF0, size: 0x8, addend: 0x0, symName: __ZNSt3__116__variant_detail8__access6__base9__get_altB8ue170006ILm11ERKNS0_6__baseILNS0_6_TraitE0EJN2sf5Event6ClosedENS7_7ResizedENS7_9FocusLostENS7_11FocusGainedENS7_11TextEnteredENS7_10KeyPressedENS7_11KeyReleasedENS7_18MouseWheelScrolledENS7_18MouseButtonPressedENS7_19MouseButtonReleasedENS7_10MouseMovedENS7_13MouseMovedRawENS7_12MouseEnteredENS7_9MouseLeftENS7_21JoystickButtonPressedENS7_22JoystickButtonReleasedENS7_13JoystickMovedENS7_17JoystickConnectedENS7_20JoystickDisconnectedENS7_10TouchBeganENS7_10TouchMovedENS7_10TouchEndedENS7_13SensorChangedEEEEEEODaOT0_, symObjAddr: 0x107AC, symBinAddr: 0x100013A48, symSize: 0x24 }
  - { offsetInCU: 0x42D27, offset: 0x42D27, size: 0x8, addend: 0x0, symName: '__ZNKSt3__116__variant_detail12__visitation9__variant15__value_visitorIRN2sf4priv11OverloadSetIJZ6drivervE3$_0ZNS4_10WindowBase12handleEventsIJRKS7_EEEvDpOT_EUlRKNS5_23DelayOverloadResolutionEE_EEEEclB8ue170006IJRKNS0_5__altILm11ENS4_5Event13MouseMovedRawEEEEEEDcSE_', symObjAddr: 0x107D0, symBinAddr: 0x100013A6C, symSize: 0x3C }
  - { offsetInCU: 0x42D72, offset: 0x42D72, size: 0x8, addend: 0x0, symName: '__ZNSt3__116__variant_detail12__visitation9__variant36__std_visit_exhaustive_visitor_checkB8ue170006IRN2sf4priv11OverloadSetIJZ6drivervE3$_0ZNS4_10WindowBase12handleEventsIJRKS7_EEEvDpOT_EUlRKNS5_23DelayOverloadResolutionEE_EEEJRKNS4_5Event13MouseMovedRawEEEEvv', symObjAddr: 0x1080C, symBinAddr: 0x100013AA8, symSize: 0x4 }
  - { offsetInCU: 0x42D9B, offset: 0x42D9B, size: 0x8, addend: 0x0, symName: __ZN2sf4priv23DelayOverloadResolutionC1INS_5Event13MouseMovedRawEEERKT_, symObjAddr: 0x10854, symBinAddr: 0x100013AF0, symSize: 0x34 }
  - { offsetInCU: 0x42DD9, offset: 0x42DD9, size: 0x8, addend: 0x0, symName: __ZN2sf4priv23DelayOverloadResolutionC2INS_5Event13MouseMovedRawEEERKT_, symObjAddr: 0x10888, symBinAddr: 0x100013B24, symSize: 0x18 }
  - { offsetInCU: 0x42E17, offset: 0x42E17, size: 0x8, addend: 0x0, symName: __ZNSt3__116__variant_detail8__access7__union9__get_altB8ue170006IRKNS0_7__unionILNS0_6_TraitE0ELm0EJN2sf5Event6ClosedENS7_7ResizedENS7_9FocusLostENS7_11FocusGainedENS7_11TextEnteredENS7_10KeyPressedENS7_11KeyReleasedENS7_18MouseWheelScrolledENS7_18MouseButtonPressedENS7_19MouseButtonReleasedENS7_10MouseMovedENS7_13MouseMovedRawENS7_12MouseEnteredENS7_9MouseLeftENS7_21JoystickButtonPressedENS7_22JoystickButtonReleasedENS7_13JoystickMovedENS7_17JoystickConnectedENS7_20JoystickDisconnectedENS7_10TouchBeganENS7_10TouchMovedENS7_10TouchEndedENS7_13SensorChangedEEEELm11EEEODaOT_NS_16in_place_index_tIXT0_EEE, symObjAddr: 0x108A0, symBinAddr: 0x100013B3C, symSize: 0x24 }
  - { offsetInCU: 0x42E5A, offset: 0x42E5A, size: 0x8, addend: 0x0, symName: __ZNSt3__116__variant_detail8__access7__union9__get_altB8ue170006IRKNS0_7__unionILNS0_6_TraitE0ELm1EJN2sf5Event7ResizedENS7_9FocusLostENS7_11FocusGainedENS7_11TextEnteredENS7_10KeyPressedENS7_11KeyReleasedENS7_18MouseWheelScrolledENS7_18MouseButtonPressedENS7_19MouseButtonReleasedENS7_10MouseMovedENS7_13MouseMovedRawENS7_12MouseEnteredENS7_9MouseLeftENS7_21JoystickButtonPressedENS7_22JoystickButtonReleasedENS7_13JoystickMovedENS7_17JoystickConnectedENS7_20JoystickDisconnectedENS7_10TouchBeganENS7_10TouchMovedENS7_10TouchEndedENS7_13SensorChangedEEEELm10EEEODaOT_NS_16in_place_index_tIXT0_EEE, symObjAddr: 0x108C4, symBinAddr: 0x100013B60, symSize: 0x24 }
  - { offsetInCU: 0x42E9D, offset: 0x42E9D, size: 0x8, addend: 0x0, symName: __ZNSt3__116__variant_detail8__access7__union9__get_altB8ue170006IRKNS0_7__unionILNS0_6_TraitE0ELm2EJN2sf5Event9FocusLostENS7_11FocusGainedENS7_11TextEnteredENS7_10KeyPressedENS7_11KeyReleasedENS7_18MouseWheelScrolledENS7_18MouseButtonPressedENS7_19MouseButtonReleasedENS7_10MouseMovedENS7_13MouseMovedRawENS7_12MouseEnteredENS7_9MouseLeftENS7_21JoystickButtonPressedENS7_22JoystickButtonReleasedENS7_13JoystickMovedENS7_17JoystickConnectedENS7_20JoystickDisconnectedENS7_10TouchBeganENS7_10TouchMovedENS7_10TouchEndedENS7_13SensorChangedEEEELm9EEEODaOT_NS_16in_place_index_tIXT0_EEE, symObjAddr: 0x108E8, symBinAddr: 0x100013B84, symSize: 0x24 }
  - { offsetInCU: 0x42EE0, offset: 0x42EE0, size: 0x8, addend: 0x0, symName: __ZNSt3__116__variant_detail8__access7__union9__get_altB8ue170006IRKNS0_7__unionILNS0_6_TraitE0ELm3EJN2sf5Event11FocusGainedENS7_11TextEnteredENS7_10KeyPressedENS7_11KeyReleasedENS7_18MouseWheelScrolledENS7_18MouseButtonPressedENS7_19MouseButtonReleasedENS7_10MouseMovedENS7_13MouseMovedRawENS7_12MouseEnteredENS7_9MouseLeftENS7_21JoystickButtonPressedENS7_22JoystickButtonReleasedENS7_13JoystickMovedENS7_17JoystickConnectedENS7_20JoystickDisconnectedENS7_10TouchBeganENS7_10TouchMovedENS7_10TouchEndedENS7_13SensorChangedEEEELm8EEEODaOT_NS_16in_place_index_tIXT0_EEE, symObjAddr: 0x1090C, symBinAddr: 0x100013BA8, symSize: 0x24 }
  - { offsetInCU: 0x42F23, offset: 0x42F23, size: 0x8, addend: 0x0, symName: __ZNSt3__116__variant_detail8__access7__union9__get_altB8ue170006IRKNS0_7__unionILNS0_6_TraitE0ELm4EJN2sf5Event11TextEnteredENS7_10KeyPressedENS7_11KeyReleasedENS7_18MouseWheelScrolledENS7_18MouseButtonPressedENS7_19MouseButtonReleasedENS7_10MouseMovedENS7_13MouseMovedRawENS7_12MouseEnteredENS7_9MouseLeftENS7_21JoystickButtonPressedENS7_22JoystickButtonReleasedENS7_13JoystickMovedENS7_17JoystickConnectedENS7_20JoystickDisconnectedENS7_10TouchBeganENS7_10TouchMovedENS7_10TouchEndedENS7_13SensorChangedEEEELm7EEEODaOT_NS_16in_place_index_tIXT0_EEE, symObjAddr: 0x10930, symBinAddr: 0x100013BCC, symSize: 0x24 }
  - { offsetInCU: 0x42F66, offset: 0x42F66, size: 0x8, addend: 0x0, symName: __ZNSt3__116__variant_detail8__access7__union9__get_altB8ue170006IRKNS0_7__unionILNS0_6_TraitE0ELm5EJN2sf5Event10KeyPressedENS7_11KeyReleasedENS7_18MouseWheelScrolledENS7_18MouseButtonPressedENS7_19MouseButtonReleasedENS7_10MouseMovedENS7_13MouseMovedRawENS7_12MouseEnteredENS7_9MouseLeftENS7_21JoystickButtonPressedENS7_22JoystickButtonReleasedENS7_13JoystickMovedENS7_17JoystickConnectedENS7_20JoystickDisconnectedENS7_10TouchBeganENS7_10TouchMovedENS7_10TouchEndedENS7_13SensorChangedEEEELm6EEEODaOT_NS_16in_place_index_tIXT0_EEE, symObjAddr: 0x10954, symBinAddr: 0x100013BF0, symSize: 0x24 }
  - { offsetInCU: 0x42FA9, offset: 0x42FA9, size: 0x8, addend: 0x0, symName: __ZNSt3__116__variant_detail8__access7__union9__get_altB8ue170006IRKNS0_7__unionILNS0_6_TraitE0ELm6EJN2sf5Event11KeyReleasedENS7_18MouseWheelScrolledENS7_18MouseButtonPressedENS7_19MouseButtonReleasedENS7_10MouseMovedENS7_13MouseMovedRawENS7_12MouseEnteredENS7_9MouseLeftENS7_21JoystickButtonPressedENS7_22JoystickButtonReleasedENS7_13JoystickMovedENS7_17JoystickConnectedENS7_20JoystickDisconnectedENS7_10TouchBeganENS7_10TouchMovedENS7_10TouchEndedENS7_13SensorChangedEEEELm5EEEODaOT_NS_16in_place_index_tIXT0_EEE, symObjAddr: 0x10978, symBinAddr: 0x100013C14, symSize: 0x24 }
  - { offsetInCU: 0x42FEC, offset: 0x42FEC, size: 0x8, addend: 0x0, symName: __ZNSt3__116__variant_detail8__access7__union9__get_altB8ue170006IRKNS0_7__unionILNS0_6_TraitE0ELm7EJN2sf5Event18MouseWheelScrolledENS7_18MouseButtonPressedENS7_19MouseButtonReleasedENS7_10MouseMovedENS7_13MouseMovedRawENS7_12MouseEnteredENS7_9MouseLeftENS7_21JoystickButtonPressedENS7_22JoystickButtonReleasedENS7_13JoystickMovedENS7_17JoystickConnectedENS7_20JoystickDisconnectedENS7_10TouchBeganENS7_10TouchMovedENS7_10TouchEndedENS7_13SensorChangedEEEELm4EEEODaOT_NS_16in_place_index_tIXT0_EEE, symObjAddr: 0x1099C, symBinAddr: 0x100013C38, symSize: 0x24 }
  - { offsetInCU: 0x4302F, offset: 0x4302F, size: 0x8, addend: 0x0, symName: __ZNSt3__116__variant_detail8__access7__union9__get_altB8ue170006IRKNS0_7__unionILNS0_6_TraitE0ELm8EJN2sf5Event18MouseButtonPressedENS7_19MouseButtonReleasedENS7_10MouseMovedENS7_13MouseMovedRawENS7_12MouseEnteredENS7_9MouseLeftENS7_21JoystickButtonPressedENS7_22JoystickButtonReleasedENS7_13JoystickMovedENS7_17JoystickConnectedENS7_20JoystickDisconnectedENS7_10TouchBeganENS7_10TouchMovedENS7_10TouchEndedENS7_13SensorChangedEEEELm3EEEODaOT_NS_16in_place_index_tIXT0_EEE, symObjAddr: 0x109C0, symBinAddr: 0x100013C5C, symSize: 0x24 }
  - { offsetInCU: 0x43072, offset: 0x43072, size: 0x8, addend: 0x0, symName: __ZNSt3__116__variant_detail8__access7__union9__get_altB8ue170006IRKNS0_7__unionILNS0_6_TraitE0ELm9EJN2sf5Event19MouseButtonReleasedENS7_10MouseMovedENS7_13MouseMovedRawENS7_12MouseEnteredENS7_9MouseLeftENS7_21JoystickButtonPressedENS7_22JoystickButtonReleasedENS7_13JoystickMovedENS7_17JoystickConnectedENS7_20JoystickDisconnectedENS7_10TouchBeganENS7_10TouchMovedENS7_10TouchEndedENS7_13SensorChangedEEEELm2EEEODaOT_NS_16in_place_index_tIXT0_EEE, symObjAddr: 0x109E4, symBinAddr: 0x100013C80, symSize: 0x24 }
  - { offsetInCU: 0x430B5, offset: 0x430B5, size: 0x8, addend: 0x0, symName: __ZNSt3__116__variant_detail8__access7__union9__get_altB8ue170006IRKNS0_7__unionILNS0_6_TraitE0ELm10EJN2sf5Event10MouseMovedENS7_13MouseMovedRawENS7_12MouseEnteredENS7_9MouseLeftENS7_21JoystickButtonPressedENS7_22JoystickButtonReleasedENS7_13JoystickMovedENS7_17JoystickConnectedENS7_20JoystickDisconnectedENS7_10TouchBeganENS7_10TouchMovedENS7_10TouchEndedENS7_13SensorChangedEEEELm1EEEODaOT_NS_16in_place_index_tIXT0_EEE, symObjAddr: 0x10A08, symBinAddr: 0x100013CA4, symSize: 0x24 }
  - { offsetInCU: 0x430F8, offset: 0x430F8, size: 0x8, addend: 0x0, symName: __ZNSt3__116__variant_detail8__access7__union9__get_altB8ue170006IRKNS0_7__unionILNS0_6_TraitE0ELm11EJN2sf5Event13MouseMovedRawENS7_12MouseEnteredENS7_9MouseLeftENS7_21JoystickButtonPressedENS7_22JoystickButtonReleasedENS7_13JoystickMovedENS7_17JoystickConnectedENS7_20JoystickDisconnectedENS7_10TouchBeganENS7_10TouchMovedENS7_10TouchEndedENS7_13SensorChangedEEEEEEODaOT_NS_16in_place_index_tILm0EEE, symObjAddr: 0x10A2C, symBinAddr: 0x100013CC8, symSize: 0x14 }
  - { offsetInCU: 0x4313C, offset: 0x4313C, size: 0x8, addend: 0x0, symName: __ZNSt3__116__variant_detail8__access6__base9__get_altB8ue170006ILm12ERKNS0_6__baseILNS0_6_TraitE0EJN2sf5Event6ClosedENS7_7ResizedENS7_9FocusLostENS7_11FocusGainedENS7_11TextEnteredENS7_10KeyPressedENS7_11KeyReleasedENS7_18MouseWheelScrolledENS7_18MouseButtonPressedENS7_19MouseButtonReleasedENS7_10MouseMovedENS7_13MouseMovedRawENS7_12MouseEnteredENS7_9MouseLeftENS7_21JoystickButtonPressedENS7_22JoystickButtonReleasedENS7_13JoystickMovedENS7_17JoystickConnectedENS7_20JoystickDisconnectedENS7_10TouchBeganENS7_10TouchMovedENS7_10TouchEndedENS7_13SensorChangedEEEEEEODaOT0_, symObjAddr: 0x10A6C, symBinAddr: 0x100013D08, symSize: 0x24 }
  - { offsetInCU: 0x43173, offset: 0x43173, size: 0x8, addend: 0x0, symName: '__ZNKSt3__116__variant_detail12__visitation9__variant15__value_visitorIRN2sf4priv11OverloadSetIJZ6drivervE3$_0ZNS4_10WindowBase12handleEventsIJRKS7_EEEvDpOT_EUlRKNS5_23DelayOverloadResolutionEE_EEEEclB8ue170006IJRKNS0_5__altILm12ENS4_5Event12MouseEnteredEEEEEEDcSE_', symObjAddr: 0x10A90, symBinAddr: 0x100013D2C, symSize: 0x3C }
  - { offsetInCU: 0x431BE, offset: 0x431BE, size: 0x8, addend: 0x0, symName: '__ZNSt3__116__variant_detail12__visitation9__variant36__std_visit_exhaustive_visitor_checkB8ue170006IRN2sf4priv11OverloadSetIJZ6drivervE3$_0ZNS4_10WindowBase12handleEventsIJRKS7_EEEvDpOT_EUlRKNS5_23DelayOverloadResolutionEE_EEEJRKNS4_5Event12MouseEnteredEEEEvv', symObjAddr: 0x10ACC, symBinAddr: 0x100013D68, symSize: 0x4 }
  - { offsetInCU: 0x431E7, offset: 0x431E7, size: 0x8, addend: 0x0, symName: __ZN2sf4priv23DelayOverloadResolutionC1INS_5Event12MouseEnteredEEERKT_, symObjAddr: 0x10B14, symBinAddr: 0x100013DB0, symSize: 0x34 }
  - { offsetInCU: 0x43225, offset: 0x43225, size: 0x8, addend: 0x0, symName: __ZN2sf4priv23DelayOverloadResolutionC2INS_5Event12MouseEnteredEEERKT_, symObjAddr: 0x10B48, symBinAddr: 0x100013DE4, symSize: 0x18 }
  - { offsetInCU: 0x43263, offset: 0x43263, size: 0x8, addend: 0x0, symName: __ZNSt3__116__variant_detail8__access7__union9__get_altB8ue170006IRKNS0_7__unionILNS0_6_TraitE0ELm0EJN2sf5Event6ClosedENS7_7ResizedENS7_9FocusLostENS7_11FocusGainedENS7_11TextEnteredENS7_10KeyPressedENS7_11KeyReleasedENS7_18MouseWheelScrolledENS7_18MouseButtonPressedENS7_19MouseButtonReleasedENS7_10MouseMovedENS7_13MouseMovedRawENS7_12MouseEnteredENS7_9MouseLeftENS7_21JoystickButtonPressedENS7_22JoystickButtonReleasedENS7_13JoystickMovedENS7_17JoystickConnectedENS7_20JoystickDisconnectedENS7_10TouchBeganENS7_10TouchMovedENS7_10TouchEndedENS7_13SensorChangedEEEELm12EEEODaOT_NS_16in_place_index_tIXT0_EEE, symObjAddr: 0x10B60, symBinAddr: 0x100013DFC, symSize: 0x24 }
  - { offsetInCU: 0x432A6, offset: 0x432A6, size: 0x8, addend: 0x0, symName: __ZNSt3__116__variant_detail8__access7__union9__get_altB8ue170006IRKNS0_7__unionILNS0_6_TraitE0ELm1EJN2sf5Event7ResizedENS7_9FocusLostENS7_11FocusGainedENS7_11TextEnteredENS7_10KeyPressedENS7_11KeyReleasedENS7_18MouseWheelScrolledENS7_18MouseButtonPressedENS7_19MouseButtonReleasedENS7_10MouseMovedENS7_13MouseMovedRawENS7_12MouseEnteredENS7_9MouseLeftENS7_21JoystickButtonPressedENS7_22JoystickButtonReleasedENS7_13JoystickMovedENS7_17JoystickConnectedENS7_20JoystickDisconnectedENS7_10TouchBeganENS7_10TouchMovedENS7_10TouchEndedENS7_13SensorChangedEEEELm11EEEODaOT_NS_16in_place_index_tIXT0_EEE, symObjAddr: 0x10B84, symBinAddr: 0x100013E20, symSize: 0x24 }
  - { offsetInCU: 0x432E9, offset: 0x432E9, size: 0x8, addend: 0x0, symName: __ZNSt3__116__variant_detail8__access7__union9__get_altB8ue170006IRKNS0_7__unionILNS0_6_TraitE0ELm2EJN2sf5Event9FocusLostENS7_11FocusGainedENS7_11TextEnteredENS7_10KeyPressedENS7_11KeyReleasedENS7_18MouseWheelScrolledENS7_18MouseButtonPressedENS7_19MouseButtonReleasedENS7_10MouseMovedENS7_13MouseMovedRawENS7_12MouseEnteredENS7_9MouseLeftENS7_21JoystickButtonPressedENS7_22JoystickButtonReleasedENS7_13JoystickMovedENS7_17JoystickConnectedENS7_20JoystickDisconnectedENS7_10TouchBeganENS7_10TouchMovedENS7_10TouchEndedENS7_13SensorChangedEEEELm10EEEODaOT_NS_16in_place_index_tIXT0_EEE, symObjAddr: 0x10BA8, symBinAddr: 0x100013E44, symSize: 0x24 }
  - { offsetInCU: 0x4332C, offset: 0x4332C, size: 0x8, addend: 0x0, symName: __ZNSt3__116__variant_detail8__access7__union9__get_altB8ue170006IRKNS0_7__unionILNS0_6_TraitE0ELm3EJN2sf5Event11FocusGainedENS7_11TextEnteredENS7_10KeyPressedENS7_11KeyReleasedENS7_18MouseWheelScrolledENS7_18MouseButtonPressedENS7_19MouseButtonReleasedENS7_10MouseMovedENS7_13MouseMovedRawENS7_12MouseEnteredENS7_9MouseLeftENS7_21JoystickButtonPressedENS7_22JoystickButtonReleasedENS7_13JoystickMovedENS7_17JoystickConnectedENS7_20JoystickDisconnectedENS7_10TouchBeganENS7_10TouchMovedENS7_10TouchEndedENS7_13SensorChangedEEEELm9EEEODaOT_NS_16in_place_index_tIXT0_EEE, symObjAddr: 0x10BCC, symBinAddr: 0x100013E68, symSize: 0x24 }
  - { offsetInCU: 0x4336F, offset: 0x4336F, size: 0x8, addend: 0x0, symName: __ZNSt3__116__variant_detail8__access7__union9__get_altB8ue170006IRKNS0_7__unionILNS0_6_TraitE0ELm4EJN2sf5Event11TextEnteredENS7_10KeyPressedENS7_11KeyReleasedENS7_18MouseWheelScrolledENS7_18MouseButtonPressedENS7_19MouseButtonReleasedENS7_10MouseMovedENS7_13MouseMovedRawENS7_12MouseEnteredENS7_9MouseLeftENS7_21JoystickButtonPressedENS7_22JoystickButtonReleasedENS7_13JoystickMovedENS7_17JoystickConnectedENS7_20JoystickDisconnectedENS7_10TouchBeganENS7_10TouchMovedENS7_10TouchEndedENS7_13SensorChangedEEEELm8EEEODaOT_NS_16in_place_index_tIXT0_EEE, symObjAddr: 0x10BF0, symBinAddr: 0x100013E8C, symSize: 0x24 }
  - { offsetInCU: 0x433B2, offset: 0x433B2, size: 0x8, addend: 0x0, symName: __ZNSt3__116__variant_detail8__access7__union9__get_altB8ue170006IRKNS0_7__unionILNS0_6_TraitE0ELm5EJN2sf5Event10KeyPressedENS7_11KeyReleasedENS7_18MouseWheelScrolledENS7_18MouseButtonPressedENS7_19MouseButtonReleasedENS7_10MouseMovedENS7_13MouseMovedRawENS7_12MouseEnteredENS7_9MouseLeftENS7_21JoystickButtonPressedENS7_22JoystickButtonReleasedENS7_13JoystickMovedENS7_17JoystickConnectedENS7_20JoystickDisconnectedENS7_10TouchBeganENS7_10TouchMovedENS7_10TouchEndedENS7_13SensorChangedEEEELm7EEEODaOT_NS_16in_place_index_tIXT0_EEE, symObjAddr: 0x10C14, symBinAddr: 0x100013EB0, symSize: 0x24 }
  - { offsetInCU: 0x433F5, offset: 0x433F5, size: 0x8, addend: 0x0, symName: __ZNSt3__116__variant_detail8__access7__union9__get_altB8ue170006IRKNS0_7__unionILNS0_6_TraitE0ELm6EJN2sf5Event11KeyReleasedENS7_18MouseWheelScrolledENS7_18MouseButtonPressedENS7_19MouseButtonReleasedENS7_10MouseMovedENS7_13MouseMovedRawENS7_12MouseEnteredENS7_9MouseLeftENS7_21JoystickButtonPressedENS7_22JoystickButtonReleasedENS7_13JoystickMovedENS7_17JoystickConnectedENS7_20JoystickDisconnectedENS7_10TouchBeganENS7_10TouchMovedENS7_10TouchEndedENS7_13SensorChangedEEEELm6EEEODaOT_NS_16in_place_index_tIXT0_EEE, symObjAddr: 0x10C38, symBinAddr: 0x100013ED4, symSize: 0x24 }
  - { offsetInCU: 0x43438, offset: 0x43438, size: 0x8, addend: 0x0, symName: __ZNSt3__116__variant_detail8__access7__union9__get_altB8ue170006IRKNS0_7__unionILNS0_6_TraitE0ELm7EJN2sf5Event18MouseWheelScrolledENS7_18MouseButtonPressedENS7_19MouseButtonReleasedENS7_10MouseMovedENS7_13MouseMovedRawENS7_12MouseEnteredENS7_9MouseLeftENS7_21JoystickButtonPressedENS7_22JoystickButtonReleasedENS7_13JoystickMovedENS7_17JoystickConnectedENS7_20JoystickDisconnectedENS7_10TouchBeganENS7_10TouchMovedENS7_10TouchEndedENS7_13SensorChangedEEEELm5EEEODaOT_NS_16in_place_index_tIXT0_EEE, symObjAddr: 0x10C5C, symBinAddr: 0x100013EF8, symSize: 0x24 }
  - { offsetInCU: 0x4347B, offset: 0x4347B, size: 0x8, addend: 0x0, symName: __ZNSt3__116__variant_detail8__access7__union9__get_altB8ue170006IRKNS0_7__unionILNS0_6_TraitE0ELm8EJN2sf5Event18MouseButtonPressedENS7_19MouseButtonReleasedENS7_10MouseMovedENS7_13MouseMovedRawENS7_12MouseEnteredENS7_9MouseLeftENS7_21JoystickButtonPressedENS7_22JoystickButtonReleasedENS7_13JoystickMovedENS7_17JoystickConnectedENS7_20JoystickDisconnectedENS7_10TouchBeganENS7_10TouchMovedENS7_10TouchEndedENS7_13SensorChangedEEEELm4EEEODaOT_NS_16in_place_index_tIXT0_EEE, symObjAddr: 0x10C80, symBinAddr: 0x100013F1C, symSize: 0x24 }
  - { offsetInCU: 0x434BE, offset: 0x434BE, size: 0x8, addend: 0x0, symName: __ZNSt3__116__variant_detail8__access7__union9__get_altB8ue170006IRKNS0_7__unionILNS0_6_TraitE0ELm9EJN2sf5Event19MouseButtonReleasedENS7_10MouseMovedENS7_13MouseMovedRawENS7_12MouseEnteredENS7_9MouseLeftENS7_21JoystickButtonPressedENS7_22JoystickButtonReleasedENS7_13JoystickMovedENS7_17JoystickConnectedENS7_20JoystickDisconnectedENS7_10TouchBeganENS7_10TouchMovedENS7_10TouchEndedENS7_13SensorChangedEEEELm3EEEODaOT_NS_16in_place_index_tIXT0_EEE, symObjAddr: 0x10CA4, symBinAddr: 0x100013F40, symSize: 0x24 }
  - { offsetInCU: 0x43501, offset: 0x43501, size: 0x8, addend: 0x0, symName: __ZNSt3__116__variant_detail8__access7__union9__get_altB8ue170006IRKNS0_7__unionILNS0_6_TraitE0ELm10EJN2sf5Event10MouseMovedENS7_13MouseMovedRawENS7_12MouseEnteredENS7_9MouseLeftENS7_21JoystickButtonPressedENS7_22JoystickButtonReleasedENS7_13JoystickMovedENS7_17JoystickConnectedENS7_20JoystickDisconnectedENS7_10TouchBeganENS7_10TouchMovedENS7_10TouchEndedENS7_13SensorChangedEEEELm2EEEODaOT_NS_16in_place_index_tIXT0_EEE, symObjAddr: 0x10CC8, symBinAddr: 0x100013F64, symSize: 0x24 }
  - { offsetInCU: 0x43544, offset: 0x43544, size: 0x8, addend: 0x0, symName: __ZNSt3__116__variant_detail8__access7__union9__get_altB8ue170006IRKNS0_7__unionILNS0_6_TraitE0ELm11EJN2sf5Event13MouseMovedRawENS7_12MouseEnteredENS7_9MouseLeftENS7_21JoystickButtonPressedENS7_22JoystickButtonReleasedENS7_13JoystickMovedENS7_17JoystickConnectedENS7_20JoystickDisconnectedENS7_10TouchBeganENS7_10TouchMovedENS7_10TouchEndedENS7_13SensorChangedEEEELm1EEEODaOT_NS_16in_place_index_tIXT0_EEE, symObjAddr: 0x10CEC, symBinAddr: 0x100013F88, symSize: 0x24 }
  - { offsetInCU: 0x43587, offset: 0x43587, size: 0x8, addend: 0x0, symName: __ZNSt3__116__variant_detail8__access7__union9__get_altB8ue170006IRKNS0_7__unionILNS0_6_TraitE0ELm12EJN2sf5Event12MouseEnteredENS7_9MouseLeftENS7_21JoystickButtonPressedENS7_22JoystickButtonReleasedENS7_13JoystickMovedENS7_17JoystickConnectedENS7_20JoystickDisconnectedENS7_10TouchBeganENS7_10TouchMovedENS7_10TouchEndedENS7_13SensorChangedEEEEEEODaOT_NS_16in_place_index_tILm0EEE, symObjAddr: 0x10D10, symBinAddr: 0x100013FAC, symSize: 0x14 }
  - { offsetInCU: 0x435CB, offset: 0x435CB, size: 0x8, addend: 0x0, symName: __ZNSt3__116__variant_detail8__access6__base9__get_altB8ue170006ILm13ERKNS0_6__baseILNS0_6_TraitE0EJN2sf5Event6ClosedENS7_7ResizedENS7_9FocusLostENS7_11FocusGainedENS7_11TextEnteredENS7_10KeyPressedENS7_11KeyReleasedENS7_18MouseWheelScrolledENS7_18MouseButtonPressedENS7_19MouseButtonReleasedENS7_10MouseMovedENS7_13MouseMovedRawENS7_12MouseEnteredENS7_9MouseLeftENS7_21JoystickButtonPressedENS7_22JoystickButtonReleasedENS7_13JoystickMovedENS7_17JoystickConnectedENS7_20JoystickDisconnectedENS7_10TouchBeganENS7_10TouchMovedENS7_10TouchEndedENS7_13SensorChangedEEEEEEODaOT0_, symObjAddr: 0x10D50, symBinAddr: 0x100013FEC, symSize: 0x24 }
  - { offsetInCU: 0x43602, offset: 0x43602, size: 0x8, addend: 0x0, symName: '__ZNKSt3__116__variant_detail12__visitation9__variant15__value_visitorIRN2sf4priv11OverloadSetIJZ6drivervE3$_0ZNS4_10WindowBase12handleEventsIJRKS7_EEEvDpOT_EUlRKNS5_23DelayOverloadResolutionEE_EEEEclB8ue170006IJRKNS0_5__altILm13ENS4_5Event9MouseLeftEEEEEEDcSE_', symObjAddr: 0x10D74, symBinAddr: 0x100014010, symSize: 0x3C }
  - { offsetInCU: 0x4364D, offset: 0x4364D, size: 0x8, addend: 0x0, symName: '__ZNSt3__116__variant_detail12__visitation9__variant36__std_visit_exhaustive_visitor_checkB8ue170006IRN2sf4priv11OverloadSetIJZ6drivervE3$_0ZNS4_10WindowBase12handleEventsIJRKS7_EEEvDpOT_EUlRKNS5_23DelayOverloadResolutionEE_EEEJRKNS4_5Event9MouseLeftEEEEvv', symObjAddr: 0x10DB0, symBinAddr: 0x10001404C, symSize: 0x4 }
  - { offsetInCU: 0x43676, offset: 0x43676, size: 0x8, addend: 0x0, symName: __ZN2sf4priv23DelayOverloadResolutionC1INS_5Event9MouseLeftEEERKT_, symObjAddr: 0x10DF8, symBinAddr: 0x100014094, symSize: 0x34 }
  - { offsetInCU: 0x436B4, offset: 0x436B4, size: 0x8, addend: 0x0, symName: __ZN2sf4priv23DelayOverloadResolutionC2INS_5Event9MouseLeftEEERKT_, symObjAddr: 0x10E2C, symBinAddr: 0x1000140C8, symSize: 0x18 }
  - { offsetInCU: 0x436F2, offset: 0x436F2, size: 0x8, addend: 0x0, symName: __ZNSt3__116__variant_detail8__access7__union9__get_altB8ue170006IRKNS0_7__unionILNS0_6_TraitE0ELm0EJN2sf5Event6ClosedENS7_7ResizedENS7_9FocusLostENS7_11FocusGainedENS7_11TextEnteredENS7_10KeyPressedENS7_11KeyReleasedENS7_18MouseWheelScrolledENS7_18MouseButtonPressedENS7_19MouseButtonReleasedENS7_10MouseMovedENS7_13MouseMovedRawENS7_12MouseEnteredENS7_9MouseLeftENS7_21JoystickButtonPressedENS7_22JoystickButtonReleasedENS7_13JoystickMovedENS7_17JoystickConnectedENS7_20JoystickDisconnectedENS7_10TouchBeganENS7_10TouchMovedENS7_10TouchEndedENS7_13SensorChangedEEEELm13EEEODaOT_NS_16in_place_index_tIXT0_EEE, symObjAddr: 0x10E44, symBinAddr: 0x1000140E0, symSize: 0x24 }
  - { offsetInCU: 0x43735, offset: 0x43735, size: 0x8, addend: 0x0, symName: __ZNSt3__116__variant_detail8__access7__union9__get_altB8ue170006IRKNS0_7__unionILNS0_6_TraitE0ELm1EJN2sf5Event7ResizedENS7_9FocusLostENS7_11FocusGainedENS7_11TextEnteredENS7_10KeyPressedENS7_11KeyReleasedENS7_18MouseWheelScrolledENS7_18MouseButtonPressedENS7_19MouseButtonReleasedENS7_10MouseMovedENS7_13MouseMovedRawENS7_12MouseEnteredENS7_9MouseLeftENS7_21JoystickButtonPressedENS7_22JoystickButtonReleasedENS7_13JoystickMovedENS7_17JoystickConnectedENS7_20JoystickDisconnectedENS7_10TouchBeganENS7_10TouchMovedENS7_10TouchEndedENS7_13SensorChangedEEEELm12EEEODaOT_NS_16in_place_index_tIXT0_EEE, symObjAddr: 0x10E68, symBinAddr: 0x100014104, symSize: 0x24 }
  - { offsetInCU: 0x43778, offset: 0x43778, size: 0x8, addend: 0x0, symName: __ZNSt3__116__variant_detail8__access7__union9__get_altB8ue170006IRKNS0_7__unionILNS0_6_TraitE0ELm2EJN2sf5Event9FocusLostENS7_11FocusGainedENS7_11TextEnteredENS7_10KeyPressedENS7_11KeyReleasedENS7_18MouseWheelScrolledENS7_18MouseButtonPressedENS7_19MouseButtonReleasedENS7_10MouseMovedENS7_13MouseMovedRawENS7_12MouseEnteredENS7_9MouseLeftENS7_21JoystickButtonPressedENS7_22JoystickButtonReleasedENS7_13JoystickMovedENS7_17JoystickConnectedENS7_20JoystickDisconnectedENS7_10TouchBeganENS7_10TouchMovedENS7_10TouchEndedENS7_13SensorChangedEEEELm11EEEODaOT_NS_16in_place_index_tIXT0_EEE, symObjAddr: 0x10E8C, symBinAddr: 0x100014128, symSize: 0x24 }
  - { offsetInCU: 0x437BB, offset: 0x437BB, size: 0x8, addend: 0x0, symName: __ZNSt3__116__variant_detail8__access7__union9__get_altB8ue170006IRKNS0_7__unionILNS0_6_TraitE0ELm3EJN2sf5Event11FocusGainedENS7_11TextEnteredENS7_10KeyPressedENS7_11KeyReleasedENS7_18MouseWheelScrolledENS7_18MouseButtonPressedENS7_19MouseButtonReleasedENS7_10MouseMovedENS7_13MouseMovedRawENS7_12MouseEnteredENS7_9MouseLeftENS7_21JoystickButtonPressedENS7_22JoystickButtonReleasedENS7_13JoystickMovedENS7_17JoystickConnectedENS7_20JoystickDisconnectedENS7_10TouchBeganENS7_10TouchMovedENS7_10TouchEndedENS7_13SensorChangedEEEELm10EEEODaOT_NS_16in_place_index_tIXT0_EEE, symObjAddr: 0x10EB0, symBinAddr: 0x10001414C, symSize: 0x24 }
  - { offsetInCU: 0x437FE, offset: 0x437FE, size: 0x8, addend: 0x0, symName: __ZNSt3__116__variant_detail8__access7__union9__get_altB8ue170006IRKNS0_7__unionILNS0_6_TraitE0ELm4EJN2sf5Event11TextEnteredENS7_10KeyPressedENS7_11KeyReleasedENS7_18MouseWheelScrolledENS7_18MouseButtonPressedENS7_19MouseButtonReleasedENS7_10MouseMovedENS7_13MouseMovedRawENS7_12MouseEnteredENS7_9MouseLeftENS7_21JoystickButtonPressedENS7_22JoystickButtonReleasedENS7_13JoystickMovedENS7_17JoystickConnectedENS7_20JoystickDisconnectedENS7_10TouchBeganENS7_10TouchMovedENS7_10TouchEndedENS7_13SensorChangedEEEELm9EEEODaOT_NS_16in_place_index_tIXT0_EEE, symObjAddr: 0x10ED4, symBinAddr: 0x100014170, symSize: 0x24 }
  - { offsetInCU: 0x43841, offset: 0x43841, size: 0x8, addend: 0x0, symName: __ZNSt3__116__variant_detail8__access7__union9__get_altB8ue170006IRKNS0_7__unionILNS0_6_TraitE0ELm5EJN2sf5Event10KeyPressedENS7_11KeyReleasedENS7_18MouseWheelScrolledENS7_18MouseButtonPressedENS7_19MouseButtonReleasedENS7_10MouseMovedENS7_13MouseMovedRawENS7_12MouseEnteredENS7_9MouseLeftENS7_21JoystickButtonPressedENS7_22JoystickButtonReleasedENS7_13JoystickMovedENS7_17JoystickConnectedENS7_20JoystickDisconnectedENS7_10TouchBeganENS7_10TouchMovedENS7_10TouchEndedENS7_13SensorChangedEEEELm8EEEODaOT_NS_16in_place_index_tIXT0_EEE, symObjAddr: 0x10EF8, symBinAddr: 0x100014194, symSize: 0x24 }
  - { offsetInCU: 0x43884, offset: 0x43884, size: 0x8, addend: 0x0, symName: __ZNSt3__116__variant_detail8__access7__union9__get_altB8ue170006IRKNS0_7__unionILNS0_6_TraitE0ELm6EJN2sf5Event11KeyReleasedENS7_18MouseWheelScrolledENS7_18MouseButtonPressedENS7_19MouseButtonReleasedENS7_10MouseMovedENS7_13MouseMovedRawENS7_12MouseEnteredENS7_9MouseLeftENS7_21JoystickButtonPressedENS7_22JoystickButtonReleasedENS7_13JoystickMovedENS7_17JoystickConnectedENS7_20JoystickDisconnectedENS7_10TouchBeganENS7_10TouchMovedENS7_10TouchEndedENS7_13SensorChangedEEEELm7EEEODaOT_NS_16in_place_index_tIXT0_EEE, symObjAddr: 0x10F1C, symBinAddr: 0x1000141B8, symSize: 0x24 }
  - { offsetInCU: 0x438C7, offset: 0x438C7, size: 0x8, addend: 0x0, symName: __ZNSt3__116__variant_detail8__access7__union9__get_altB8ue170006IRKNS0_7__unionILNS0_6_TraitE0ELm7EJN2sf5Event18MouseWheelScrolledENS7_18MouseButtonPressedENS7_19MouseButtonReleasedENS7_10MouseMovedENS7_13MouseMovedRawENS7_12MouseEnteredENS7_9MouseLeftENS7_21JoystickButtonPressedENS7_22JoystickButtonReleasedENS7_13JoystickMovedENS7_17JoystickConnectedENS7_20JoystickDisconnectedENS7_10TouchBeganENS7_10TouchMovedENS7_10TouchEndedENS7_13SensorChangedEEEELm6EEEODaOT_NS_16in_place_index_tIXT0_EEE, symObjAddr: 0x10F40, symBinAddr: 0x1000141DC, symSize: 0x24 }
  - { offsetInCU: 0x4390A, offset: 0x4390A, size: 0x8, addend: 0x0, symName: __ZNSt3__116__variant_detail8__access7__union9__get_altB8ue170006IRKNS0_7__unionILNS0_6_TraitE0ELm8EJN2sf5Event18MouseButtonPressedENS7_19MouseButtonReleasedENS7_10MouseMovedENS7_13MouseMovedRawENS7_12MouseEnteredENS7_9MouseLeftENS7_21JoystickButtonPressedENS7_22JoystickButtonReleasedENS7_13JoystickMovedENS7_17JoystickConnectedENS7_20JoystickDisconnectedENS7_10TouchBeganENS7_10TouchMovedENS7_10TouchEndedENS7_13SensorChangedEEEELm5EEEODaOT_NS_16in_place_index_tIXT0_EEE, symObjAddr: 0x10F64, symBinAddr: 0x100014200, symSize: 0x24 }
  - { offsetInCU: 0x4394D, offset: 0x4394D, size: 0x8, addend: 0x0, symName: __ZNSt3__116__variant_detail8__access7__union9__get_altB8ue170006IRKNS0_7__unionILNS0_6_TraitE0ELm9EJN2sf5Event19MouseButtonReleasedENS7_10MouseMovedENS7_13MouseMovedRawENS7_12MouseEnteredENS7_9MouseLeftENS7_21JoystickButtonPressedENS7_22JoystickButtonReleasedENS7_13JoystickMovedENS7_17JoystickConnectedENS7_20JoystickDisconnectedENS7_10TouchBeganENS7_10TouchMovedENS7_10TouchEndedENS7_13SensorChangedEEEELm4EEEODaOT_NS_16in_place_index_tIXT0_EEE, symObjAddr: 0x10F88, symBinAddr: 0x100014224, symSize: 0x24 }
  - { offsetInCU: 0x43990, offset: 0x43990, size: 0x8, addend: 0x0, symName: __ZNSt3__116__variant_detail8__access7__union9__get_altB8ue170006IRKNS0_7__unionILNS0_6_TraitE0ELm10EJN2sf5Event10MouseMovedENS7_13MouseMovedRawENS7_12MouseEnteredENS7_9MouseLeftENS7_21JoystickButtonPressedENS7_22JoystickButtonReleasedENS7_13JoystickMovedENS7_17JoystickConnectedENS7_20JoystickDisconnectedENS7_10TouchBeganENS7_10TouchMovedENS7_10TouchEndedENS7_13SensorChangedEEEELm3EEEODaOT_NS_16in_place_index_tIXT0_EEE, symObjAddr: 0x10FAC, symBinAddr: 0x100014248, symSize: 0x24 }
  - { offsetInCU: 0x439D3, offset: 0x439D3, size: 0x8, addend: 0x0, symName: __ZNSt3__116__variant_detail8__access7__union9__get_altB8ue170006IRKNS0_7__unionILNS0_6_TraitE0ELm11EJN2sf5Event13MouseMovedRawENS7_12MouseEnteredENS7_9MouseLeftENS7_21JoystickButtonPressedENS7_22JoystickButtonReleasedENS7_13JoystickMovedENS7_17JoystickConnectedENS7_20JoystickDisconnectedENS7_10TouchBeganENS7_10TouchMovedENS7_10TouchEndedENS7_13SensorChangedEEEELm2EEEODaOT_NS_16in_place_index_tIXT0_EEE, symObjAddr: 0x10FD0, symBinAddr: 0x10001426C, symSize: 0x24 }
  - { offsetInCU: 0x43A16, offset: 0x43A16, size: 0x8, addend: 0x0, symName: __ZNSt3__116__variant_detail8__access7__union9__get_altB8ue170006IRKNS0_7__unionILNS0_6_TraitE0ELm12EJN2sf5Event12MouseEnteredENS7_9MouseLeftENS7_21JoystickButtonPressedENS7_22JoystickButtonReleasedENS7_13JoystickMovedENS7_17JoystickConnectedENS7_20JoystickDisconnectedENS7_10TouchBeganENS7_10TouchMovedENS7_10TouchEndedENS7_13SensorChangedEEEELm1EEEODaOT_NS_16in_place_index_tIXT0_EEE, symObjAddr: 0x10FF4, symBinAddr: 0x100014290, symSize: 0x24 }
  - { offsetInCU: 0x43A59, offset: 0x43A59, size: 0x8, addend: 0x0, symName: __ZNSt3__116__variant_detail8__access7__union9__get_altB8ue170006IRKNS0_7__unionILNS0_6_TraitE0ELm13EJN2sf5Event9MouseLeftENS7_21JoystickButtonPressedENS7_22JoystickButtonReleasedENS7_13JoystickMovedENS7_17JoystickConnectedENS7_20JoystickDisconnectedENS7_10TouchBeganENS7_10TouchMovedENS7_10TouchEndedENS7_13SensorChangedEEEEEEODaOT_NS_16in_place_index_tILm0EEE, symObjAddr: 0x11018, symBinAddr: 0x1000142B4, symSize: 0x14 }
  - { offsetInCU: 0x43A9D, offset: 0x43A9D, size: 0x8, addend: 0x0, symName: __ZNSt3__116__variant_detail8__access6__base9__get_altB8ue170006ILm14ERKNS0_6__baseILNS0_6_TraitE0EJN2sf5Event6ClosedENS7_7ResizedENS7_9FocusLostENS7_11FocusGainedENS7_11TextEnteredENS7_10KeyPressedENS7_11KeyReleasedENS7_18MouseWheelScrolledENS7_18MouseButtonPressedENS7_19MouseButtonReleasedENS7_10MouseMovedENS7_13MouseMovedRawENS7_12MouseEnteredENS7_9MouseLeftENS7_21JoystickButtonPressedENS7_22JoystickButtonReleasedENS7_13JoystickMovedENS7_17JoystickConnectedENS7_20JoystickDisconnectedENS7_10TouchBeganENS7_10TouchMovedENS7_10TouchEndedENS7_13SensorChangedEEEEEEODaOT0_, symObjAddr: 0x11058, symBinAddr: 0x1000142F4, symSize: 0x24 }
  - { offsetInCU: 0x43AD4, offset: 0x43AD4, size: 0x8, addend: 0x0, symName: '__ZNKSt3__116__variant_detail12__visitation9__variant15__value_visitorIRN2sf4priv11OverloadSetIJZ6drivervE3$_0ZNS4_10WindowBase12handleEventsIJRKS7_EEEvDpOT_EUlRKNS5_23DelayOverloadResolutionEE_EEEEclB8ue170006IJRKNS0_5__altILm14ENS4_5Event21JoystickButtonPressedEEEEEEDcSE_', symObjAddr: 0x1107C, symBinAddr: 0x100014318, symSize: 0x3C }
  - { offsetInCU: 0x43B1F, offset: 0x43B1F, size: 0x8, addend: 0x0, symName: '__ZNSt3__116__variant_detail12__visitation9__variant36__std_visit_exhaustive_visitor_checkB8ue170006IRN2sf4priv11OverloadSetIJZ6drivervE3$_0ZNS4_10WindowBase12handleEventsIJRKS7_EEEvDpOT_EUlRKNS5_23DelayOverloadResolutionEE_EEEJRKNS4_5Event21JoystickButtonPressedEEEEvv', symObjAddr: 0x110B8, symBinAddr: 0x100014354, symSize: 0x4 }
  - { offsetInCU: 0x43B48, offset: 0x43B48, size: 0x8, addend: 0x0, symName: __ZN2sf4priv23DelayOverloadResolutionC1INS_5Event21JoystickButtonPressedEEERKT_, symObjAddr: 0x11100, symBinAddr: 0x10001439C, symSize: 0x34 }
  - { offsetInCU: 0x43B86, offset: 0x43B86, size: 0x8, addend: 0x0, symName: __ZN2sf4priv23DelayOverloadResolutionC2INS_5Event21JoystickButtonPressedEEERKT_, symObjAddr: 0x11134, symBinAddr: 0x1000143D0, symSize: 0x18 }
  - { offsetInCU: 0x43BC4, offset: 0x43BC4, size: 0x8, addend: 0x0, symName: __ZNSt3__116__variant_detail8__access7__union9__get_altB8ue170006IRKNS0_7__unionILNS0_6_TraitE0ELm0EJN2sf5Event6ClosedENS7_7ResizedENS7_9FocusLostENS7_11FocusGainedENS7_11TextEnteredENS7_10KeyPressedENS7_11KeyReleasedENS7_18MouseWheelScrolledENS7_18MouseButtonPressedENS7_19MouseButtonReleasedENS7_10MouseMovedENS7_13MouseMovedRawENS7_12MouseEnteredENS7_9MouseLeftENS7_21JoystickButtonPressedENS7_22JoystickButtonReleasedENS7_13JoystickMovedENS7_17JoystickConnectedENS7_20JoystickDisconnectedENS7_10TouchBeganENS7_10TouchMovedENS7_10TouchEndedENS7_13SensorChangedEEEELm14EEEODaOT_NS_16in_place_index_tIXT0_EEE, symObjAddr: 0x1114C, symBinAddr: 0x1000143E8, symSize: 0x24 }
  - { offsetInCU: 0x43C07, offset: 0x43C07, size: 0x8, addend: 0x0, symName: __ZNSt3__116__variant_detail8__access7__union9__get_altB8ue170006IRKNS0_7__unionILNS0_6_TraitE0ELm1EJN2sf5Event7ResizedENS7_9FocusLostENS7_11FocusGainedENS7_11TextEnteredENS7_10KeyPressedENS7_11KeyReleasedENS7_18MouseWheelScrolledENS7_18MouseButtonPressedENS7_19MouseButtonReleasedENS7_10MouseMovedENS7_13MouseMovedRawENS7_12MouseEnteredENS7_9MouseLeftENS7_21JoystickButtonPressedENS7_22JoystickButtonReleasedENS7_13JoystickMovedENS7_17JoystickConnectedENS7_20JoystickDisconnectedENS7_10TouchBeganENS7_10TouchMovedENS7_10TouchEndedENS7_13SensorChangedEEEELm13EEEODaOT_NS_16in_place_index_tIXT0_EEE, symObjAddr: 0x11170, symBinAddr: 0x10001440C, symSize: 0x24 }
  - { offsetInCU: 0x43C4A, offset: 0x43C4A, size: 0x8, addend: 0x0, symName: __ZNSt3__116__variant_detail8__access7__union9__get_altB8ue170006IRKNS0_7__unionILNS0_6_TraitE0ELm2EJN2sf5Event9FocusLostENS7_11FocusGainedENS7_11TextEnteredENS7_10KeyPressedENS7_11KeyReleasedENS7_18MouseWheelScrolledENS7_18MouseButtonPressedENS7_19MouseButtonReleasedENS7_10MouseMovedENS7_13MouseMovedRawENS7_12MouseEnteredENS7_9MouseLeftENS7_21JoystickButtonPressedENS7_22JoystickButtonReleasedENS7_13JoystickMovedENS7_17JoystickConnectedENS7_20JoystickDisconnectedENS7_10TouchBeganENS7_10TouchMovedENS7_10TouchEndedENS7_13SensorChangedEEEELm12EEEODaOT_NS_16in_place_index_tIXT0_EEE, symObjAddr: 0x11194, symBinAddr: 0x100014430, symSize: 0x24 }
  - { offsetInCU: 0x43C8D, offset: 0x43C8D, size: 0x8, addend: 0x0, symName: __ZNSt3__116__variant_detail8__access7__union9__get_altB8ue170006IRKNS0_7__unionILNS0_6_TraitE0ELm3EJN2sf5Event11FocusGainedENS7_11TextEnteredENS7_10KeyPressedENS7_11KeyReleasedENS7_18MouseWheelScrolledENS7_18MouseButtonPressedENS7_19MouseButtonReleasedENS7_10MouseMovedENS7_13MouseMovedRawENS7_12MouseEnteredENS7_9MouseLeftENS7_21JoystickButtonPressedENS7_22JoystickButtonReleasedENS7_13JoystickMovedENS7_17JoystickConnectedENS7_20JoystickDisconnectedENS7_10TouchBeganENS7_10TouchMovedENS7_10TouchEndedENS7_13SensorChangedEEEELm11EEEODaOT_NS_16in_place_index_tIXT0_EEE, symObjAddr: 0x111B8, symBinAddr: 0x100014454, symSize: 0x24 }
  - { offsetInCU: 0x43CD0, offset: 0x43CD0, size: 0x8, addend: 0x0, symName: __ZNSt3__116__variant_detail8__access7__union9__get_altB8ue170006IRKNS0_7__unionILNS0_6_TraitE0ELm4EJN2sf5Event11TextEnteredENS7_10KeyPressedENS7_11KeyReleasedENS7_18MouseWheelScrolledENS7_18MouseButtonPressedENS7_19MouseButtonReleasedENS7_10MouseMovedENS7_13MouseMovedRawENS7_12MouseEnteredENS7_9MouseLeftENS7_21JoystickButtonPressedENS7_22JoystickButtonReleasedENS7_13JoystickMovedENS7_17JoystickConnectedENS7_20JoystickDisconnectedENS7_10TouchBeganENS7_10TouchMovedENS7_10TouchEndedENS7_13SensorChangedEEEELm10EEEODaOT_NS_16in_place_index_tIXT0_EEE, symObjAddr: 0x111DC, symBinAddr: 0x100014478, symSize: 0x24 }
  - { offsetInCU: 0x43D13, offset: 0x43D13, size: 0x8, addend: 0x0, symName: __ZNSt3__116__variant_detail8__access7__union9__get_altB8ue170006IRKNS0_7__unionILNS0_6_TraitE0ELm5EJN2sf5Event10KeyPressedENS7_11KeyReleasedENS7_18MouseWheelScrolledENS7_18MouseButtonPressedENS7_19MouseButtonReleasedENS7_10MouseMovedENS7_13MouseMovedRawENS7_12MouseEnteredENS7_9MouseLeftENS7_21JoystickButtonPressedENS7_22JoystickButtonReleasedENS7_13JoystickMovedENS7_17JoystickConnectedENS7_20JoystickDisconnectedENS7_10TouchBeganENS7_10TouchMovedENS7_10TouchEndedENS7_13SensorChangedEEEELm9EEEODaOT_NS_16in_place_index_tIXT0_EEE, symObjAddr: 0x11200, symBinAddr: 0x10001449C, symSize: 0x24 }
  - { offsetInCU: 0x43D56, offset: 0x43D56, size: 0x8, addend: 0x0, symName: __ZNSt3__116__variant_detail8__access7__union9__get_altB8ue170006IRKNS0_7__unionILNS0_6_TraitE0ELm6EJN2sf5Event11KeyReleasedENS7_18MouseWheelScrolledENS7_18MouseButtonPressedENS7_19MouseButtonReleasedENS7_10MouseMovedENS7_13MouseMovedRawENS7_12MouseEnteredENS7_9MouseLeftENS7_21JoystickButtonPressedENS7_22JoystickButtonReleasedENS7_13JoystickMovedENS7_17JoystickConnectedENS7_20JoystickDisconnectedENS7_10TouchBeganENS7_10TouchMovedENS7_10TouchEndedENS7_13SensorChangedEEEELm8EEEODaOT_NS_16in_place_index_tIXT0_EEE, symObjAddr: 0x11224, symBinAddr: 0x1000144C0, symSize: 0x24 }
  - { offsetInCU: 0x43D99, offset: 0x43D99, size: 0x8, addend: 0x0, symName: __ZNSt3__116__variant_detail8__access7__union9__get_altB8ue170006IRKNS0_7__unionILNS0_6_TraitE0ELm7EJN2sf5Event18MouseWheelScrolledENS7_18MouseButtonPressedENS7_19MouseButtonReleasedENS7_10MouseMovedENS7_13MouseMovedRawENS7_12MouseEnteredENS7_9MouseLeftENS7_21JoystickButtonPressedENS7_22JoystickButtonReleasedENS7_13JoystickMovedENS7_17JoystickConnectedENS7_20JoystickDisconnectedENS7_10TouchBeganENS7_10TouchMovedENS7_10TouchEndedENS7_13SensorChangedEEEELm7EEEODaOT_NS_16in_place_index_tIXT0_EEE, symObjAddr: 0x11248, symBinAddr: 0x1000144E4, symSize: 0x24 }
  - { offsetInCU: 0x43DDC, offset: 0x43DDC, size: 0x8, addend: 0x0, symName: __ZNSt3__116__variant_detail8__access7__union9__get_altB8ue170006IRKNS0_7__unionILNS0_6_TraitE0ELm8EJN2sf5Event18MouseButtonPressedENS7_19MouseButtonReleasedENS7_10MouseMovedENS7_13MouseMovedRawENS7_12MouseEnteredENS7_9MouseLeftENS7_21JoystickButtonPressedENS7_22JoystickButtonReleasedENS7_13JoystickMovedENS7_17JoystickConnectedENS7_20JoystickDisconnectedENS7_10TouchBeganENS7_10TouchMovedENS7_10TouchEndedENS7_13SensorChangedEEEELm6EEEODaOT_NS_16in_place_index_tIXT0_EEE, symObjAddr: 0x1126C, symBinAddr: 0x100014508, symSize: 0x24 }
  - { offsetInCU: 0x43E1F, offset: 0x43E1F, size: 0x8, addend: 0x0, symName: __ZNSt3__116__variant_detail8__access7__union9__get_altB8ue170006IRKNS0_7__unionILNS0_6_TraitE0ELm9EJN2sf5Event19MouseButtonReleasedENS7_10MouseMovedENS7_13MouseMovedRawENS7_12MouseEnteredENS7_9MouseLeftENS7_21JoystickButtonPressedENS7_22JoystickButtonReleasedENS7_13JoystickMovedENS7_17JoystickConnectedENS7_20JoystickDisconnectedENS7_10TouchBeganENS7_10TouchMovedENS7_10TouchEndedENS7_13SensorChangedEEEELm5EEEODaOT_NS_16in_place_index_tIXT0_EEE, symObjAddr: 0x11290, symBinAddr: 0x10001452C, symSize: 0x24 }
  - { offsetInCU: 0x43E62, offset: 0x43E62, size: 0x8, addend: 0x0, symName: __ZNSt3__116__variant_detail8__access7__union9__get_altB8ue170006IRKNS0_7__unionILNS0_6_TraitE0ELm10EJN2sf5Event10MouseMovedENS7_13MouseMovedRawENS7_12MouseEnteredENS7_9MouseLeftENS7_21JoystickButtonPressedENS7_22JoystickButtonReleasedENS7_13JoystickMovedENS7_17JoystickConnectedENS7_20JoystickDisconnectedENS7_10TouchBeganENS7_10TouchMovedENS7_10TouchEndedENS7_13SensorChangedEEEELm4EEEODaOT_NS_16in_place_index_tIXT0_EEE, symObjAddr: 0x112B4, symBinAddr: 0x100014550, symSize: 0x24 }
  - { offsetInCU: 0x43EA5, offset: 0x43EA5, size: 0x8, addend: 0x0, symName: __ZNSt3__116__variant_detail8__access7__union9__get_altB8ue170006IRKNS0_7__unionILNS0_6_TraitE0ELm11EJN2sf5Event13MouseMovedRawENS7_12MouseEnteredENS7_9MouseLeftENS7_21JoystickButtonPressedENS7_22JoystickButtonReleasedENS7_13JoystickMovedENS7_17JoystickConnectedENS7_20JoystickDisconnectedENS7_10TouchBeganENS7_10TouchMovedENS7_10TouchEndedENS7_13SensorChangedEEEELm3EEEODaOT_NS_16in_place_index_tIXT0_EEE, symObjAddr: 0x112D8, symBinAddr: 0x100014574, symSize: 0x24 }
  - { offsetInCU: 0x43EE8, offset: 0x43EE8, size: 0x8, addend: 0x0, symName: __ZNSt3__116__variant_detail8__access7__union9__get_altB8ue170006IRKNS0_7__unionILNS0_6_TraitE0ELm12EJN2sf5Event12MouseEnteredENS7_9MouseLeftENS7_21JoystickButtonPressedENS7_22JoystickButtonReleasedENS7_13JoystickMovedENS7_17JoystickConnectedENS7_20JoystickDisconnectedENS7_10TouchBeganENS7_10TouchMovedENS7_10TouchEndedENS7_13SensorChangedEEEELm2EEEODaOT_NS_16in_place_index_tIXT0_EEE, symObjAddr: 0x112FC, symBinAddr: 0x100014598, symSize: 0x24 }
  - { offsetInCU: 0x43F2B, offset: 0x43F2B, size: 0x8, addend: 0x0, symName: __ZNSt3__116__variant_detail8__access7__union9__get_altB8ue170006IRKNS0_7__unionILNS0_6_TraitE0ELm13EJN2sf5Event9MouseLeftENS7_21JoystickButtonPressedENS7_22JoystickButtonReleasedENS7_13JoystickMovedENS7_17JoystickConnectedENS7_20JoystickDisconnectedENS7_10TouchBeganENS7_10TouchMovedENS7_10TouchEndedENS7_13SensorChangedEEEELm1EEEODaOT_NS_16in_place_index_tIXT0_EEE, symObjAddr: 0x11320, symBinAddr: 0x1000145BC, symSize: 0x24 }
  - { offsetInCU: 0x43F6E, offset: 0x43F6E, size: 0x8, addend: 0x0, symName: __ZNSt3__116__variant_detail8__access7__union9__get_altB8ue170006IRKNS0_7__unionILNS0_6_TraitE0ELm14EJN2sf5Event21JoystickButtonPressedENS7_22JoystickButtonReleasedENS7_13JoystickMovedENS7_17JoystickConnectedENS7_20JoystickDisconnectedENS7_10TouchBeganENS7_10TouchMovedENS7_10TouchEndedENS7_13SensorChangedEEEEEEODaOT_NS_16in_place_index_tILm0EEE, symObjAddr: 0x11344, symBinAddr: 0x1000145E0, symSize: 0x14 }
  - { offsetInCU: 0x43FB2, offset: 0x43FB2, size: 0x8, addend: 0x0, symName: __ZNSt3__116__variant_detail8__access6__base9__get_altB8ue170006ILm15ERKNS0_6__baseILNS0_6_TraitE0EJN2sf5Event6ClosedENS7_7ResizedENS7_9FocusLostENS7_11FocusGainedENS7_11TextEnteredENS7_10KeyPressedENS7_11KeyReleasedENS7_18MouseWheelScrolledENS7_18MouseButtonPressedENS7_19MouseButtonReleasedENS7_10MouseMovedENS7_13MouseMovedRawENS7_12MouseEnteredENS7_9MouseLeftENS7_21JoystickButtonPressedENS7_22JoystickButtonReleasedENS7_13JoystickMovedENS7_17JoystickConnectedENS7_20JoystickDisconnectedENS7_10TouchBeganENS7_10TouchMovedENS7_10TouchEndedENS7_13SensorChangedEEEEEEODaOT0_, symObjAddr: 0x11384, symBinAddr: 0x100014620, symSize: 0x24 }
  - { offsetInCU: 0x43FE9, offset: 0x43FE9, size: 0x8, addend: 0x0, symName: '__ZNKSt3__116__variant_detail12__visitation9__variant15__value_visitorIRN2sf4priv11OverloadSetIJZ6drivervE3$_0ZNS4_10WindowBase12handleEventsIJRKS7_EEEvDpOT_EUlRKNS5_23DelayOverloadResolutionEE_EEEEclB8ue170006IJRKNS0_5__altILm15ENS4_5Event22JoystickButtonReleasedEEEEEEDcSE_', symObjAddr: 0x113A8, symBinAddr: 0x100014644, symSize: 0x3C }
  - { offsetInCU: 0x44034, offset: 0x44034, size: 0x8, addend: 0x0, symName: '__ZNSt3__116__variant_detail12__visitation9__variant36__std_visit_exhaustive_visitor_checkB8ue170006IRN2sf4priv11OverloadSetIJZ6drivervE3$_0ZNS4_10WindowBase12handleEventsIJRKS7_EEEvDpOT_EUlRKNS5_23DelayOverloadResolutionEE_EEEJRKNS4_5Event22JoystickButtonReleasedEEEEvv', symObjAddr: 0x113E4, symBinAddr: 0x100014680, symSize: 0x4 }
  - { offsetInCU: 0x4405D, offset: 0x4405D, size: 0x8, addend: 0x0, symName: __ZN2sf4priv23DelayOverloadResolutionC1INS_5Event22JoystickButtonReleasedEEERKT_, symObjAddr: 0x1142C, symBinAddr: 0x1000146C8, symSize: 0x34 }
  - { offsetInCU: 0x4409B, offset: 0x4409B, size: 0x8, addend: 0x0, symName: __ZN2sf4priv23DelayOverloadResolutionC2INS_5Event22JoystickButtonReleasedEEERKT_, symObjAddr: 0x11460, symBinAddr: 0x1000146FC, symSize: 0x18 }
  - { offsetInCU: 0x440D9, offset: 0x440D9, size: 0x8, addend: 0x0, symName: __ZNSt3__116__variant_detail8__access7__union9__get_altB8ue170006IRKNS0_7__unionILNS0_6_TraitE0ELm0EJN2sf5Event6ClosedENS7_7ResizedENS7_9FocusLostENS7_11FocusGainedENS7_11TextEnteredENS7_10KeyPressedENS7_11KeyReleasedENS7_18MouseWheelScrolledENS7_18MouseButtonPressedENS7_19MouseButtonReleasedENS7_10MouseMovedENS7_13MouseMovedRawENS7_12MouseEnteredENS7_9MouseLeftENS7_21JoystickButtonPressedENS7_22JoystickButtonReleasedENS7_13JoystickMovedENS7_17JoystickConnectedENS7_20JoystickDisconnectedENS7_10TouchBeganENS7_10TouchMovedENS7_10TouchEndedENS7_13SensorChangedEEEELm15EEEODaOT_NS_16in_place_index_tIXT0_EEE, symObjAddr: 0x11478, symBinAddr: 0x100014714, symSize: 0x24 }
  - { offsetInCU: 0x4411C, offset: 0x4411C, size: 0x8, addend: 0x0, symName: __ZNSt3__116__variant_detail8__access7__union9__get_altB8ue170006IRKNS0_7__unionILNS0_6_TraitE0ELm1EJN2sf5Event7ResizedENS7_9FocusLostENS7_11FocusGainedENS7_11TextEnteredENS7_10KeyPressedENS7_11KeyReleasedENS7_18MouseWheelScrolledENS7_18MouseButtonPressedENS7_19MouseButtonReleasedENS7_10MouseMovedENS7_13MouseMovedRawENS7_12MouseEnteredENS7_9MouseLeftENS7_21JoystickButtonPressedENS7_22JoystickButtonReleasedENS7_13JoystickMovedENS7_17JoystickConnectedENS7_20JoystickDisconnectedENS7_10TouchBeganENS7_10TouchMovedENS7_10TouchEndedENS7_13SensorChangedEEEELm14EEEODaOT_NS_16in_place_index_tIXT0_EEE, symObjAddr: 0x1149C, symBinAddr: 0x100014738, symSize: 0x24 }
  - { offsetInCU: 0x4415F, offset: 0x4415F, size: 0x8, addend: 0x0, symName: __ZNSt3__116__variant_detail8__access7__union9__get_altB8ue170006IRKNS0_7__unionILNS0_6_TraitE0ELm2EJN2sf5Event9FocusLostENS7_11FocusGainedENS7_11TextEnteredENS7_10KeyPressedENS7_11KeyReleasedENS7_18MouseWheelScrolledENS7_18MouseButtonPressedENS7_19MouseButtonReleasedENS7_10MouseMovedENS7_13MouseMovedRawENS7_12MouseEnteredENS7_9MouseLeftENS7_21JoystickButtonPressedENS7_22JoystickButtonReleasedENS7_13JoystickMovedENS7_17JoystickConnectedENS7_20JoystickDisconnectedENS7_10TouchBeganENS7_10TouchMovedENS7_10TouchEndedENS7_13SensorChangedEEEELm13EEEODaOT_NS_16in_place_index_tIXT0_EEE, symObjAddr: 0x114C0, symBinAddr: 0x10001475C, symSize: 0x24 }
  - { offsetInCU: 0x441A2, offset: 0x441A2, size: 0x8, addend: 0x0, symName: __ZNSt3__116__variant_detail8__access7__union9__get_altB8ue170006IRKNS0_7__unionILNS0_6_TraitE0ELm3EJN2sf5Event11FocusGainedENS7_11TextEnteredENS7_10KeyPressedENS7_11KeyReleasedENS7_18MouseWheelScrolledENS7_18MouseButtonPressedENS7_19MouseButtonReleasedENS7_10MouseMovedENS7_13MouseMovedRawENS7_12MouseEnteredENS7_9MouseLeftENS7_21JoystickButtonPressedENS7_22JoystickButtonReleasedENS7_13JoystickMovedENS7_17JoystickConnectedENS7_20JoystickDisconnectedENS7_10TouchBeganENS7_10TouchMovedENS7_10TouchEndedENS7_13SensorChangedEEEELm12EEEODaOT_NS_16in_place_index_tIXT0_EEE, symObjAddr: 0x114E4, symBinAddr: 0x100014780, symSize: 0x24 }
  - { offsetInCU: 0x441E5, offset: 0x441E5, size: 0x8, addend: 0x0, symName: __ZNSt3__116__variant_detail8__access7__union9__get_altB8ue170006IRKNS0_7__unionILNS0_6_TraitE0ELm4EJN2sf5Event11TextEnteredENS7_10KeyPressedENS7_11KeyReleasedENS7_18MouseWheelScrolledENS7_18MouseButtonPressedENS7_19MouseButtonReleasedENS7_10MouseMovedENS7_13MouseMovedRawENS7_12MouseEnteredENS7_9MouseLeftENS7_21JoystickButtonPressedENS7_22JoystickButtonReleasedENS7_13JoystickMovedENS7_17JoystickConnectedENS7_20JoystickDisconnectedENS7_10TouchBeganENS7_10TouchMovedENS7_10TouchEndedENS7_13SensorChangedEEEELm11EEEODaOT_NS_16in_place_index_tIXT0_EEE, symObjAddr: 0x11508, symBinAddr: 0x1000147A4, symSize: 0x24 }
  - { offsetInCU: 0x44228, offset: 0x44228, size: 0x8, addend: 0x0, symName: __ZNSt3__116__variant_detail8__access7__union9__get_altB8ue170006IRKNS0_7__unionILNS0_6_TraitE0ELm5EJN2sf5Event10KeyPressedENS7_11KeyReleasedENS7_18MouseWheelScrolledENS7_18MouseButtonPressedENS7_19MouseButtonReleasedENS7_10MouseMovedENS7_13MouseMovedRawENS7_12MouseEnteredENS7_9MouseLeftENS7_21JoystickButtonPressedENS7_22JoystickButtonReleasedENS7_13JoystickMovedENS7_17JoystickConnectedENS7_20JoystickDisconnectedENS7_10TouchBeganENS7_10TouchMovedENS7_10TouchEndedENS7_13SensorChangedEEEELm10EEEODaOT_NS_16in_place_index_tIXT0_EEE, symObjAddr: 0x1152C, symBinAddr: 0x1000147C8, symSize: 0x24 }
  - { offsetInCU: 0x4426B, offset: 0x4426B, size: 0x8, addend: 0x0, symName: __ZNSt3__116__variant_detail8__access7__union9__get_altB8ue170006IRKNS0_7__unionILNS0_6_TraitE0ELm6EJN2sf5Event11KeyReleasedENS7_18MouseWheelScrolledENS7_18MouseButtonPressedENS7_19MouseButtonReleasedENS7_10MouseMovedENS7_13MouseMovedRawENS7_12MouseEnteredENS7_9MouseLeftENS7_21JoystickButtonPressedENS7_22JoystickButtonReleasedENS7_13JoystickMovedENS7_17JoystickConnectedENS7_20JoystickDisconnectedENS7_10TouchBeganENS7_10TouchMovedENS7_10TouchEndedENS7_13SensorChangedEEEELm9EEEODaOT_NS_16in_place_index_tIXT0_EEE, symObjAddr: 0x11550, symBinAddr: 0x1000147EC, symSize: 0x24 }
  - { offsetInCU: 0x442AE, offset: 0x442AE, size: 0x8, addend: 0x0, symName: __ZNSt3__116__variant_detail8__access7__union9__get_altB8ue170006IRKNS0_7__unionILNS0_6_TraitE0ELm7EJN2sf5Event18MouseWheelScrolledENS7_18MouseButtonPressedENS7_19MouseButtonReleasedENS7_10MouseMovedENS7_13MouseMovedRawENS7_12MouseEnteredENS7_9MouseLeftENS7_21JoystickButtonPressedENS7_22JoystickButtonReleasedENS7_13JoystickMovedENS7_17JoystickConnectedENS7_20JoystickDisconnectedENS7_10TouchBeganENS7_10TouchMovedENS7_10TouchEndedENS7_13SensorChangedEEEELm8EEEODaOT_NS_16in_place_index_tIXT0_EEE, symObjAddr: 0x11574, symBinAddr: 0x100014810, symSize: 0x24 }
  - { offsetInCU: 0x442F1, offset: 0x442F1, size: 0x8, addend: 0x0, symName: __ZNSt3__116__variant_detail8__access7__union9__get_altB8ue170006IRKNS0_7__unionILNS0_6_TraitE0ELm8EJN2sf5Event18MouseButtonPressedENS7_19MouseButtonReleasedENS7_10MouseMovedENS7_13MouseMovedRawENS7_12MouseEnteredENS7_9MouseLeftENS7_21JoystickButtonPressedENS7_22JoystickButtonReleasedENS7_13JoystickMovedENS7_17JoystickConnectedENS7_20JoystickDisconnectedENS7_10TouchBeganENS7_10TouchMovedENS7_10TouchEndedENS7_13SensorChangedEEEELm7EEEODaOT_NS_16in_place_index_tIXT0_EEE, symObjAddr: 0x11598, symBinAddr: 0x100014834, symSize: 0x24 }
  - { offsetInCU: 0x44334, offset: 0x44334, size: 0x8, addend: 0x0, symName: __ZNSt3__116__variant_detail8__access7__union9__get_altB8ue170006IRKNS0_7__unionILNS0_6_TraitE0ELm9EJN2sf5Event19MouseButtonReleasedENS7_10MouseMovedENS7_13MouseMovedRawENS7_12MouseEnteredENS7_9MouseLeftENS7_21JoystickButtonPressedENS7_22JoystickButtonReleasedENS7_13JoystickMovedENS7_17JoystickConnectedENS7_20JoystickDisconnectedENS7_10TouchBeganENS7_10TouchMovedENS7_10TouchEndedENS7_13SensorChangedEEEELm6EEEODaOT_NS_16in_place_index_tIXT0_EEE, symObjAddr: 0x115BC, symBinAddr: 0x100014858, symSize: 0x24 }
  - { offsetInCU: 0x44377, offset: 0x44377, size: 0x8, addend: 0x0, symName: __ZNSt3__116__variant_detail8__access7__union9__get_altB8ue170006IRKNS0_7__unionILNS0_6_TraitE0ELm10EJN2sf5Event10MouseMovedENS7_13MouseMovedRawENS7_12MouseEnteredENS7_9MouseLeftENS7_21JoystickButtonPressedENS7_22JoystickButtonReleasedENS7_13JoystickMovedENS7_17JoystickConnectedENS7_20JoystickDisconnectedENS7_10TouchBeganENS7_10TouchMovedENS7_10TouchEndedENS7_13SensorChangedEEEELm5EEEODaOT_NS_16in_place_index_tIXT0_EEE, symObjAddr: 0x115E0, symBinAddr: 0x10001487C, symSize: 0x24 }
  - { offsetInCU: 0x443BA, offset: 0x443BA, size: 0x8, addend: 0x0, symName: __ZNSt3__116__variant_detail8__access7__union9__get_altB8ue170006IRKNS0_7__unionILNS0_6_TraitE0ELm11EJN2sf5Event13MouseMovedRawENS7_12MouseEnteredENS7_9MouseLeftENS7_21JoystickButtonPressedENS7_22JoystickButtonReleasedENS7_13JoystickMovedENS7_17JoystickConnectedENS7_20JoystickDisconnectedENS7_10TouchBeganENS7_10TouchMovedENS7_10TouchEndedENS7_13SensorChangedEEEELm4EEEODaOT_NS_16in_place_index_tIXT0_EEE, symObjAddr: 0x11604, symBinAddr: 0x1000148A0, symSize: 0x24 }
  - { offsetInCU: 0x443FD, offset: 0x443FD, size: 0x8, addend: 0x0, symName: __ZNSt3__116__variant_detail8__access7__union9__get_altB8ue170006IRKNS0_7__unionILNS0_6_TraitE0ELm12EJN2sf5Event12MouseEnteredENS7_9MouseLeftENS7_21JoystickButtonPressedENS7_22JoystickButtonReleasedENS7_13JoystickMovedENS7_17JoystickConnectedENS7_20JoystickDisconnectedENS7_10TouchBeganENS7_10TouchMovedENS7_10TouchEndedENS7_13SensorChangedEEEELm3EEEODaOT_NS_16in_place_index_tIXT0_EEE, symObjAddr: 0x11628, symBinAddr: 0x1000148C4, symSize: 0x24 }
  - { offsetInCU: 0x44440, offset: 0x44440, size: 0x8, addend: 0x0, symName: __ZNSt3__116__variant_detail8__access7__union9__get_altB8ue170006IRKNS0_7__unionILNS0_6_TraitE0ELm13EJN2sf5Event9MouseLeftENS7_21JoystickButtonPressedENS7_22JoystickButtonReleasedENS7_13JoystickMovedENS7_17JoystickConnectedENS7_20JoystickDisconnectedENS7_10TouchBeganENS7_10TouchMovedENS7_10TouchEndedENS7_13SensorChangedEEEELm2EEEODaOT_NS_16in_place_index_tIXT0_EEE, symObjAddr: 0x1164C, symBinAddr: 0x1000148E8, symSize: 0x24 }
  - { offsetInCU: 0x44483, offset: 0x44483, size: 0x8, addend: 0x0, symName: __ZNSt3__116__variant_detail8__access7__union9__get_altB8ue170006IRKNS0_7__unionILNS0_6_TraitE0ELm14EJN2sf5Event21JoystickButtonPressedENS7_22JoystickButtonReleasedENS7_13JoystickMovedENS7_17JoystickConnectedENS7_20JoystickDisconnectedENS7_10TouchBeganENS7_10TouchMovedENS7_10TouchEndedENS7_13SensorChangedEEEELm1EEEODaOT_NS_16in_place_index_tIXT0_EEE, symObjAddr: 0x11670, symBinAddr: 0x10001490C, symSize: 0x24 }
  - { offsetInCU: 0x444C6, offset: 0x444C6, size: 0x8, addend: 0x0, symName: __ZNSt3__116__variant_detail8__access7__union9__get_altB8ue170006IRKNS0_7__unionILNS0_6_TraitE0ELm15EJN2sf5Event22JoystickButtonReleasedENS7_13JoystickMovedENS7_17JoystickConnectedENS7_20JoystickDisconnectedENS7_10TouchBeganENS7_10TouchMovedENS7_10TouchEndedENS7_13SensorChangedEEEEEEODaOT_NS_16in_place_index_tILm0EEE, symObjAddr: 0x11694, symBinAddr: 0x100014930, symSize: 0x14 }
  - { offsetInCU: 0x4450A, offset: 0x4450A, size: 0x8, addend: 0x0, symName: __ZNSt3__116__variant_detail8__access6__base9__get_altB8ue170006ILm16ERKNS0_6__baseILNS0_6_TraitE0EJN2sf5Event6ClosedENS7_7ResizedENS7_9FocusLostENS7_11FocusGainedENS7_11TextEnteredENS7_10KeyPressedENS7_11KeyReleasedENS7_18MouseWheelScrolledENS7_18MouseButtonPressedENS7_19MouseButtonReleasedENS7_10MouseMovedENS7_13MouseMovedRawENS7_12MouseEnteredENS7_9MouseLeftENS7_21JoystickButtonPressedENS7_22JoystickButtonReleasedENS7_13JoystickMovedENS7_17JoystickConnectedENS7_20JoystickDisconnectedENS7_10TouchBeganENS7_10TouchMovedENS7_10TouchEndedENS7_13SensorChangedEEEEEEODaOT0_, symObjAddr: 0x116D4, symBinAddr: 0x100014970, symSize: 0x24 }
  - { offsetInCU: 0x44541, offset: 0x44541, size: 0x8, addend: 0x0, symName: '__ZNKSt3__116__variant_detail12__visitation9__variant15__value_visitorIRN2sf4priv11OverloadSetIJZ6drivervE3$_0ZNS4_10WindowBase12handleEventsIJRKS7_EEEvDpOT_EUlRKNS5_23DelayOverloadResolutionEE_EEEEclB8ue170006IJRKNS0_5__altILm16ENS4_5Event13JoystickMovedEEEEEEDcSE_', symObjAddr: 0x116F8, symBinAddr: 0x100014994, symSize: 0x3C }
  - { offsetInCU: 0x4458C, offset: 0x4458C, size: 0x8, addend: 0x0, symName: '__ZNSt3__116__variant_detail12__visitation9__variant36__std_visit_exhaustive_visitor_checkB8ue170006IRN2sf4priv11OverloadSetIJZ6drivervE3$_0ZNS4_10WindowBase12handleEventsIJRKS7_EEEvDpOT_EUlRKNS5_23DelayOverloadResolutionEE_EEEJRKNS4_5Event13JoystickMovedEEEEvv', symObjAddr: 0x11734, symBinAddr: 0x1000149D0, symSize: 0x4 }
  - { offsetInCU: 0x445B5, offset: 0x445B5, size: 0x8, addend: 0x0, symName: __ZN2sf4priv23DelayOverloadResolutionC1INS_5Event13JoystickMovedEEERKT_, symObjAddr: 0x1177C, symBinAddr: 0x100014A18, symSize: 0x34 }
  - { offsetInCU: 0x445F3, offset: 0x445F3, size: 0x8, addend: 0x0, symName: __ZN2sf4priv23DelayOverloadResolutionC2INS_5Event13JoystickMovedEEERKT_, symObjAddr: 0x117B0, symBinAddr: 0x100014A4C, symSize: 0x18 }
  - { offsetInCU: 0x44631, offset: 0x44631, size: 0x8, addend: 0x0, symName: __ZNSt3__116__variant_detail8__access7__union9__get_altB8ue170006IRKNS0_7__unionILNS0_6_TraitE0ELm0EJN2sf5Event6ClosedENS7_7ResizedENS7_9FocusLostENS7_11FocusGainedENS7_11TextEnteredENS7_10KeyPressedENS7_11KeyReleasedENS7_18MouseWheelScrolledENS7_18MouseButtonPressedENS7_19MouseButtonReleasedENS7_10MouseMovedENS7_13MouseMovedRawENS7_12MouseEnteredENS7_9MouseLeftENS7_21JoystickButtonPressedENS7_22JoystickButtonReleasedENS7_13JoystickMovedENS7_17JoystickConnectedENS7_20JoystickDisconnectedENS7_10TouchBeganENS7_10TouchMovedENS7_10TouchEndedENS7_13SensorChangedEEEELm16EEEODaOT_NS_16in_place_index_tIXT0_EEE, symObjAddr: 0x117C8, symBinAddr: 0x100014A64, symSize: 0x24 }
  - { offsetInCU: 0x44674, offset: 0x44674, size: 0x8, addend: 0x0, symName: __ZNSt3__116__variant_detail8__access7__union9__get_altB8ue170006IRKNS0_7__unionILNS0_6_TraitE0ELm1EJN2sf5Event7ResizedENS7_9FocusLostENS7_11FocusGainedENS7_11TextEnteredENS7_10KeyPressedENS7_11KeyReleasedENS7_18MouseWheelScrolledENS7_18MouseButtonPressedENS7_19MouseButtonReleasedENS7_10MouseMovedENS7_13MouseMovedRawENS7_12MouseEnteredENS7_9MouseLeftENS7_21JoystickButtonPressedENS7_22JoystickButtonReleasedENS7_13JoystickMovedENS7_17JoystickConnectedENS7_20JoystickDisconnectedENS7_10TouchBeganENS7_10TouchMovedENS7_10TouchEndedENS7_13SensorChangedEEEELm15EEEODaOT_NS_16in_place_index_tIXT0_EEE, symObjAddr: 0x117EC, symBinAddr: 0x100014A88, symSize: 0x24 }
  - { offsetInCU: 0x446B7, offset: 0x446B7, size: 0x8, addend: 0x0, symName: __ZNSt3__116__variant_detail8__access7__union9__get_altB8ue170006IRKNS0_7__unionILNS0_6_TraitE0ELm2EJN2sf5Event9FocusLostENS7_11FocusGainedENS7_11TextEnteredENS7_10KeyPressedENS7_11KeyReleasedENS7_18MouseWheelScrolledENS7_18MouseButtonPressedENS7_19MouseButtonReleasedENS7_10MouseMovedENS7_13MouseMovedRawENS7_12MouseEnteredENS7_9MouseLeftENS7_21JoystickButtonPressedENS7_22JoystickButtonReleasedENS7_13JoystickMovedENS7_17JoystickConnectedENS7_20JoystickDisconnectedENS7_10TouchBeganENS7_10TouchMovedENS7_10TouchEndedENS7_13SensorChangedEEEELm14EEEODaOT_NS_16in_place_index_tIXT0_EEE, symObjAddr: 0x11810, symBinAddr: 0x100014AAC, symSize: 0x24 }
  - { offsetInCU: 0x446FA, offset: 0x446FA, size: 0x8, addend: 0x0, symName: __ZNSt3__116__variant_detail8__access7__union9__get_altB8ue170006IRKNS0_7__unionILNS0_6_TraitE0ELm3EJN2sf5Event11FocusGainedENS7_11TextEnteredENS7_10KeyPressedENS7_11KeyReleasedENS7_18MouseWheelScrolledENS7_18MouseButtonPressedENS7_19MouseButtonReleasedENS7_10MouseMovedENS7_13MouseMovedRawENS7_12MouseEnteredENS7_9MouseLeftENS7_21JoystickButtonPressedENS7_22JoystickButtonReleasedENS7_13JoystickMovedENS7_17JoystickConnectedENS7_20JoystickDisconnectedENS7_10TouchBeganENS7_10TouchMovedENS7_10TouchEndedENS7_13SensorChangedEEEELm13EEEODaOT_NS_16in_place_index_tIXT0_EEE, symObjAddr: 0x11834, symBinAddr: 0x100014AD0, symSize: 0x24 }
  - { offsetInCU: 0x4473D, offset: 0x4473D, size: 0x8, addend: 0x0, symName: __ZNSt3__116__variant_detail8__access7__union9__get_altB8ue170006IRKNS0_7__unionILNS0_6_TraitE0ELm4EJN2sf5Event11TextEnteredENS7_10KeyPressedENS7_11KeyReleasedENS7_18MouseWheelScrolledENS7_18MouseButtonPressedENS7_19MouseButtonReleasedENS7_10MouseMovedENS7_13MouseMovedRawENS7_12MouseEnteredENS7_9MouseLeftENS7_21JoystickButtonPressedENS7_22JoystickButtonReleasedENS7_13JoystickMovedENS7_17JoystickConnectedENS7_20JoystickDisconnectedENS7_10TouchBeganENS7_10TouchMovedENS7_10TouchEndedENS7_13SensorChangedEEEELm12EEEODaOT_NS_16in_place_index_tIXT0_EEE, symObjAddr: 0x11858, symBinAddr: 0x100014AF4, symSize: 0x24 }
  - { offsetInCU: 0x44780, offset: 0x44780, size: 0x8, addend: 0x0, symName: __ZNSt3__116__variant_detail8__access7__union9__get_altB8ue170006IRKNS0_7__unionILNS0_6_TraitE0ELm5EJN2sf5Event10KeyPressedENS7_11KeyReleasedENS7_18MouseWheelScrolledENS7_18MouseButtonPressedENS7_19MouseButtonReleasedENS7_10MouseMovedENS7_13MouseMovedRawENS7_12MouseEnteredENS7_9MouseLeftENS7_21JoystickButtonPressedENS7_22JoystickButtonReleasedENS7_13JoystickMovedENS7_17JoystickConnectedENS7_20JoystickDisconnectedENS7_10TouchBeganENS7_10TouchMovedENS7_10TouchEndedENS7_13SensorChangedEEEELm11EEEODaOT_NS_16in_place_index_tIXT0_EEE, symObjAddr: 0x1187C, symBinAddr: 0x100014B18, symSize: 0x24 }
  - { offsetInCU: 0x447C3, offset: 0x447C3, size: 0x8, addend: 0x0, symName: __ZNSt3__116__variant_detail8__access7__union9__get_altB8ue170006IRKNS0_7__unionILNS0_6_TraitE0ELm6EJN2sf5Event11KeyReleasedENS7_18MouseWheelScrolledENS7_18MouseButtonPressedENS7_19MouseButtonReleasedENS7_10MouseMovedENS7_13MouseMovedRawENS7_12MouseEnteredENS7_9MouseLeftENS7_21JoystickButtonPressedENS7_22JoystickButtonReleasedENS7_13JoystickMovedENS7_17JoystickConnectedENS7_20JoystickDisconnectedENS7_10TouchBeganENS7_10TouchMovedENS7_10TouchEndedENS7_13SensorChangedEEEELm10EEEODaOT_NS_16in_place_index_tIXT0_EEE, symObjAddr: 0x118A0, symBinAddr: 0x100014B3C, symSize: 0x24 }
  - { offsetInCU: 0x44806, offset: 0x44806, size: 0x8, addend: 0x0, symName: __ZNSt3__116__variant_detail8__access7__union9__get_altB8ue170006IRKNS0_7__unionILNS0_6_TraitE0ELm7EJN2sf5Event18MouseWheelScrolledENS7_18MouseButtonPressedENS7_19MouseButtonReleasedENS7_10MouseMovedENS7_13MouseMovedRawENS7_12MouseEnteredENS7_9MouseLeftENS7_21JoystickButtonPressedENS7_22JoystickButtonReleasedENS7_13JoystickMovedENS7_17JoystickConnectedENS7_20JoystickDisconnectedENS7_10TouchBeganENS7_10TouchMovedENS7_10TouchEndedENS7_13SensorChangedEEEELm9EEEODaOT_NS_16in_place_index_tIXT0_EEE, symObjAddr: 0x118C4, symBinAddr: 0x100014B60, symSize: 0x24 }
  - { offsetInCU: 0x44849, offset: 0x44849, size: 0x8, addend: 0x0, symName: __ZNSt3__116__variant_detail8__access7__union9__get_altB8ue170006IRKNS0_7__unionILNS0_6_TraitE0ELm8EJN2sf5Event18MouseButtonPressedENS7_19MouseButtonReleasedENS7_10MouseMovedENS7_13MouseMovedRawENS7_12MouseEnteredENS7_9MouseLeftENS7_21JoystickButtonPressedENS7_22JoystickButtonReleasedENS7_13JoystickMovedENS7_17JoystickConnectedENS7_20JoystickDisconnectedENS7_10TouchBeganENS7_10TouchMovedENS7_10TouchEndedENS7_13SensorChangedEEEELm8EEEODaOT_NS_16in_place_index_tIXT0_EEE, symObjAddr: 0x118E8, symBinAddr: 0x100014B84, symSize: 0x24 }
  - { offsetInCU: 0x4488C, offset: 0x4488C, size: 0x8, addend: 0x0, symName: __ZNSt3__116__variant_detail8__access7__union9__get_altB8ue170006IRKNS0_7__unionILNS0_6_TraitE0ELm9EJN2sf5Event19MouseButtonReleasedENS7_10MouseMovedENS7_13MouseMovedRawENS7_12MouseEnteredENS7_9MouseLeftENS7_21JoystickButtonPressedENS7_22JoystickButtonReleasedENS7_13JoystickMovedENS7_17JoystickConnectedENS7_20JoystickDisconnectedENS7_10TouchBeganENS7_10TouchMovedENS7_10TouchEndedENS7_13SensorChangedEEEELm7EEEODaOT_NS_16in_place_index_tIXT0_EEE, symObjAddr: 0x1190C, symBinAddr: 0x100014BA8, symSize: 0x24 }
  - { offsetInCU: 0x448CF, offset: 0x448CF, size: 0x8, addend: 0x0, symName: __ZNSt3__116__variant_detail8__access7__union9__get_altB8ue170006IRKNS0_7__unionILNS0_6_TraitE0ELm10EJN2sf5Event10MouseMovedENS7_13MouseMovedRawENS7_12MouseEnteredENS7_9MouseLeftENS7_21JoystickButtonPressedENS7_22JoystickButtonReleasedENS7_13JoystickMovedENS7_17JoystickConnectedENS7_20JoystickDisconnectedENS7_10TouchBeganENS7_10TouchMovedENS7_10TouchEndedENS7_13SensorChangedEEEELm6EEEODaOT_NS_16in_place_index_tIXT0_EEE, symObjAddr: 0x11930, symBinAddr: 0x100014BCC, symSize: 0x24 }
  - { offsetInCU: 0x44912, offset: 0x44912, size: 0x8, addend: 0x0, symName: __ZNSt3__116__variant_detail8__access7__union9__get_altB8ue170006IRKNS0_7__unionILNS0_6_TraitE0ELm11EJN2sf5Event13MouseMovedRawENS7_12MouseEnteredENS7_9MouseLeftENS7_21JoystickButtonPressedENS7_22JoystickButtonReleasedENS7_13JoystickMovedENS7_17JoystickConnectedENS7_20JoystickDisconnectedENS7_10TouchBeganENS7_10TouchMovedENS7_10TouchEndedENS7_13SensorChangedEEEELm5EEEODaOT_NS_16in_place_index_tIXT0_EEE, symObjAddr: 0x11954, symBinAddr: 0x100014BF0, symSize: 0x24 }
  - { offsetInCU: 0x44955, offset: 0x44955, size: 0x8, addend: 0x0, symName: __ZNSt3__116__variant_detail8__access7__union9__get_altB8ue170006IRKNS0_7__unionILNS0_6_TraitE0ELm12EJN2sf5Event12MouseEnteredENS7_9MouseLeftENS7_21JoystickButtonPressedENS7_22JoystickButtonReleasedENS7_13JoystickMovedENS7_17JoystickConnectedENS7_20JoystickDisconnectedENS7_10TouchBeganENS7_10TouchMovedENS7_10TouchEndedENS7_13SensorChangedEEEELm4EEEODaOT_NS_16in_place_index_tIXT0_EEE, symObjAddr: 0x11978, symBinAddr: 0x100014C14, symSize: 0x24 }
  - { offsetInCU: 0x44998, offset: 0x44998, size: 0x8, addend: 0x0, symName: __ZNSt3__116__variant_detail8__access7__union9__get_altB8ue170006IRKNS0_7__unionILNS0_6_TraitE0ELm13EJN2sf5Event9MouseLeftENS7_21JoystickButtonPressedENS7_22JoystickButtonReleasedENS7_13JoystickMovedENS7_17JoystickConnectedENS7_20JoystickDisconnectedENS7_10TouchBeganENS7_10TouchMovedENS7_10TouchEndedENS7_13SensorChangedEEEELm3EEEODaOT_NS_16in_place_index_tIXT0_EEE, symObjAddr: 0x1199C, symBinAddr: 0x100014C38, symSize: 0x24 }
  - { offsetInCU: 0x449DB, offset: 0x449DB, size: 0x8, addend: 0x0, symName: __ZNSt3__116__variant_detail8__access7__union9__get_altB8ue170006IRKNS0_7__unionILNS0_6_TraitE0ELm14EJN2sf5Event21JoystickButtonPressedENS7_22JoystickButtonReleasedENS7_13JoystickMovedENS7_17JoystickConnectedENS7_20JoystickDisconnectedENS7_10TouchBeganENS7_10TouchMovedENS7_10TouchEndedENS7_13SensorChangedEEEELm2EEEODaOT_NS_16in_place_index_tIXT0_EEE, symObjAddr: 0x119C0, symBinAddr: 0x100014C5C, symSize: 0x24 }
  - { offsetInCU: 0x44A1E, offset: 0x44A1E, size: 0x8, addend: 0x0, symName: __ZNSt3__116__variant_detail8__access7__union9__get_altB8ue170006IRKNS0_7__unionILNS0_6_TraitE0ELm15EJN2sf5Event22JoystickButtonReleasedENS7_13JoystickMovedENS7_17JoystickConnectedENS7_20JoystickDisconnectedENS7_10TouchBeganENS7_10TouchMovedENS7_10TouchEndedENS7_13SensorChangedEEEELm1EEEODaOT_NS_16in_place_index_tIXT0_EEE, symObjAddr: 0x119E4, symBinAddr: 0x100014C80, symSize: 0x24 }
  - { offsetInCU: 0x44A61, offset: 0x44A61, size: 0x8, addend: 0x0, symName: __ZNSt3__116__variant_detail8__access7__union9__get_altB8ue170006IRKNS0_7__unionILNS0_6_TraitE0ELm16EJN2sf5Event13JoystickMovedENS7_17JoystickConnectedENS7_20JoystickDisconnectedENS7_10TouchBeganENS7_10TouchMovedENS7_10TouchEndedENS7_13SensorChangedEEEEEEODaOT_NS_16in_place_index_tILm0EEE, symObjAddr: 0x11A08, symBinAddr: 0x100014CA4, symSize: 0x14 }
  - { offsetInCU: 0x44AA5, offset: 0x44AA5, size: 0x8, addend: 0x0, symName: __ZNSt3__116__variant_detail8__access6__base9__get_altB8ue170006ILm17ERKNS0_6__baseILNS0_6_TraitE0EJN2sf5Event6ClosedENS7_7ResizedENS7_9FocusLostENS7_11FocusGainedENS7_11TextEnteredENS7_10KeyPressedENS7_11KeyReleasedENS7_18MouseWheelScrolledENS7_18MouseButtonPressedENS7_19MouseButtonReleasedENS7_10MouseMovedENS7_13MouseMovedRawENS7_12MouseEnteredENS7_9MouseLeftENS7_21JoystickButtonPressedENS7_22JoystickButtonReleasedENS7_13JoystickMovedENS7_17JoystickConnectedENS7_20JoystickDisconnectedENS7_10TouchBeganENS7_10TouchMovedENS7_10TouchEndedENS7_13SensorChangedEEEEEEODaOT0_, symObjAddr: 0x11A48, symBinAddr: 0x100014CE4, symSize: 0x24 }
  - { offsetInCU: 0x44ADC, offset: 0x44ADC, size: 0x8, addend: 0x0, symName: '__ZNKSt3__116__variant_detail12__visitation9__variant15__value_visitorIRN2sf4priv11OverloadSetIJZ6drivervE3$_0ZNS4_10WindowBase12handleEventsIJRKS7_EEEvDpOT_EUlRKNS5_23DelayOverloadResolutionEE_EEEEclB8ue170006IJRKNS0_5__altILm17ENS4_5Event17JoystickConnectedEEEEEEDcSE_', symObjAddr: 0x11A6C, symBinAddr: 0x100014D08, symSize: 0x3C }
  - { offsetInCU: 0x44B27, offset: 0x44B27, size: 0x8, addend: 0x0, symName: '__ZNSt3__116__variant_detail12__visitation9__variant36__std_visit_exhaustive_visitor_checkB8ue170006IRN2sf4priv11OverloadSetIJZ6drivervE3$_0ZNS4_10WindowBase12handleEventsIJRKS7_EEEvDpOT_EUlRKNS5_23DelayOverloadResolutionEE_EEEJRKNS4_5Event17JoystickConnectedEEEEvv', symObjAddr: 0x11AA8, symBinAddr: 0x100014D44, symSize: 0x4 }
  - { offsetInCU: 0x44B50, offset: 0x44B50, size: 0x8, addend: 0x0, symName: __ZN2sf4priv23DelayOverloadResolutionC1INS_5Event17JoystickConnectedEEERKT_, symObjAddr: 0x11AF0, symBinAddr: 0x100014D8C, symSize: 0x34 }
  - { offsetInCU: 0x44B8E, offset: 0x44B8E, size: 0x8, addend: 0x0, symName: __ZN2sf4priv23DelayOverloadResolutionC2INS_5Event17JoystickConnectedEEERKT_, symObjAddr: 0x11B24, symBinAddr: 0x100014DC0, symSize: 0x18 }
  - { offsetInCU: 0x44BCC, offset: 0x44BCC, size: 0x8, addend: 0x0, symName: __ZNSt3__116__variant_detail8__access7__union9__get_altB8ue170006IRKNS0_7__unionILNS0_6_TraitE0ELm0EJN2sf5Event6ClosedENS7_7ResizedENS7_9FocusLostENS7_11FocusGainedENS7_11TextEnteredENS7_10KeyPressedENS7_11KeyReleasedENS7_18MouseWheelScrolledENS7_18MouseButtonPressedENS7_19MouseButtonReleasedENS7_10MouseMovedENS7_13MouseMovedRawENS7_12MouseEnteredENS7_9MouseLeftENS7_21JoystickButtonPressedENS7_22JoystickButtonReleasedENS7_13JoystickMovedENS7_17JoystickConnectedENS7_20JoystickDisconnectedENS7_10TouchBeganENS7_10TouchMovedENS7_10TouchEndedENS7_13SensorChangedEEEELm17EEEODaOT_NS_16in_place_index_tIXT0_EEE, symObjAddr: 0x11B3C, symBinAddr: 0x100014DD8, symSize: 0x24 }
  - { offsetInCU: 0x44C0F, offset: 0x44C0F, size: 0x8, addend: 0x0, symName: __ZNSt3__116__variant_detail8__access7__union9__get_altB8ue170006IRKNS0_7__unionILNS0_6_TraitE0ELm1EJN2sf5Event7ResizedENS7_9FocusLostENS7_11FocusGainedENS7_11TextEnteredENS7_10KeyPressedENS7_11KeyReleasedENS7_18MouseWheelScrolledENS7_18MouseButtonPressedENS7_19MouseButtonReleasedENS7_10MouseMovedENS7_13MouseMovedRawENS7_12MouseEnteredENS7_9MouseLeftENS7_21JoystickButtonPressedENS7_22JoystickButtonReleasedENS7_13JoystickMovedENS7_17JoystickConnectedENS7_20JoystickDisconnectedENS7_10TouchBeganENS7_10TouchMovedENS7_10TouchEndedENS7_13SensorChangedEEEELm16EEEODaOT_NS_16in_place_index_tIXT0_EEE, symObjAddr: 0x11B60, symBinAddr: 0x100014DFC, symSize: 0x24 }
  - { offsetInCU: 0x44C52, offset: 0x44C52, size: 0x8, addend: 0x0, symName: __ZNSt3__116__variant_detail8__access7__union9__get_altB8ue170006IRKNS0_7__unionILNS0_6_TraitE0ELm2EJN2sf5Event9FocusLostENS7_11FocusGainedENS7_11TextEnteredENS7_10KeyPressedENS7_11KeyReleasedENS7_18MouseWheelScrolledENS7_18MouseButtonPressedENS7_19MouseButtonReleasedENS7_10MouseMovedENS7_13MouseMovedRawENS7_12MouseEnteredENS7_9MouseLeftENS7_21JoystickButtonPressedENS7_22JoystickButtonReleasedENS7_13JoystickMovedENS7_17JoystickConnectedENS7_20JoystickDisconnectedENS7_10TouchBeganENS7_10TouchMovedENS7_10TouchEndedENS7_13SensorChangedEEEELm15EEEODaOT_NS_16in_place_index_tIXT0_EEE, symObjAddr: 0x11B84, symBinAddr: 0x100014E20, symSize: 0x24 }
  - { offsetInCU: 0x44C95, offset: 0x44C95, size: 0x8, addend: 0x0, symName: __ZNSt3__116__variant_detail8__access7__union9__get_altB8ue170006IRKNS0_7__unionILNS0_6_TraitE0ELm3EJN2sf5Event11FocusGainedENS7_11TextEnteredENS7_10KeyPressedENS7_11KeyReleasedENS7_18MouseWheelScrolledENS7_18MouseButtonPressedENS7_19MouseButtonReleasedENS7_10MouseMovedENS7_13MouseMovedRawENS7_12MouseEnteredENS7_9MouseLeftENS7_21JoystickButtonPressedENS7_22JoystickButtonReleasedENS7_13JoystickMovedENS7_17JoystickConnectedENS7_20JoystickDisconnectedENS7_10TouchBeganENS7_10TouchMovedENS7_10TouchEndedENS7_13SensorChangedEEEELm14EEEODaOT_NS_16in_place_index_tIXT0_EEE, symObjAddr: 0x11BA8, symBinAddr: 0x100014E44, symSize: 0x24 }
  - { offsetInCU: 0x44CD8, offset: 0x44CD8, size: 0x8, addend: 0x0, symName: __ZNSt3__116__variant_detail8__access7__union9__get_altB8ue170006IRKNS0_7__unionILNS0_6_TraitE0ELm4EJN2sf5Event11TextEnteredENS7_10KeyPressedENS7_11KeyReleasedENS7_18MouseWheelScrolledENS7_18MouseButtonPressedENS7_19MouseButtonReleasedENS7_10MouseMovedENS7_13MouseMovedRawENS7_12MouseEnteredENS7_9MouseLeftENS7_21JoystickButtonPressedENS7_22JoystickButtonReleasedENS7_13JoystickMovedENS7_17JoystickConnectedENS7_20JoystickDisconnectedENS7_10TouchBeganENS7_10TouchMovedENS7_10TouchEndedENS7_13SensorChangedEEEELm13EEEODaOT_NS_16in_place_index_tIXT0_EEE, symObjAddr: 0x11BCC, symBinAddr: 0x100014E68, symSize: 0x24 }
  - { offsetInCU: 0x44D1B, offset: 0x44D1B, size: 0x8, addend: 0x0, symName: __ZNSt3__116__variant_detail8__access7__union9__get_altB8ue170006IRKNS0_7__unionILNS0_6_TraitE0ELm5EJN2sf5Event10KeyPressedENS7_11KeyReleasedENS7_18MouseWheelScrolledENS7_18MouseButtonPressedENS7_19MouseButtonReleasedENS7_10MouseMovedENS7_13MouseMovedRawENS7_12MouseEnteredENS7_9MouseLeftENS7_21JoystickButtonPressedENS7_22JoystickButtonReleasedENS7_13JoystickMovedENS7_17JoystickConnectedENS7_20JoystickDisconnectedENS7_10TouchBeganENS7_10TouchMovedENS7_10TouchEndedENS7_13SensorChangedEEEELm12EEEODaOT_NS_16in_place_index_tIXT0_EEE, symObjAddr: 0x11BF0, symBinAddr: 0x100014E8C, symSize: 0x24 }
  - { offsetInCU: 0x44D5E, offset: 0x44D5E, size: 0x8, addend: 0x0, symName: __ZNSt3__116__variant_detail8__access7__union9__get_altB8ue170006IRKNS0_7__unionILNS0_6_TraitE0ELm6EJN2sf5Event11KeyReleasedENS7_18MouseWheelScrolledENS7_18MouseButtonPressedENS7_19MouseButtonReleasedENS7_10MouseMovedENS7_13MouseMovedRawENS7_12MouseEnteredENS7_9MouseLeftENS7_21JoystickButtonPressedENS7_22JoystickButtonReleasedENS7_13JoystickMovedENS7_17JoystickConnectedENS7_20JoystickDisconnectedENS7_10TouchBeganENS7_10TouchMovedENS7_10TouchEndedENS7_13SensorChangedEEEELm11EEEODaOT_NS_16in_place_index_tIXT0_EEE, symObjAddr: 0x11C14, symBinAddr: 0x100014EB0, symSize: 0x24 }
  - { offsetInCU: 0x44DA1, offset: 0x44DA1, size: 0x8, addend: 0x0, symName: __ZNSt3__116__variant_detail8__access7__union9__get_altB8ue170006IRKNS0_7__unionILNS0_6_TraitE0ELm7EJN2sf5Event18MouseWheelScrolledENS7_18MouseButtonPressedENS7_19MouseButtonReleasedENS7_10MouseMovedENS7_13MouseMovedRawENS7_12MouseEnteredENS7_9MouseLeftENS7_21JoystickButtonPressedENS7_22JoystickButtonReleasedENS7_13JoystickMovedENS7_17JoystickConnectedENS7_20JoystickDisconnectedENS7_10TouchBeganENS7_10TouchMovedENS7_10TouchEndedENS7_13SensorChangedEEEELm10EEEODaOT_NS_16in_place_index_tIXT0_EEE, symObjAddr: 0x11C38, symBinAddr: 0x100014ED4, symSize: 0x24 }
  - { offsetInCU: 0x44DE4, offset: 0x44DE4, size: 0x8, addend: 0x0, symName: __ZNSt3__116__variant_detail8__access7__union9__get_altB8ue170006IRKNS0_7__unionILNS0_6_TraitE0ELm8EJN2sf5Event18MouseButtonPressedENS7_19MouseButtonReleasedENS7_10MouseMovedENS7_13MouseMovedRawENS7_12MouseEnteredENS7_9MouseLeftENS7_21JoystickButtonPressedENS7_22JoystickButtonReleasedENS7_13JoystickMovedENS7_17JoystickConnectedENS7_20JoystickDisconnectedENS7_10TouchBeganENS7_10TouchMovedENS7_10TouchEndedENS7_13SensorChangedEEEELm9EEEODaOT_NS_16in_place_index_tIXT0_EEE, symObjAddr: 0x11C5C, symBinAddr: 0x100014EF8, symSize: 0x24 }
  - { offsetInCU: 0x44E27, offset: 0x44E27, size: 0x8, addend: 0x0, symName: __ZNSt3__116__variant_detail8__access7__union9__get_altB8ue170006IRKNS0_7__unionILNS0_6_TraitE0ELm9EJN2sf5Event19MouseButtonReleasedENS7_10MouseMovedENS7_13MouseMovedRawENS7_12MouseEnteredENS7_9MouseLeftENS7_21JoystickButtonPressedENS7_22JoystickButtonReleasedENS7_13JoystickMovedENS7_17JoystickConnectedENS7_20JoystickDisconnectedENS7_10TouchBeganENS7_10TouchMovedENS7_10TouchEndedENS7_13SensorChangedEEEELm8EEEODaOT_NS_16in_place_index_tIXT0_EEE, symObjAddr: 0x11C80, symBinAddr: 0x100014F1C, symSize: 0x24 }
  - { offsetInCU: 0x44E6A, offset: 0x44E6A, size: 0x8, addend: 0x0, symName: __ZNSt3__116__variant_detail8__access7__union9__get_altB8ue170006IRKNS0_7__unionILNS0_6_TraitE0ELm10EJN2sf5Event10MouseMovedENS7_13MouseMovedRawENS7_12MouseEnteredENS7_9MouseLeftENS7_21JoystickButtonPressedENS7_22JoystickButtonReleasedENS7_13JoystickMovedENS7_17JoystickConnectedENS7_20JoystickDisconnectedENS7_10TouchBeganENS7_10TouchMovedENS7_10TouchEndedENS7_13SensorChangedEEEELm7EEEODaOT_NS_16in_place_index_tIXT0_EEE, symObjAddr: 0x11CA4, symBinAddr: 0x100014F40, symSize: 0x24 }
  - { offsetInCU: 0x44EAD, offset: 0x44EAD, size: 0x8, addend: 0x0, symName: __ZNSt3__116__variant_detail8__access7__union9__get_altB8ue170006IRKNS0_7__unionILNS0_6_TraitE0ELm11EJN2sf5Event13MouseMovedRawENS7_12MouseEnteredENS7_9MouseLeftENS7_21JoystickButtonPressedENS7_22JoystickButtonReleasedENS7_13JoystickMovedENS7_17JoystickConnectedENS7_20JoystickDisconnectedENS7_10TouchBeganENS7_10TouchMovedENS7_10TouchEndedENS7_13SensorChangedEEEELm6EEEODaOT_NS_16in_place_index_tIXT0_EEE, symObjAddr: 0x11CC8, symBinAddr: 0x100014F64, symSize: 0x24 }
  - { offsetInCU: 0x44EF0, offset: 0x44EF0, size: 0x8, addend: 0x0, symName: __ZNSt3__116__variant_detail8__access7__union9__get_altB8ue170006IRKNS0_7__unionILNS0_6_TraitE0ELm12EJN2sf5Event12MouseEnteredENS7_9MouseLeftENS7_21JoystickButtonPressedENS7_22JoystickButtonReleasedENS7_13JoystickMovedENS7_17JoystickConnectedENS7_20JoystickDisconnectedENS7_10TouchBeganENS7_10TouchMovedENS7_10TouchEndedENS7_13SensorChangedEEEELm5EEEODaOT_NS_16in_place_index_tIXT0_EEE, symObjAddr: 0x11CEC, symBinAddr: 0x100014F88, symSize: 0x24 }
  - { offsetInCU: 0x44F33, offset: 0x44F33, size: 0x8, addend: 0x0, symName: __ZNSt3__116__variant_detail8__access7__union9__get_altB8ue170006IRKNS0_7__unionILNS0_6_TraitE0ELm13EJN2sf5Event9MouseLeftENS7_21JoystickButtonPressedENS7_22JoystickButtonReleasedENS7_13JoystickMovedENS7_17JoystickConnectedENS7_20JoystickDisconnectedENS7_10TouchBeganENS7_10TouchMovedENS7_10TouchEndedENS7_13SensorChangedEEEELm4EEEODaOT_NS_16in_place_index_tIXT0_EEE, symObjAddr: 0x11D10, symBinAddr: 0x100014FAC, symSize: 0x24 }
  - { offsetInCU: 0x44F76, offset: 0x44F76, size: 0x8, addend: 0x0, symName: __ZNSt3__116__variant_detail8__access7__union9__get_altB8ue170006IRKNS0_7__unionILNS0_6_TraitE0ELm14EJN2sf5Event21JoystickButtonPressedENS7_22JoystickButtonReleasedENS7_13JoystickMovedENS7_17JoystickConnectedENS7_20JoystickDisconnectedENS7_10TouchBeganENS7_10TouchMovedENS7_10TouchEndedENS7_13SensorChangedEEEELm3EEEODaOT_NS_16in_place_index_tIXT0_EEE, symObjAddr: 0x11D34, symBinAddr: 0x100014FD0, symSize: 0x24 }
  - { offsetInCU: 0x44FB9, offset: 0x44FB9, size: 0x8, addend: 0x0, symName: __ZNSt3__116__variant_detail8__access7__union9__get_altB8ue170006IRKNS0_7__unionILNS0_6_TraitE0ELm15EJN2sf5Event22JoystickButtonReleasedENS7_13JoystickMovedENS7_17JoystickConnectedENS7_20JoystickDisconnectedENS7_10TouchBeganENS7_10TouchMovedENS7_10TouchEndedENS7_13SensorChangedEEEELm2EEEODaOT_NS_16in_place_index_tIXT0_EEE, symObjAddr: 0x11D58, symBinAddr: 0x100014FF4, symSize: 0x24 }
  - { offsetInCU: 0x44FFC, offset: 0x44FFC, size: 0x8, addend: 0x0, symName: __ZNSt3__116__variant_detail8__access7__union9__get_altB8ue170006IRKNS0_7__unionILNS0_6_TraitE0ELm16EJN2sf5Event13JoystickMovedENS7_17JoystickConnectedENS7_20JoystickDisconnectedENS7_10TouchBeganENS7_10TouchMovedENS7_10TouchEndedENS7_13SensorChangedEEEELm1EEEODaOT_NS_16in_place_index_tIXT0_EEE, symObjAddr: 0x11D7C, symBinAddr: 0x100015018, symSize: 0x24 }
  - { offsetInCU: 0x4503F, offset: 0x4503F, size: 0x8, addend: 0x0, symName: __ZNSt3__116__variant_detail8__access7__union9__get_altB8ue170006IRKNS0_7__unionILNS0_6_TraitE0ELm17EJN2sf5Event17JoystickConnectedENS7_20JoystickDisconnectedENS7_10TouchBeganENS7_10TouchMovedENS7_10TouchEndedENS7_13SensorChangedEEEEEEODaOT_NS_16in_place_index_tILm0EEE, symObjAddr: 0x11DA0, symBinAddr: 0x10001503C, symSize: 0x14 }
  - { offsetInCU: 0x45083, offset: 0x45083, size: 0x8, addend: 0x0, symName: __ZNSt3__116__variant_detail8__access6__base9__get_altB8ue170006ILm18ERKNS0_6__baseILNS0_6_TraitE0EJN2sf5Event6ClosedENS7_7ResizedENS7_9FocusLostENS7_11FocusGainedENS7_11TextEnteredENS7_10KeyPressedENS7_11KeyReleasedENS7_18MouseWheelScrolledENS7_18MouseButtonPressedENS7_19MouseButtonReleasedENS7_10MouseMovedENS7_13MouseMovedRawENS7_12MouseEnteredENS7_9MouseLeftENS7_21JoystickButtonPressedENS7_22JoystickButtonReleasedENS7_13JoystickMovedENS7_17JoystickConnectedENS7_20JoystickDisconnectedENS7_10TouchBeganENS7_10TouchMovedENS7_10TouchEndedENS7_13SensorChangedEEEEEEODaOT0_, symObjAddr: 0x11DE0, symBinAddr: 0x10001507C, symSize: 0x24 }
  - { offsetInCU: 0x450BA, offset: 0x450BA, size: 0x8, addend: 0x0, symName: '__ZNKSt3__116__variant_detail12__visitation9__variant15__value_visitorIRN2sf4priv11OverloadSetIJZ6drivervE3$_0ZNS4_10WindowBase12handleEventsIJRKS7_EEEvDpOT_EUlRKNS5_23DelayOverloadResolutionEE_EEEEclB8ue170006IJRKNS0_5__altILm18ENS4_5Event20JoystickDisconnectedEEEEEEDcSE_', symObjAddr: 0x11E04, symBinAddr: 0x1000150A0, symSize: 0x3C }
  - { offsetInCU: 0x45105, offset: 0x45105, size: 0x8, addend: 0x0, symName: '__ZNSt3__116__variant_detail12__visitation9__variant36__std_visit_exhaustive_visitor_checkB8ue170006IRN2sf4priv11OverloadSetIJZ6drivervE3$_0ZNS4_10WindowBase12handleEventsIJRKS7_EEEvDpOT_EUlRKNS5_23DelayOverloadResolutionEE_EEEJRKNS4_5Event20JoystickDisconnectedEEEEvv', symObjAddr: 0x11E40, symBinAddr: 0x1000150DC, symSize: 0x4 }
  - { offsetInCU: 0x4512E, offset: 0x4512E, size: 0x8, addend: 0x0, symName: __ZN2sf4priv23DelayOverloadResolutionC1INS_5Event20JoystickDisconnectedEEERKT_, symObjAddr: 0x11E88, symBinAddr: 0x100015124, symSize: 0x34 }
  - { offsetInCU: 0x4516C, offset: 0x4516C, size: 0x8, addend: 0x0, symName: __ZN2sf4priv23DelayOverloadResolutionC2INS_5Event20JoystickDisconnectedEEERKT_, symObjAddr: 0x11EBC, symBinAddr: 0x100015158, symSize: 0x18 }
  - { offsetInCU: 0x451AA, offset: 0x451AA, size: 0x8, addend: 0x0, symName: __ZNSt3__116__variant_detail8__access7__union9__get_altB8ue170006IRKNS0_7__unionILNS0_6_TraitE0ELm0EJN2sf5Event6ClosedENS7_7ResizedENS7_9FocusLostENS7_11FocusGainedENS7_11TextEnteredENS7_10KeyPressedENS7_11KeyReleasedENS7_18MouseWheelScrolledENS7_18MouseButtonPressedENS7_19MouseButtonReleasedENS7_10MouseMovedENS7_13MouseMovedRawENS7_12MouseEnteredENS7_9MouseLeftENS7_21JoystickButtonPressedENS7_22JoystickButtonReleasedENS7_13JoystickMovedENS7_17JoystickConnectedENS7_20JoystickDisconnectedENS7_10TouchBeganENS7_10TouchMovedENS7_10TouchEndedENS7_13SensorChangedEEEELm18EEEODaOT_NS_16in_place_index_tIXT0_EEE, symObjAddr: 0x11ED4, symBinAddr: 0x100015170, symSize: 0x24 }
  - { offsetInCU: 0x451ED, offset: 0x451ED, size: 0x8, addend: 0x0, symName: __ZNSt3__116__variant_detail8__access7__union9__get_altB8ue170006IRKNS0_7__unionILNS0_6_TraitE0ELm1EJN2sf5Event7ResizedENS7_9FocusLostENS7_11FocusGainedENS7_11TextEnteredENS7_10KeyPressedENS7_11KeyReleasedENS7_18MouseWheelScrolledENS7_18MouseButtonPressedENS7_19MouseButtonReleasedENS7_10MouseMovedENS7_13MouseMovedRawENS7_12MouseEnteredENS7_9MouseLeftENS7_21JoystickButtonPressedENS7_22JoystickButtonReleasedENS7_13JoystickMovedENS7_17JoystickConnectedENS7_20JoystickDisconnectedENS7_10TouchBeganENS7_10TouchMovedENS7_10TouchEndedENS7_13SensorChangedEEEELm17EEEODaOT_NS_16in_place_index_tIXT0_EEE, symObjAddr: 0x11EF8, symBinAddr: 0x100015194, symSize: 0x24 }
  - { offsetInCU: 0x45230, offset: 0x45230, size: 0x8, addend: 0x0, symName: __ZNSt3__116__variant_detail8__access7__union9__get_altB8ue170006IRKNS0_7__unionILNS0_6_TraitE0ELm2EJN2sf5Event9FocusLostENS7_11FocusGainedENS7_11TextEnteredENS7_10KeyPressedENS7_11KeyReleasedENS7_18MouseWheelScrolledENS7_18MouseButtonPressedENS7_19MouseButtonReleasedENS7_10MouseMovedENS7_13MouseMovedRawENS7_12MouseEnteredENS7_9MouseLeftENS7_21JoystickButtonPressedENS7_22JoystickButtonReleasedENS7_13JoystickMovedENS7_17JoystickConnectedENS7_20JoystickDisconnectedENS7_10TouchBeganENS7_10TouchMovedENS7_10TouchEndedENS7_13SensorChangedEEEELm16EEEODaOT_NS_16in_place_index_tIXT0_EEE, symObjAddr: 0x11F1C, symBinAddr: 0x1000151B8, symSize: 0x24 }
  - { offsetInCU: 0x45273, offset: 0x45273, size: 0x8, addend: 0x0, symName: __ZNSt3__116__variant_detail8__access7__union9__get_altB8ue170006IRKNS0_7__unionILNS0_6_TraitE0ELm3EJN2sf5Event11FocusGainedENS7_11TextEnteredENS7_10KeyPressedENS7_11KeyReleasedENS7_18MouseWheelScrolledENS7_18MouseButtonPressedENS7_19MouseButtonReleasedENS7_10MouseMovedENS7_13MouseMovedRawENS7_12MouseEnteredENS7_9MouseLeftENS7_21JoystickButtonPressedENS7_22JoystickButtonReleasedENS7_13JoystickMovedENS7_17JoystickConnectedENS7_20JoystickDisconnectedENS7_10TouchBeganENS7_10TouchMovedENS7_10TouchEndedENS7_13SensorChangedEEEELm15EEEODaOT_NS_16in_place_index_tIXT0_EEE, symObjAddr: 0x11F40, symBinAddr: 0x1000151DC, symSize: 0x24 }
  - { offsetInCU: 0x452B6, offset: 0x452B6, size: 0x8, addend: 0x0, symName: __ZNSt3__116__variant_detail8__access7__union9__get_altB8ue170006IRKNS0_7__unionILNS0_6_TraitE0ELm4EJN2sf5Event11TextEnteredENS7_10KeyPressedENS7_11KeyReleasedENS7_18MouseWheelScrolledENS7_18MouseButtonPressedENS7_19MouseButtonReleasedENS7_10MouseMovedENS7_13MouseMovedRawENS7_12MouseEnteredENS7_9MouseLeftENS7_21JoystickButtonPressedENS7_22JoystickButtonReleasedENS7_13JoystickMovedENS7_17JoystickConnectedENS7_20JoystickDisconnectedENS7_10TouchBeganENS7_10TouchMovedENS7_10TouchEndedENS7_13SensorChangedEEEELm14EEEODaOT_NS_16in_place_index_tIXT0_EEE, symObjAddr: 0x11F64, symBinAddr: 0x100015200, symSize: 0x24 }
  - { offsetInCU: 0x452F9, offset: 0x452F9, size: 0x8, addend: 0x0, symName: __ZNSt3__116__variant_detail8__access7__union9__get_altB8ue170006IRKNS0_7__unionILNS0_6_TraitE0ELm5EJN2sf5Event10KeyPressedENS7_11KeyReleasedENS7_18MouseWheelScrolledENS7_18MouseButtonPressedENS7_19MouseButtonReleasedENS7_10MouseMovedENS7_13MouseMovedRawENS7_12MouseEnteredENS7_9MouseLeftENS7_21JoystickButtonPressedENS7_22JoystickButtonReleasedENS7_13JoystickMovedENS7_17JoystickConnectedENS7_20JoystickDisconnectedENS7_10TouchBeganENS7_10TouchMovedENS7_10TouchEndedENS7_13SensorChangedEEEELm13EEEODaOT_NS_16in_place_index_tIXT0_EEE, symObjAddr: 0x11F88, symBinAddr: 0x100015224, symSize: 0x24 }
  - { offsetInCU: 0x4533C, offset: 0x4533C, size: 0x8, addend: 0x0, symName: __ZNSt3__116__variant_detail8__access7__union9__get_altB8ue170006IRKNS0_7__unionILNS0_6_TraitE0ELm6EJN2sf5Event11KeyReleasedENS7_18MouseWheelScrolledENS7_18MouseButtonPressedENS7_19MouseButtonReleasedENS7_10MouseMovedENS7_13MouseMovedRawENS7_12MouseEnteredENS7_9MouseLeftENS7_21JoystickButtonPressedENS7_22JoystickButtonReleasedENS7_13JoystickMovedENS7_17JoystickConnectedENS7_20JoystickDisconnectedENS7_10TouchBeganENS7_10TouchMovedENS7_10TouchEndedENS7_13SensorChangedEEEELm12EEEODaOT_NS_16in_place_index_tIXT0_EEE, symObjAddr: 0x11FAC, symBinAddr: 0x100015248, symSize: 0x24 }
  - { offsetInCU: 0x4537F, offset: 0x4537F, size: 0x8, addend: 0x0, symName: __ZNSt3__116__variant_detail8__access7__union9__get_altB8ue170006IRKNS0_7__unionILNS0_6_TraitE0ELm7EJN2sf5Event18MouseWheelScrolledENS7_18MouseButtonPressedENS7_19MouseButtonReleasedENS7_10MouseMovedENS7_13MouseMovedRawENS7_12MouseEnteredENS7_9MouseLeftENS7_21JoystickButtonPressedENS7_22JoystickButtonReleasedENS7_13JoystickMovedENS7_17JoystickConnectedENS7_20JoystickDisconnectedENS7_10TouchBeganENS7_10TouchMovedENS7_10TouchEndedENS7_13SensorChangedEEEELm11EEEODaOT_NS_16in_place_index_tIXT0_EEE, symObjAddr: 0x11FD0, symBinAddr: 0x10001526C, symSize: 0x24 }
  - { offsetInCU: 0x453C2, offset: 0x453C2, size: 0x8, addend: 0x0, symName: __ZNSt3__116__variant_detail8__access7__union9__get_altB8ue170006IRKNS0_7__unionILNS0_6_TraitE0ELm8EJN2sf5Event18MouseButtonPressedENS7_19MouseButtonReleasedENS7_10MouseMovedENS7_13MouseMovedRawENS7_12MouseEnteredENS7_9MouseLeftENS7_21JoystickButtonPressedENS7_22JoystickButtonReleasedENS7_13JoystickMovedENS7_17JoystickConnectedENS7_20JoystickDisconnectedENS7_10TouchBeganENS7_10TouchMovedENS7_10TouchEndedENS7_13SensorChangedEEEELm10EEEODaOT_NS_16in_place_index_tIXT0_EEE, symObjAddr: 0x11FF4, symBinAddr: 0x100015290, symSize: 0x24 }
  - { offsetInCU: 0x45405, offset: 0x45405, size: 0x8, addend: 0x0, symName: __ZNSt3__116__variant_detail8__access7__union9__get_altB8ue170006IRKNS0_7__unionILNS0_6_TraitE0ELm9EJN2sf5Event19MouseButtonReleasedENS7_10MouseMovedENS7_13MouseMovedRawENS7_12MouseEnteredENS7_9MouseLeftENS7_21JoystickButtonPressedENS7_22JoystickButtonReleasedENS7_13JoystickMovedENS7_17JoystickConnectedENS7_20JoystickDisconnectedENS7_10TouchBeganENS7_10TouchMovedENS7_10TouchEndedENS7_13SensorChangedEEEELm9EEEODaOT_NS_16in_place_index_tIXT0_EEE, symObjAddr: 0x12018, symBinAddr: 0x1000152B4, symSize: 0x24 }
  - { offsetInCU: 0x45448, offset: 0x45448, size: 0x8, addend: 0x0, symName: __ZNSt3__116__variant_detail8__access7__union9__get_altB8ue170006IRKNS0_7__unionILNS0_6_TraitE0ELm10EJN2sf5Event10MouseMovedENS7_13MouseMovedRawENS7_12MouseEnteredENS7_9MouseLeftENS7_21JoystickButtonPressedENS7_22JoystickButtonReleasedENS7_13JoystickMovedENS7_17JoystickConnectedENS7_20JoystickDisconnectedENS7_10TouchBeganENS7_10TouchMovedENS7_10TouchEndedENS7_13SensorChangedEEEELm8EEEODaOT_NS_16in_place_index_tIXT0_EEE, symObjAddr: 0x1203C, symBinAddr: 0x1000152D8, symSize: 0x24 }
  - { offsetInCU: 0x4548B, offset: 0x4548B, size: 0x8, addend: 0x0, symName: __ZNSt3__116__variant_detail8__access7__union9__get_altB8ue170006IRKNS0_7__unionILNS0_6_TraitE0ELm11EJN2sf5Event13MouseMovedRawENS7_12MouseEnteredENS7_9MouseLeftENS7_21JoystickButtonPressedENS7_22JoystickButtonReleasedENS7_13JoystickMovedENS7_17JoystickConnectedENS7_20JoystickDisconnectedENS7_10TouchBeganENS7_10TouchMovedENS7_10TouchEndedENS7_13SensorChangedEEEELm7EEEODaOT_NS_16in_place_index_tIXT0_EEE, symObjAddr: 0x12060, symBinAddr: 0x1000152FC, symSize: 0x24 }
  - { offsetInCU: 0x454CE, offset: 0x454CE, size: 0x8, addend: 0x0, symName: __ZNSt3__116__variant_detail8__access7__union9__get_altB8ue170006IRKNS0_7__unionILNS0_6_TraitE0ELm12EJN2sf5Event12MouseEnteredENS7_9MouseLeftENS7_21JoystickButtonPressedENS7_22JoystickButtonReleasedENS7_13JoystickMovedENS7_17JoystickConnectedENS7_20JoystickDisconnectedENS7_10TouchBeganENS7_10TouchMovedENS7_10TouchEndedENS7_13SensorChangedEEEELm6EEEODaOT_NS_16in_place_index_tIXT0_EEE, symObjAddr: 0x12084, symBinAddr: 0x100015320, symSize: 0x24 }
  - { offsetInCU: 0x45511, offset: 0x45511, size: 0x8, addend: 0x0, symName: __ZNSt3__116__variant_detail8__access7__union9__get_altB8ue170006IRKNS0_7__unionILNS0_6_TraitE0ELm13EJN2sf5Event9MouseLeftENS7_21JoystickButtonPressedENS7_22JoystickButtonReleasedENS7_13JoystickMovedENS7_17JoystickConnectedENS7_20JoystickDisconnectedENS7_10TouchBeganENS7_10TouchMovedENS7_10TouchEndedENS7_13SensorChangedEEEELm5EEEODaOT_NS_16in_place_index_tIXT0_EEE, symObjAddr: 0x120A8, symBinAddr: 0x100015344, symSize: 0x24 }
  - { offsetInCU: 0x45554, offset: 0x45554, size: 0x8, addend: 0x0, symName: __ZNSt3__116__variant_detail8__access7__union9__get_altB8ue170006IRKNS0_7__unionILNS0_6_TraitE0ELm14EJN2sf5Event21JoystickButtonPressedENS7_22JoystickButtonReleasedENS7_13JoystickMovedENS7_17JoystickConnectedENS7_20JoystickDisconnectedENS7_10TouchBeganENS7_10TouchMovedENS7_10TouchEndedENS7_13SensorChangedEEEELm4EEEODaOT_NS_16in_place_index_tIXT0_EEE, symObjAddr: 0x120CC, symBinAddr: 0x100015368, symSize: 0x24 }
  - { offsetInCU: 0x45597, offset: 0x45597, size: 0x8, addend: 0x0, symName: __ZNSt3__116__variant_detail8__access7__union9__get_altB8ue170006IRKNS0_7__unionILNS0_6_TraitE0ELm15EJN2sf5Event22JoystickButtonReleasedENS7_13JoystickMovedENS7_17JoystickConnectedENS7_20JoystickDisconnectedENS7_10TouchBeganENS7_10TouchMovedENS7_10TouchEndedENS7_13SensorChangedEEEELm3EEEODaOT_NS_16in_place_index_tIXT0_EEE, symObjAddr: 0x120F0, symBinAddr: 0x10001538C, symSize: 0x24 }
  - { offsetInCU: 0x455DA, offset: 0x455DA, size: 0x8, addend: 0x0, symName: __ZNSt3__116__variant_detail8__access7__union9__get_altB8ue170006IRKNS0_7__unionILNS0_6_TraitE0ELm16EJN2sf5Event13JoystickMovedENS7_17JoystickConnectedENS7_20JoystickDisconnectedENS7_10TouchBeganENS7_10TouchMovedENS7_10TouchEndedENS7_13SensorChangedEEEELm2EEEODaOT_NS_16in_place_index_tIXT0_EEE, symObjAddr: 0x12114, symBinAddr: 0x1000153B0, symSize: 0x24 }
  - { offsetInCU: 0x4561D, offset: 0x4561D, size: 0x8, addend: 0x0, symName: __ZNSt3__116__variant_detail8__access7__union9__get_altB8ue170006IRKNS0_7__unionILNS0_6_TraitE0ELm17EJN2sf5Event17JoystickConnectedENS7_20JoystickDisconnectedENS7_10TouchBeganENS7_10TouchMovedENS7_10TouchEndedENS7_13SensorChangedEEEELm1EEEODaOT_NS_16in_place_index_tIXT0_EEE, symObjAddr: 0x12138, symBinAddr: 0x1000153D4, symSize: 0x24 }
  - { offsetInCU: 0x45660, offset: 0x45660, size: 0x8, addend: 0x0, symName: __ZNSt3__116__variant_detail8__access7__union9__get_altB8ue170006IRKNS0_7__unionILNS0_6_TraitE0ELm18EJN2sf5Event20JoystickDisconnectedENS7_10TouchBeganENS7_10TouchMovedENS7_10TouchEndedENS7_13SensorChangedEEEEEEODaOT_NS_16in_place_index_tILm0EEE, symObjAddr: 0x1215C, symBinAddr: 0x1000153F8, symSize: 0x14 }
  - { offsetInCU: 0x456A4, offset: 0x456A4, size: 0x8, addend: 0x0, symName: __ZNSt3__116__variant_detail8__access6__base9__get_altB8ue170006ILm19ERKNS0_6__baseILNS0_6_TraitE0EJN2sf5Event6ClosedENS7_7ResizedENS7_9FocusLostENS7_11FocusGainedENS7_11TextEnteredENS7_10KeyPressedENS7_11KeyReleasedENS7_18MouseWheelScrolledENS7_18MouseButtonPressedENS7_19MouseButtonReleasedENS7_10MouseMovedENS7_13MouseMovedRawENS7_12MouseEnteredENS7_9MouseLeftENS7_21JoystickButtonPressedENS7_22JoystickButtonReleasedENS7_13JoystickMovedENS7_17JoystickConnectedENS7_20JoystickDisconnectedENS7_10TouchBeganENS7_10TouchMovedENS7_10TouchEndedENS7_13SensorChangedEEEEEEODaOT0_, symObjAddr: 0x1219C, symBinAddr: 0x100015438, symSize: 0x24 }
  - { offsetInCU: 0x456DB, offset: 0x456DB, size: 0x8, addend: 0x0, symName: '__ZNKSt3__116__variant_detail12__visitation9__variant15__value_visitorIRN2sf4priv11OverloadSetIJZ6drivervE3$_0ZNS4_10WindowBase12handleEventsIJRKS7_EEEvDpOT_EUlRKNS5_23DelayOverloadResolutionEE_EEEEclB8ue170006IJRKNS0_5__altILm19ENS4_5Event10TouchBeganEEEEEEDcSE_', symObjAddr: 0x121C0, symBinAddr: 0x10001545C, symSize: 0x3C }
  - { offsetInCU: 0x45726, offset: 0x45726, size: 0x8, addend: 0x0, symName: '__ZNSt3__116__variant_detail12__visitation9__variant36__std_visit_exhaustive_visitor_checkB8ue170006IRN2sf4priv11OverloadSetIJZ6drivervE3$_0ZNS4_10WindowBase12handleEventsIJRKS7_EEEvDpOT_EUlRKNS5_23DelayOverloadResolutionEE_EEEJRKNS4_5Event10TouchBeganEEEEvv', symObjAddr: 0x121FC, symBinAddr: 0x100015498, symSize: 0x4 }
  - { offsetInCU: 0x4574F, offset: 0x4574F, size: 0x8, addend: 0x0, symName: __ZN2sf4priv23DelayOverloadResolutionC1INS_5Event10TouchBeganEEERKT_, symObjAddr: 0x12244, symBinAddr: 0x1000154E0, symSize: 0x34 }
  - { offsetInCU: 0x4578D, offset: 0x4578D, size: 0x8, addend: 0x0, symName: __ZN2sf4priv23DelayOverloadResolutionC2INS_5Event10TouchBeganEEERKT_, symObjAddr: 0x12278, symBinAddr: 0x100015514, symSize: 0x18 }
  - { offsetInCU: 0x457CB, offset: 0x457CB, size: 0x8, addend: 0x0, symName: __ZNSt3__116__variant_detail8__access7__union9__get_altB8ue170006IRKNS0_7__unionILNS0_6_TraitE0ELm0EJN2sf5Event6ClosedENS7_7ResizedENS7_9FocusLostENS7_11FocusGainedENS7_11TextEnteredENS7_10KeyPressedENS7_11KeyReleasedENS7_18MouseWheelScrolledENS7_18MouseButtonPressedENS7_19MouseButtonReleasedENS7_10MouseMovedENS7_13MouseMovedRawENS7_12MouseEnteredENS7_9MouseLeftENS7_21JoystickButtonPressedENS7_22JoystickButtonReleasedENS7_13JoystickMovedENS7_17JoystickConnectedENS7_20JoystickDisconnectedENS7_10TouchBeganENS7_10TouchMovedENS7_10TouchEndedENS7_13SensorChangedEEEELm19EEEODaOT_NS_16in_place_index_tIXT0_EEE, symObjAddr: 0x12290, symBinAddr: 0x10001552C, symSize: 0x24 }
  - { offsetInCU: 0x4580E, offset: 0x4580E, size: 0x8, addend: 0x0, symName: __ZNSt3__116__variant_detail8__access7__union9__get_altB8ue170006IRKNS0_7__unionILNS0_6_TraitE0ELm1EJN2sf5Event7ResizedENS7_9FocusLostENS7_11FocusGainedENS7_11TextEnteredENS7_10KeyPressedENS7_11KeyReleasedENS7_18MouseWheelScrolledENS7_18MouseButtonPressedENS7_19MouseButtonReleasedENS7_10MouseMovedENS7_13MouseMovedRawENS7_12MouseEnteredENS7_9MouseLeftENS7_21JoystickButtonPressedENS7_22JoystickButtonReleasedENS7_13JoystickMovedENS7_17JoystickConnectedENS7_20JoystickDisconnectedENS7_10TouchBeganENS7_10TouchMovedENS7_10TouchEndedENS7_13SensorChangedEEEELm18EEEODaOT_NS_16in_place_index_tIXT0_EEE, symObjAddr: 0x122B4, symBinAddr: 0x100015550, symSize: 0x24 }
  - { offsetInCU: 0x45851, offset: 0x45851, size: 0x8, addend: 0x0, symName: __ZNSt3__116__variant_detail8__access7__union9__get_altB8ue170006IRKNS0_7__unionILNS0_6_TraitE0ELm2EJN2sf5Event9FocusLostENS7_11FocusGainedENS7_11TextEnteredENS7_10KeyPressedENS7_11KeyReleasedENS7_18MouseWheelScrolledENS7_18MouseButtonPressedENS7_19MouseButtonReleasedENS7_10MouseMovedENS7_13MouseMovedRawENS7_12MouseEnteredENS7_9MouseLeftENS7_21JoystickButtonPressedENS7_22JoystickButtonReleasedENS7_13JoystickMovedENS7_17JoystickConnectedENS7_20JoystickDisconnectedENS7_10TouchBeganENS7_10TouchMovedENS7_10TouchEndedENS7_13SensorChangedEEEELm17EEEODaOT_NS_16in_place_index_tIXT0_EEE, symObjAddr: 0x122D8, symBinAddr: 0x100015574, symSize: 0x24 }
  - { offsetInCU: 0x45894, offset: 0x45894, size: 0x8, addend: 0x0, symName: __ZNSt3__116__variant_detail8__access7__union9__get_altB8ue170006IRKNS0_7__unionILNS0_6_TraitE0ELm3EJN2sf5Event11FocusGainedENS7_11TextEnteredENS7_10KeyPressedENS7_11KeyReleasedENS7_18MouseWheelScrolledENS7_18MouseButtonPressedENS7_19MouseButtonReleasedENS7_10MouseMovedENS7_13MouseMovedRawENS7_12MouseEnteredENS7_9MouseLeftENS7_21JoystickButtonPressedENS7_22JoystickButtonReleasedENS7_13JoystickMovedENS7_17JoystickConnectedENS7_20JoystickDisconnectedENS7_10TouchBeganENS7_10TouchMovedENS7_10TouchEndedENS7_13SensorChangedEEEELm16EEEODaOT_NS_16in_place_index_tIXT0_EEE, symObjAddr: 0x122FC, symBinAddr: 0x100015598, symSize: 0x24 }
  - { offsetInCU: 0x458D7, offset: 0x458D7, size: 0x8, addend: 0x0, symName: __ZNSt3__116__variant_detail8__access7__union9__get_altB8ue170006IRKNS0_7__unionILNS0_6_TraitE0ELm4EJN2sf5Event11TextEnteredENS7_10KeyPressedENS7_11KeyReleasedENS7_18MouseWheelScrolledENS7_18MouseButtonPressedENS7_19MouseButtonReleasedENS7_10MouseMovedENS7_13MouseMovedRawENS7_12MouseEnteredENS7_9MouseLeftENS7_21JoystickButtonPressedENS7_22JoystickButtonReleasedENS7_13JoystickMovedENS7_17JoystickConnectedENS7_20JoystickDisconnectedENS7_10TouchBeganENS7_10TouchMovedENS7_10TouchEndedENS7_13SensorChangedEEEELm15EEEODaOT_NS_16in_place_index_tIXT0_EEE, symObjAddr: 0x12320, symBinAddr: 0x1000155BC, symSize: 0x24 }
  - { offsetInCU: 0x4591A, offset: 0x4591A, size: 0x8, addend: 0x0, symName: __ZNSt3__116__variant_detail8__access7__union9__get_altB8ue170006IRKNS0_7__unionILNS0_6_TraitE0ELm5EJN2sf5Event10KeyPressedENS7_11KeyReleasedENS7_18MouseWheelScrolledENS7_18MouseButtonPressedENS7_19MouseButtonReleasedENS7_10MouseMovedENS7_13MouseMovedRawENS7_12MouseEnteredENS7_9MouseLeftENS7_21JoystickButtonPressedENS7_22JoystickButtonReleasedENS7_13JoystickMovedENS7_17JoystickConnectedENS7_20JoystickDisconnectedENS7_10TouchBeganENS7_10TouchMovedENS7_10TouchEndedENS7_13SensorChangedEEEELm14EEEODaOT_NS_16in_place_index_tIXT0_EEE, symObjAddr: 0x12344, symBinAddr: 0x1000155E0, symSize: 0x24 }
  - { offsetInCU: 0x4595D, offset: 0x4595D, size: 0x8, addend: 0x0, symName: __ZNSt3__116__variant_detail8__access7__union9__get_altB8ue170006IRKNS0_7__unionILNS0_6_TraitE0ELm6EJN2sf5Event11KeyReleasedENS7_18MouseWheelScrolledENS7_18MouseButtonPressedENS7_19MouseButtonReleasedENS7_10MouseMovedENS7_13MouseMovedRawENS7_12MouseEnteredENS7_9MouseLeftENS7_21JoystickButtonPressedENS7_22JoystickButtonReleasedENS7_13JoystickMovedENS7_17JoystickConnectedENS7_20JoystickDisconnectedENS7_10TouchBeganENS7_10TouchMovedENS7_10TouchEndedENS7_13SensorChangedEEEELm13EEEODaOT_NS_16in_place_index_tIXT0_EEE, symObjAddr: 0x12368, symBinAddr: 0x100015604, symSize: 0x24 }
  - { offsetInCU: 0x459A0, offset: 0x459A0, size: 0x8, addend: 0x0, symName: __ZNSt3__116__variant_detail8__access7__union9__get_altB8ue170006IRKNS0_7__unionILNS0_6_TraitE0ELm7EJN2sf5Event18MouseWheelScrolledENS7_18MouseButtonPressedENS7_19MouseButtonReleasedENS7_10MouseMovedENS7_13MouseMovedRawENS7_12MouseEnteredENS7_9MouseLeftENS7_21JoystickButtonPressedENS7_22JoystickButtonReleasedENS7_13JoystickMovedENS7_17JoystickConnectedENS7_20JoystickDisconnectedENS7_10TouchBeganENS7_10TouchMovedENS7_10TouchEndedENS7_13SensorChangedEEEELm12EEEODaOT_NS_16in_place_index_tIXT0_EEE, symObjAddr: 0x1238C, symBinAddr: 0x100015628, symSize: 0x24 }
  - { offsetInCU: 0x459E3, offset: 0x459E3, size: 0x8, addend: 0x0, symName: __ZNSt3__116__variant_detail8__access7__union9__get_altB8ue170006IRKNS0_7__unionILNS0_6_TraitE0ELm8EJN2sf5Event18MouseButtonPressedENS7_19MouseButtonReleasedENS7_10MouseMovedENS7_13MouseMovedRawENS7_12MouseEnteredENS7_9MouseLeftENS7_21JoystickButtonPressedENS7_22JoystickButtonReleasedENS7_13JoystickMovedENS7_17JoystickConnectedENS7_20JoystickDisconnectedENS7_10TouchBeganENS7_10TouchMovedENS7_10TouchEndedENS7_13SensorChangedEEEELm11EEEODaOT_NS_16in_place_index_tIXT0_EEE, symObjAddr: 0x123B0, symBinAddr: 0x10001564C, symSize: 0x24 }
  - { offsetInCU: 0x45A26, offset: 0x45A26, size: 0x8, addend: 0x0, symName: __ZNSt3__116__variant_detail8__access7__union9__get_altB8ue170006IRKNS0_7__unionILNS0_6_TraitE0ELm9EJN2sf5Event19MouseButtonReleasedENS7_10MouseMovedENS7_13MouseMovedRawENS7_12MouseEnteredENS7_9MouseLeftENS7_21JoystickButtonPressedENS7_22JoystickButtonReleasedENS7_13JoystickMovedENS7_17JoystickConnectedENS7_20JoystickDisconnectedENS7_10TouchBeganENS7_10TouchMovedENS7_10TouchEndedENS7_13SensorChangedEEEELm10EEEODaOT_NS_16in_place_index_tIXT0_EEE, symObjAddr: 0x123D4, symBinAddr: 0x100015670, symSize: 0x24 }
  - { offsetInCU: 0x45A69, offset: 0x45A69, size: 0x8, addend: 0x0, symName: __ZNSt3__116__variant_detail8__access7__union9__get_altB8ue170006IRKNS0_7__unionILNS0_6_TraitE0ELm10EJN2sf5Event10MouseMovedENS7_13MouseMovedRawENS7_12MouseEnteredENS7_9MouseLeftENS7_21JoystickButtonPressedENS7_22JoystickButtonReleasedENS7_13JoystickMovedENS7_17JoystickConnectedENS7_20JoystickDisconnectedENS7_10TouchBeganENS7_10TouchMovedENS7_10TouchEndedENS7_13SensorChangedEEEELm9EEEODaOT_NS_16in_place_index_tIXT0_EEE, symObjAddr: 0x123F8, symBinAddr: 0x100015694, symSize: 0x24 }
  - { offsetInCU: 0x45AAC, offset: 0x45AAC, size: 0x8, addend: 0x0, symName: __ZNSt3__116__variant_detail8__access7__union9__get_altB8ue170006IRKNS0_7__unionILNS0_6_TraitE0ELm11EJN2sf5Event13MouseMovedRawENS7_12MouseEnteredENS7_9MouseLeftENS7_21JoystickButtonPressedENS7_22JoystickButtonReleasedENS7_13JoystickMovedENS7_17JoystickConnectedENS7_20JoystickDisconnectedENS7_10TouchBeganENS7_10TouchMovedENS7_10TouchEndedENS7_13SensorChangedEEEELm8EEEODaOT_NS_16in_place_index_tIXT0_EEE, symObjAddr: 0x1241C, symBinAddr: 0x1000156B8, symSize: 0x24 }
  - { offsetInCU: 0x45AEF, offset: 0x45AEF, size: 0x8, addend: 0x0, symName: __ZNSt3__116__variant_detail8__access7__union9__get_altB8ue170006IRKNS0_7__unionILNS0_6_TraitE0ELm12EJN2sf5Event12MouseEnteredENS7_9MouseLeftENS7_21JoystickButtonPressedENS7_22JoystickButtonReleasedENS7_13JoystickMovedENS7_17JoystickConnectedENS7_20JoystickDisconnectedENS7_10TouchBeganENS7_10TouchMovedENS7_10TouchEndedENS7_13SensorChangedEEEELm7EEEODaOT_NS_16in_place_index_tIXT0_EEE, symObjAddr: 0x12440, symBinAddr: 0x1000156DC, symSize: 0x24 }
  - { offsetInCU: 0x45B32, offset: 0x45B32, size: 0x8, addend: 0x0, symName: __ZNSt3__116__variant_detail8__access7__union9__get_altB8ue170006IRKNS0_7__unionILNS0_6_TraitE0ELm13EJN2sf5Event9MouseLeftENS7_21JoystickButtonPressedENS7_22JoystickButtonReleasedENS7_13JoystickMovedENS7_17JoystickConnectedENS7_20JoystickDisconnectedENS7_10TouchBeganENS7_10TouchMovedENS7_10TouchEndedENS7_13SensorChangedEEEELm6EEEODaOT_NS_16in_place_index_tIXT0_EEE, symObjAddr: 0x12464, symBinAddr: 0x100015700, symSize: 0x24 }
  - { offsetInCU: 0x45B75, offset: 0x45B75, size: 0x8, addend: 0x0, symName: __ZNSt3__116__variant_detail8__access7__union9__get_altB8ue170006IRKNS0_7__unionILNS0_6_TraitE0ELm14EJN2sf5Event21JoystickButtonPressedENS7_22JoystickButtonReleasedENS7_13JoystickMovedENS7_17JoystickConnectedENS7_20JoystickDisconnectedENS7_10TouchBeganENS7_10TouchMovedENS7_10TouchEndedENS7_13SensorChangedEEEELm5EEEODaOT_NS_16in_place_index_tIXT0_EEE, symObjAddr: 0x12488, symBinAddr: 0x100015724, symSize: 0x24 }
  - { offsetInCU: 0x45BB8, offset: 0x45BB8, size: 0x8, addend: 0x0, symName: __ZNSt3__116__variant_detail8__access7__union9__get_altB8ue170006IRKNS0_7__unionILNS0_6_TraitE0ELm15EJN2sf5Event22JoystickButtonReleasedENS7_13JoystickMovedENS7_17JoystickConnectedENS7_20JoystickDisconnectedENS7_10TouchBeganENS7_10TouchMovedENS7_10TouchEndedENS7_13SensorChangedEEEELm4EEEODaOT_NS_16in_place_index_tIXT0_EEE, symObjAddr: 0x124AC, symBinAddr: 0x100015748, symSize: 0x24 }
  - { offsetInCU: 0x45BFB, offset: 0x45BFB, size: 0x8, addend: 0x0, symName: __ZNSt3__116__variant_detail8__access7__union9__get_altB8ue170006IRKNS0_7__unionILNS0_6_TraitE0ELm16EJN2sf5Event13JoystickMovedENS7_17JoystickConnectedENS7_20JoystickDisconnectedENS7_10TouchBeganENS7_10TouchMovedENS7_10TouchEndedENS7_13SensorChangedEEEELm3EEEODaOT_NS_16in_place_index_tIXT0_EEE, symObjAddr: 0x124D0, symBinAddr: 0x10001576C, symSize: 0x24 }
  - { offsetInCU: 0x45C3E, offset: 0x45C3E, size: 0x8, addend: 0x0, symName: __ZNSt3__116__variant_detail8__access7__union9__get_altB8ue170006IRKNS0_7__unionILNS0_6_TraitE0ELm17EJN2sf5Event17JoystickConnectedENS7_20JoystickDisconnectedENS7_10TouchBeganENS7_10TouchMovedENS7_10TouchEndedENS7_13SensorChangedEEEELm2EEEODaOT_NS_16in_place_index_tIXT0_EEE, symObjAddr: 0x124F4, symBinAddr: 0x100015790, symSize: 0x24 }
  - { offsetInCU: 0x45C81, offset: 0x45C81, size: 0x8, addend: 0x0, symName: __ZNSt3__116__variant_detail8__access7__union9__get_altB8ue170006IRKNS0_7__unionILNS0_6_TraitE0ELm18EJN2sf5Event20JoystickDisconnectedENS7_10TouchBeganENS7_10TouchMovedENS7_10TouchEndedENS7_13SensorChangedEEEELm1EEEODaOT_NS_16in_place_index_tIXT0_EEE, symObjAddr: 0x12518, symBinAddr: 0x1000157B4, symSize: 0x24 }
  - { offsetInCU: 0x45CC4, offset: 0x45CC4, size: 0x8, addend: 0x0, symName: __ZNSt3__116__variant_detail8__access7__union9__get_altB8ue170006IRKNS0_7__unionILNS0_6_TraitE0ELm19EJN2sf5Event10TouchBeganENS7_10TouchMovedENS7_10TouchEndedENS7_13SensorChangedEEEEEEODaOT_NS_16in_place_index_tILm0EEE, symObjAddr: 0x1253C, symBinAddr: 0x1000157D8, symSize: 0x14 }
  - { offsetInCU: 0x45D08, offset: 0x45D08, size: 0x8, addend: 0x0, symName: __ZNSt3__116__variant_detail8__access6__base9__get_altB8ue170006ILm20ERKNS0_6__baseILNS0_6_TraitE0EJN2sf5Event6ClosedENS7_7ResizedENS7_9FocusLostENS7_11FocusGainedENS7_11TextEnteredENS7_10KeyPressedENS7_11KeyReleasedENS7_18MouseWheelScrolledENS7_18MouseButtonPressedENS7_19MouseButtonReleasedENS7_10MouseMovedENS7_13MouseMovedRawENS7_12MouseEnteredENS7_9MouseLeftENS7_21JoystickButtonPressedENS7_22JoystickButtonReleasedENS7_13JoystickMovedENS7_17JoystickConnectedENS7_20JoystickDisconnectedENS7_10TouchBeganENS7_10TouchMovedENS7_10TouchEndedENS7_13SensorChangedEEEEEEODaOT0_, symObjAddr: 0x1257C, symBinAddr: 0x100015818, symSize: 0x24 }
  - { offsetInCU: 0x45D3F, offset: 0x45D3F, size: 0x8, addend: 0x0, symName: '__ZNKSt3__116__variant_detail12__visitation9__variant15__value_visitorIRN2sf4priv11OverloadSetIJZ6drivervE3$_0ZNS4_10WindowBase12handleEventsIJRKS7_EEEvDpOT_EUlRKNS5_23DelayOverloadResolutionEE_EEEEclB8ue170006IJRKNS0_5__altILm20ENS4_5Event10TouchMovedEEEEEEDcSE_', symObjAddr: 0x125A0, symBinAddr: 0x10001583C, symSize: 0x3C }
  - { offsetInCU: 0x45D8A, offset: 0x45D8A, size: 0x8, addend: 0x0, symName: '__ZNSt3__116__variant_detail12__visitation9__variant36__std_visit_exhaustive_visitor_checkB8ue170006IRN2sf4priv11OverloadSetIJZ6drivervE3$_0ZNS4_10WindowBase12handleEventsIJRKS7_EEEvDpOT_EUlRKNS5_23DelayOverloadResolutionEE_EEEJRKNS4_5Event10TouchMovedEEEEvv', symObjAddr: 0x125DC, symBinAddr: 0x100015878, symSize: 0x4 }
  - { offsetInCU: 0x45DB3, offset: 0x45DB3, size: 0x8, addend: 0x0, symName: __ZN2sf4priv23DelayOverloadResolutionC1INS_5Event10TouchMovedEEERKT_, symObjAddr: 0x12624, symBinAddr: 0x1000158C0, symSize: 0x34 }
  - { offsetInCU: 0x45DF1, offset: 0x45DF1, size: 0x8, addend: 0x0, symName: __ZN2sf4priv23DelayOverloadResolutionC2INS_5Event10TouchMovedEEERKT_, symObjAddr: 0x12658, symBinAddr: 0x1000158F4, symSize: 0x18 }
  - { offsetInCU: 0x45E2F, offset: 0x45E2F, size: 0x8, addend: 0x0, symName: __ZNSt3__116__variant_detail8__access7__union9__get_altB8ue170006IRKNS0_7__unionILNS0_6_TraitE0ELm0EJN2sf5Event6ClosedENS7_7ResizedENS7_9FocusLostENS7_11FocusGainedENS7_11TextEnteredENS7_10KeyPressedENS7_11KeyReleasedENS7_18MouseWheelScrolledENS7_18MouseButtonPressedENS7_19MouseButtonReleasedENS7_10MouseMovedENS7_13MouseMovedRawENS7_12MouseEnteredENS7_9MouseLeftENS7_21JoystickButtonPressedENS7_22JoystickButtonReleasedENS7_13JoystickMovedENS7_17JoystickConnectedENS7_20JoystickDisconnectedENS7_10TouchBeganENS7_10TouchMovedENS7_10TouchEndedENS7_13SensorChangedEEEELm20EEEODaOT_NS_16in_place_index_tIXT0_EEE, symObjAddr: 0x12670, symBinAddr: 0x10001590C, symSize: 0x24 }
  - { offsetInCU: 0x45E72, offset: 0x45E72, size: 0x8, addend: 0x0, symName: __ZNSt3__116__variant_detail8__access7__union9__get_altB8ue170006IRKNS0_7__unionILNS0_6_TraitE0ELm1EJN2sf5Event7ResizedENS7_9FocusLostENS7_11FocusGainedENS7_11TextEnteredENS7_10KeyPressedENS7_11KeyReleasedENS7_18MouseWheelScrolledENS7_18MouseButtonPressedENS7_19MouseButtonReleasedENS7_10MouseMovedENS7_13MouseMovedRawENS7_12MouseEnteredENS7_9MouseLeftENS7_21JoystickButtonPressedENS7_22JoystickButtonReleasedENS7_13JoystickMovedENS7_17JoystickConnectedENS7_20JoystickDisconnectedENS7_10TouchBeganENS7_10TouchMovedENS7_10TouchEndedENS7_13SensorChangedEEEELm19EEEODaOT_NS_16in_place_index_tIXT0_EEE, symObjAddr: 0x12694, symBinAddr: 0x100015930, symSize: 0x24 }
  - { offsetInCU: 0x45EB5, offset: 0x45EB5, size: 0x8, addend: 0x0, symName: __ZNSt3__116__variant_detail8__access7__union9__get_altB8ue170006IRKNS0_7__unionILNS0_6_TraitE0ELm2EJN2sf5Event9FocusLostENS7_11FocusGainedENS7_11TextEnteredENS7_10KeyPressedENS7_11KeyReleasedENS7_18MouseWheelScrolledENS7_18MouseButtonPressedENS7_19MouseButtonReleasedENS7_10MouseMovedENS7_13MouseMovedRawENS7_12MouseEnteredENS7_9MouseLeftENS7_21JoystickButtonPressedENS7_22JoystickButtonReleasedENS7_13JoystickMovedENS7_17JoystickConnectedENS7_20JoystickDisconnectedENS7_10TouchBeganENS7_10TouchMovedENS7_10TouchEndedENS7_13SensorChangedEEEELm18EEEODaOT_NS_16in_place_index_tIXT0_EEE, symObjAddr: 0x126B8, symBinAddr: 0x100015954, symSize: 0x24 }
  - { offsetInCU: 0x45EF8, offset: 0x45EF8, size: 0x8, addend: 0x0, symName: __ZNSt3__116__variant_detail8__access7__union9__get_altB8ue170006IRKNS0_7__unionILNS0_6_TraitE0ELm3EJN2sf5Event11FocusGainedENS7_11TextEnteredENS7_10KeyPressedENS7_11KeyReleasedENS7_18MouseWheelScrolledENS7_18MouseButtonPressedENS7_19MouseButtonReleasedENS7_10MouseMovedENS7_13MouseMovedRawENS7_12MouseEnteredENS7_9MouseLeftENS7_21JoystickButtonPressedENS7_22JoystickButtonReleasedENS7_13JoystickMovedENS7_17JoystickConnectedENS7_20JoystickDisconnectedENS7_10TouchBeganENS7_10TouchMovedENS7_10TouchEndedENS7_13SensorChangedEEEELm17EEEODaOT_NS_16in_place_index_tIXT0_EEE, symObjAddr: 0x126DC, symBinAddr: 0x100015978, symSize: 0x24 }
  - { offsetInCU: 0x45F3B, offset: 0x45F3B, size: 0x8, addend: 0x0, symName: __ZNSt3__116__variant_detail8__access7__union9__get_altB8ue170006IRKNS0_7__unionILNS0_6_TraitE0ELm4EJN2sf5Event11TextEnteredENS7_10KeyPressedENS7_11KeyReleasedENS7_18MouseWheelScrolledENS7_18MouseButtonPressedENS7_19MouseButtonReleasedENS7_10MouseMovedENS7_13MouseMovedRawENS7_12MouseEnteredENS7_9MouseLeftENS7_21JoystickButtonPressedENS7_22JoystickButtonReleasedENS7_13JoystickMovedENS7_17JoystickConnectedENS7_20JoystickDisconnectedENS7_10TouchBeganENS7_10TouchMovedENS7_10TouchEndedENS7_13SensorChangedEEEELm16EEEODaOT_NS_16in_place_index_tIXT0_EEE, symObjAddr: 0x12700, symBinAddr: 0x10001599C, symSize: 0x24 }
  - { offsetInCU: 0x45F7E, offset: 0x45F7E, size: 0x8, addend: 0x0, symName: __ZNSt3__116__variant_detail8__access7__union9__get_altB8ue170006IRKNS0_7__unionILNS0_6_TraitE0ELm5EJN2sf5Event10KeyPressedENS7_11KeyReleasedENS7_18MouseWheelScrolledENS7_18MouseButtonPressedENS7_19MouseButtonReleasedENS7_10MouseMovedENS7_13MouseMovedRawENS7_12MouseEnteredENS7_9MouseLeftENS7_21JoystickButtonPressedENS7_22JoystickButtonReleasedENS7_13JoystickMovedENS7_17JoystickConnectedENS7_20JoystickDisconnectedENS7_10TouchBeganENS7_10TouchMovedENS7_10TouchEndedENS7_13SensorChangedEEEELm15EEEODaOT_NS_16in_place_index_tIXT0_EEE, symObjAddr: 0x12724, symBinAddr: 0x1000159C0, symSize: 0x24 }
  - { offsetInCU: 0x45FC1, offset: 0x45FC1, size: 0x8, addend: 0x0, symName: __ZNSt3__116__variant_detail8__access7__union9__get_altB8ue170006IRKNS0_7__unionILNS0_6_TraitE0ELm6EJN2sf5Event11KeyReleasedENS7_18MouseWheelScrolledENS7_18MouseButtonPressedENS7_19MouseButtonReleasedENS7_10MouseMovedENS7_13MouseMovedRawENS7_12MouseEnteredENS7_9MouseLeftENS7_21JoystickButtonPressedENS7_22JoystickButtonReleasedENS7_13JoystickMovedENS7_17JoystickConnectedENS7_20JoystickDisconnectedENS7_10TouchBeganENS7_10TouchMovedENS7_10TouchEndedENS7_13SensorChangedEEEELm14EEEODaOT_NS_16in_place_index_tIXT0_EEE, symObjAddr: 0x12748, symBinAddr: 0x1000159E4, symSize: 0x24 }
  - { offsetInCU: 0x46004, offset: 0x46004, size: 0x8, addend: 0x0, symName: __ZNSt3__116__variant_detail8__access7__union9__get_altB8ue170006IRKNS0_7__unionILNS0_6_TraitE0ELm7EJN2sf5Event18MouseWheelScrolledENS7_18MouseButtonPressedENS7_19MouseButtonReleasedENS7_10MouseMovedENS7_13MouseMovedRawENS7_12MouseEnteredENS7_9MouseLeftENS7_21JoystickButtonPressedENS7_22JoystickButtonReleasedENS7_13JoystickMovedENS7_17JoystickConnectedENS7_20JoystickDisconnectedENS7_10TouchBeganENS7_10TouchMovedENS7_10TouchEndedENS7_13SensorChangedEEEELm13EEEODaOT_NS_16in_place_index_tIXT0_EEE, symObjAddr: 0x1276C, symBinAddr: 0x100015A08, symSize: 0x24 }
  - { offsetInCU: 0x46047, offset: 0x46047, size: 0x8, addend: 0x0, symName: __ZNSt3__116__variant_detail8__access7__union9__get_altB8ue170006IRKNS0_7__unionILNS0_6_TraitE0ELm8EJN2sf5Event18MouseButtonPressedENS7_19MouseButtonReleasedENS7_10MouseMovedENS7_13MouseMovedRawENS7_12MouseEnteredENS7_9MouseLeftENS7_21JoystickButtonPressedENS7_22JoystickButtonReleasedENS7_13JoystickMovedENS7_17JoystickConnectedENS7_20JoystickDisconnectedENS7_10TouchBeganENS7_10TouchMovedENS7_10TouchEndedENS7_13SensorChangedEEEELm12EEEODaOT_NS_16in_place_index_tIXT0_EEE, symObjAddr: 0x12790, symBinAddr: 0x100015A2C, symSize: 0x24 }
  - { offsetInCU: 0x4608A, offset: 0x4608A, size: 0x8, addend: 0x0, symName: __ZNSt3__116__variant_detail8__access7__union9__get_altB8ue170006IRKNS0_7__unionILNS0_6_TraitE0ELm9EJN2sf5Event19MouseButtonReleasedENS7_10MouseMovedENS7_13MouseMovedRawENS7_12MouseEnteredENS7_9MouseLeftENS7_21JoystickButtonPressedENS7_22JoystickButtonReleasedENS7_13JoystickMovedENS7_17JoystickConnectedENS7_20JoystickDisconnectedENS7_10TouchBeganENS7_10TouchMovedENS7_10TouchEndedENS7_13SensorChangedEEEELm11EEEODaOT_NS_16in_place_index_tIXT0_EEE, symObjAddr: 0x127B4, symBinAddr: 0x100015A50, symSize: 0x24 }
  - { offsetInCU: 0x460CD, offset: 0x460CD, size: 0x8, addend: 0x0, symName: __ZNSt3__116__variant_detail8__access7__union9__get_altB8ue170006IRKNS0_7__unionILNS0_6_TraitE0ELm10EJN2sf5Event10MouseMovedENS7_13MouseMovedRawENS7_12MouseEnteredENS7_9MouseLeftENS7_21JoystickButtonPressedENS7_22JoystickButtonReleasedENS7_13JoystickMovedENS7_17JoystickConnectedENS7_20JoystickDisconnectedENS7_10TouchBeganENS7_10TouchMovedENS7_10TouchEndedENS7_13SensorChangedEEEELm10EEEODaOT_NS_16in_place_index_tIXT0_EEE, symObjAddr: 0x127D8, symBinAddr: 0x100015A74, symSize: 0x24 }
  - { offsetInCU: 0x46110, offset: 0x46110, size: 0x8, addend: 0x0, symName: __ZNSt3__116__variant_detail8__access7__union9__get_altB8ue170006IRKNS0_7__unionILNS0_6_TraitE0ELm11EJN2sf5Event13MouseMovedRawENS7_12MouseEnteredENS7_9MouseLeftENS7_21JoystickButtonPressedENS7_22JoystickButtonReleasedENS7_13JoystickMovedENS7_17JoystickConnectedENS7_20JoystickDisconnectedENS7_10TouchBeganENS7_10TouchMovedENS7_10TouchEndedENS7_13SensorChangedEEEELm9EEEODaOT_NS_16in_place_index_tIXT0_EEE, symObjAddr: 0x127FC, symBinAddr: 0x100015A98, symSize: 0x24 }
  - { offsetInCU: 0x46153, offset: 0x46153, size: 0x8, addend: 0x0, symName: __ZNSt3__116__variant_detail8__access7__union9__get_altB8ue170006IRKNS0_7__unionILNS0_6_TraitE0ELm12EJN2sf5Event12MouseEnteredENS7_9MouseLeftENS7_21JoystickButtonPressedENS7_22JoystickButtonReleasedENS7_13JoystickMovedENS7_17JoystickConnectedENS7_20JoystickDisconnectedENS7_10TouchBeganENS7_10TouchMovedENS7_10TouchEndedENS7_13SensorChangedEEEELm8EEEODaOT_NS_16in_place_index_tIXT0_EEE, symObjAddr: 0x12820, symBinAddr: 0x100015ABC, symSize: 0x24 }
  - { offsetInCU: 0x46196, offset: 0x46196, size: 0x8, addend: 0x0, symName: __ZNSt3__116__variant_detail8__access7__union9__get_altB8ue170006IRKNS0_7__unionILNS0_6_TraitE0ELm13EJN2sf5Event9MouseLeftENS7_21JoystickButtonPressedENS7_22JoystickButtonReleasedENS7_13JoystickMovedENS7_17JoystickConnectedENS7_20JoystickDisconnectedENS7_10TouchBeganENS7_10TouchMovedENS7_10TouchEndedENS7_13SensorChangedEEEELm7EEEODaOT_NS_16in_place_index_tIXT0_EEE, symObjAddr: 0x12844, symBinAddr: 0x100015AE0, symSize: 0x24 }
  - { offsetInCU: 0x461D9, offset: 0x461D9, size: 0x8, addend: 0x0, symName: __ZNSt3__116__variant_detail8__access7__union9__get_altB8ue170006IRKNS0_7__unionILNS0_6_TraitE0ELm14EJN2sf5Event21JoystickButtonPressedENS7_22JoystickButtonReleasedENS7_13JoystickMovedENS7_17JoystickConnectedENS7_20JoystickDisconnectedENS7_10TouchBeganENS7_10TouchMovedENS7_10TouchEndedENS7_13SensorChangedEEEELm6EEEODaOT_NS_16in_place_index_tIXT0_EEE, symObjAddr: 0x12868, symBinAddr: 0x100015B04, symSize: 0x24 }
  - { offsetInCU: 0x4621C, offset: 0x4621C, size: 0x8, addend: 0x0, symName: __ZNSt3__116__variant_detail8__access7__union9__get_altB8ue170006IRKNS0_7__unionILNS0_6_TraitE0ELm15EJN2sf5Event22JoystickButtonReleasedENS7_13JoystickMovedENS7_17JoystickConnectedENS7_20JoystickDisconnectedENS7_10TouchBeganENS7_10TouchMovedENS7_10TouchEndedENS7_13SensorChangedEEEELm5EEEODaOT_NS_16in_place_index_tIXT0_EEE, symObjAddr: 0x1288C, symBinAddr: 0x100015B28, symSize: 0x24 }
  - { offsetInCU: 0x4625F, offset: 0x4625F, size: 0x8, addend: 0x0, symName: __ZNSt3__116__variant_detail8__access7__union9__get_altB8ue170006IRKNS0_7__unionILNS0_6_TraitE0ELm16EJN2sf5Event13JoystickMovedENS7_17JoystickConnectedENS7_20JoystickDisconnectedENS7_10TouchBeganENS7_10TouchMovedENS7_10TouchEndedENS7_13SensorChangedEEEELm4EEEODaOT_NS_16in_place_index_tIXT0_EEE, symObjAddr: 0x128B0, symBinAddr: 0x100015B4C, symSize: 0x24 }
  - { offsetInCU: 0x462A2, offset: 0x462A2, size: 0x8, addend: 0x0, symName: __ZNSt3__116__variant_detail8__access7__union9__get_altB8ue170006IRKNS0_7__unionILNS0_6_TraitE0ELm17EJN2sf5Event17JoystickConnectedENS7_20JoystickDisconnectedENS7_10TouchBeganENS7_10TouchMovedENS7_10TouchEndedENS7_13SensorChangedEEEELm3EEEODaOT_NS_16in_place_index_tIXT0_EEE, symObjAddr: 0x128D4, symBinAddr: 0x100015B70, symSize: 0x24 }
  - { offsetInCU: 0x462E5, offset: 0x462E5, size: 0x8, addend: 0x0, symName: __ZNSt3__116__variant_detail8__access7__union9__get_altB8ue170006IRKNS0_7__unionILNS0_6_TraitE0ELm18EJN2sf5Event20JoystickDisconnectedENS7_10TouchBeganENS7_10TouchMovedENS7_10TouchEndedENS7_13SensorChangedEEEELm2EEEODaOT_NS_16in_place_index_tIXT0_EEE, symObjAddr: 0x128F8, symBinAddr: 0x100015B94, symSize: 0x24 }
  - { offsetInCU: 0x46328, offset: 0x46328, size: 0x8, addend: 0x0, symName: __ZNSt3__116__variant_detail8__access7__union9__get_altB8ue170006IRKNS0_7__unionILNS0_6_TraitE0ELm19EJN2sf5Event10TouchBeganENS7_10TouchMovedENS7_10TouchEndedENS7_13SensorChangedEEEELm1EEEODaOT_NS_16in_place_index_tIXT0_EEE, symObjAddr: 0x1291C, symBinAddr: 0x100015BB8, symSize: 0x24 }
  - { offsetInCU: 0x4636B, offset: 0x4636B, size: 0x8, addend: 0x0, symName: __ZNSt3__116__variant_detail8__access7__union9__get_altB8ue170006IRKNS0_7__unionILNS0_6_TraitE0ELm20EJN2sf5Event10TouchMovedENS7_10TouchEndedENS7_13SensorChangedEEEEEEODaOT_NS_16in_place_index_tILm0EEE, symObjAddr: 0x12940, symBinAddr: 0x100015BDC, symSize: 0x14 }
  - { offsetInCU: 0x463AF, offset: 0x463AF, size: 0x8, addend: 0x0, symName: __ZNSt3__116__variant_detail8__access6__base9__get_altB8ue170006ILm21ERKNS0_6__baseILNS0_6_TraitE0EJN2sf5Event6ClosedENS7_7ResizedENS7_9FocusLostENS7_11FocusGainedENS7_11TextEnteredENS7_10KeyPressedENS7_11KeyReleasedENS7_18MouseWheelScrolledENS7_18MouseButtonPressedENS7_19MouseButtonReleasedENS7_10MouseMovedENS7_13MouseMovedRawENS7_12MouseEnteredENS7_9MouseLeftENS7_21JoystickButtonPressedENS7_22JoystickButtonReleasedENS7_13JoystickMovedENS7_17JoystickConnectedENS7_20JoystickDisconnectedENS7_10TouchBeganENS7_10TouchMovedENS7_10TouchEndedENS7_13SensorChangedEEEEEEODaOT0_, symObjAddr: 0x12980, symBinAddr: 0x100015C1C, symSize: 0x24 }
  - { offsetInCU: 0x463E6, offset: 0x463E6, size: 0x8, addend: 0x0, symName: '__ZNKSt3__116__variant_detail12__visitation9__variant15__value_visitorIRN2sf4priv11OverloadSetIJZ6drivervE3$_0ZNS4_10WindowBase12handleEventsIJRKS7_EEEvDpOT_EUlRKNS5_23DelayOverloadResolutionEE_EEEEclB8ue170006IJRKNS0_5__altILm21ENS4_5Event10TouchEndedEEEEEEDcSE_', symObjAddr: 0x129A4, symBinAddr: 0x100015C40, symSize: 0x3C }
  - { offsetInCU: 0x46431, offset: 0x46431, size: 0x8, addend: 0x0, symName: '__ZNSt3__116__variant_detail12__visitation9__variant36__std_visit_exhaustive_visitor_checkB8ue170006IRN2sf4priv11OverloadSetIJZ6drivervE3$_0ZNS4_10WindowBase12handleEventsIJRKS7_EEEvDpOT_EUlRKNS5_23DelayOverloadResolutionEE_EEEJRKNS4_5Event10TouchEndedEEEEvv', symObjAddr: 0x129E0, symBinAddr: 0x100015C7C, symSize: 0x4 }
  - { offsetInCU: 0x4645A, offset: 0x4645A, size: 0x8, addend: 0x0, symName: __ZN2sf4priv23DelayOverloadResolutionC1INS_5Event10TouchEndedEEERKT_, symObjAddr: 0x12A28, symBinAddr: 0x100015CC4, symSize: 0x34 }
  - { offsetInCU: 0x46498, offset: 0x46498, size: 0x8, addend: 0x0, symName: __ZN2sf4priv23DelayOverloadResolutionC2INS_5Event10TouchEndedEEERKT_, symObjAddr: 0x12A5C, symBinAddr: 0x100015CF8, symSize: 0x18 }
  - { offsetInCU: 0x464D6, offset: 0x464D6, size: 0x8, addend: 0x0, symName: __ZNSt3__116__variant_detail8__access7__union9__get_altB8ue170006IRKNS0_7__unionILNS0_6_TraitE0ELm0EJN2sf5Event6ClosedENS7_7ResizedENS7_9FocusLostENS7_11FocusGainedENS7_11TextEnteredENS7_10KeyPressedENS7_11KeyReleasedENS7_18MouseWheelScrolledENS7_18MouseButtonPressedENS7_19MouseButtonReleasedENS7_10MouseMovedENS7_13MouseMovedRawENS7_12MouseEnteredENS7_9MouseLeftENS7_21JoystickButtonPressedENS7_22JoystickButtonReleasedENS7_13JoystickMovedENS7_17JoystickConnectedENS7_20JoystickDisconnectedENS7_10TouchBeganENS7_10TouchMovedENS7_10TouchEndedENS7_13SensorChangedEEEELm21EEEODaOT_NS_16in_place_index_tIXT0_EEE, symObjAddr: 0x12A74, symBinAddr: 0x100015D10, symSize: 0x24 }
  - { offsetInCU: 0x46519, offset: 0x46519, size: 0x8, addend: 0x0, symName: __ZNSt3__116__variant_detail8__access7__union9__get_altB8ue170006IRKNS0_7__unionILNS0_6_TraitE0ELm1EJN2sf5Event7ResizedENS7_9FocusLostENS7_11FocusGainedENS7_11TextEnteredENS7_10KeyPressedENS7_11KeyReleasedENS7_18MouseWheelScrolledENS7_18MouseButtonPressedENS7_19MouseButtonReleasedENS7_10MouseMovedENS7_13MouseMovedRawENS7_12MouseEnteredENS7_9MouseLeftENS7_21JoystickButtonPressedENS7_22JoystickButtonReleasedENS7_13JoystickMovedENS7_17JoystickConnectedENS7_20JoystickDisconnectedENS7_10TouchBeganENS7_10TouchMovedENS7_10TouchEndedENS7_13SensorChangedEEEELm20EEEODaOT_NS_16in_place_index_tIXT0_EEE, symObjAddr: 0x12A98, symBinAddr: 0x100015D34, symSize: 0x24 }
  - { offsetInCU: 0x4655C, offset: 0x4655C, size: 0x8, addend: 0x0, symName: __ZNSt3__116__variant_detail8__access7__union9__get_altB8ue170006IRKNS0_7__unionILNS0_6_TraitE0ELm2EJN2sf5Event9FocusLostENS7_11FocusGainedENS7_11TextEnteredENS7_10KeyPressedENS7_11KeyReleasedENS7_18MouseWheelScrolledENS7_18MouseButtonPressedENS7_19MouseButtonReleasedENS7_10MouseMovedENS7_13MouseMovedRawENS7_12MouseEnteredENS7_9MouseLeftENS7_21JoystickButtonPressedENS7_22JoystickButtonReleasedENS7_13JoystickMovedENS7_17JoystickConnectedENS7_20JoystickDisconnectedENS7_10TouchBeganENS7_10TouchMovedENS7_10TouchEndedENS7_13SensorChangedEEEELm19EEEODaOT_NS_16in_place_index_tIXT0_EEE, symObjAddr: 0x12ABC, symBinAddr: 0x100015D58, symSize: 0x24 }
  - { offsetInCU: 0x4659F, offset: 0x4659F, size: 0x8, addend: 0x0, symName: __ZNSt3__116__variant_detail8__access7__union9__get_altB8ue170006IRKNS0_7__unionILNS0_6_TraitE0ELm3EJN2sf5Event11FocusGainedENS7_11TextEnteredENS7_10KeyPressedENS7_11KeyReleasedENS7_18MouseWheelScrolledENS7_18MouseButtonPressedENS7_19MouseButtonReleasedENS7_10MouseMovedENS7_13MouseMovedRawENS7_12MouseEnteredENS7_9MouseLeftENS7_21JoystickButtonPressedENS7_22JoystickButtonReleasedENS7_13JoystickMovedENS7_17JoystickConnectedENS7_20JoystickDisconnectedENS7_10TouchBeganENS7_10TouchMovedENS7_10TouchEndedENS7_13SensorChangedEEEELm18EEEODaOT_NS_16in_place_index_tIXT0_EEE, symObjAddr: 0x12AE0, symBinAddr: 0x100015D7C, symSize: 0x24 }
  - { offsetInCU: 0x465E2, offset: 0x465E2, size: 0x8, addend: 0x0, symName: __ZNSt3__116__variant_detail8__access7__union9__get_altB8ue170006IRKNS0_7__unionILNS0_6_TraitE0ELm4EJN2sf5Event11TextEnteredENS7_10KeyPressedENS7_11KeyReleasedENS7_18MouseWheelScrolledENS7_18MouseButtonPressedENS7_19MouseButtonReleasedENS7_10MouseMovedENS7_13MouseMovedRawENS7_12MouseEnteredENS7_9MouseLeftENS7_21JoystickButtonPressedENS7_22JoystickButtonReleasedENS7_13JoystickMovedENS7_17JoystickConnectedENS7_20JoystickDisconnectedENS7_10TouchBeganENS7_10TouchMovedENS7_10TouchEndedENS7_13SensorChangedEEEELm17EEEODaOT_NS_16in_place_index_tIXT0_EEE, symObjAddr: 0x12B04, symBinAddr: 0x100015DA0, symSize: 0x24 }
  - { offsetInCU: 0x46625, offset: 0x46625, size: 0x8, addend: 0x0, symName: __ZNSt3__116__variant_detail8__access7__union9__get_altB8ue170006IRKNS0_7__unionILNS0_6_TraitE0ELm5EJN2sf5Event10KeyPressedENS7_11KeyReleasedENS7_18MouseWheelScrolledENS7_18MouseButtonPressedENS7_19MouseButtonReleasedENS7_10MouseMovedENS7_13MouseMovedRawENS7_12MouseEnteredENS7_9MouseLeftENS7_21JoystickButtonPressedENS7_22JoystickButtonReleasedENS7_13JoystickMovedENS7_17JoystickConnectedENS7_20JoystickDisconnectedENS7_10TouchBeganENS7_10TouchMovedENS7_10TouchEndedENS7_13SensorChangedEEEELm16EEEODaOT_NS_16in_place_index_tIXT0_EEE, symObjAddr: 0x12B28, symBinAddr: 0x100015DC4, symSize: 0x24 }
  - { offsetInCU: 0x46668, offset: 0x46668, size: 0x8, addend: 0x0, symName: __ZNSt3__116__variant_detail8__access7__union9__get_altB8ue170006IRKNS0_7__unionILNS0_6_TraitE0ELm6EJN2sf5Event11KeyReleasedENS7_18MouseWheelScrolledENS7_18MouseButtonPressedENS7_19MouseButtonReleasedENS7_10MouseMovedENS7_13MouseMovedRawENS7_12MouseEnteredENS7_9MouseLeftENS7_21JoystickButtonPressedENS7_22JoystickButtonReleasedENS7_13JoystickMovedENS7_17JoystickConnectedENS7_20JoystickDisconnectedENS7_10TouchBeganENS7_10TouchMovedENS7_10TouchEndedENS7_13SensorChangedEEEELm15EEEODaOT_NS_16in_place_index_tIXT0_EEE, symObjAddr: 0x12B4C, symBinAddr: 0x100015DE8, symSize: 0x24 }
  - { offsetInCU: 0x466AB, offset: 0x466AB, size: 0x8, addend: 0x0, symName: __ZNSt3__116__variant_detail8__access7__union9__get_altB8ue170006IRKNS0_7__unionILNS0_6_TraitE0ELm7EJN2sf5Event18MouseWheelScrolledENS7_18MouseButtonPressedENS7_19MouseButtonReleasedENS7_10MouseMovedENS7_13MouseMovedRawENS7_12MouseEnteredENS7_9MouseLeftENS7_21JoystickButtonPressedENS7_22JoystickButtonReleasedENS7_13JoystickMovedENS7_17JoystickConnectedENS7_20JoystickDisconnectedENS7_10TouchBeganENS7_10TouchMovedENS7_10TouchEndedENS7_13SensorChangedEEEELm14EEEODaOT_NS_16in_place_index_tIXT0_EEE, symObjAddr: 0x12B70, symBinAddr: 0x100015E0C, symSize: 0x24 }
  - { offsetInCU: 0x466EE, offset: 0x466EE, size: 0x8, addend: 0x0, symName: __ZNSt3__116__variant_detail8__access7__union9__get_altB8ue170006IRKNS0_7__unionILNS0_6_TraitE0ELm8EJN2sf5Event18MouseButtonPressedENS7_19MouseButtonReleasedENS7_10MouseMovedENS7_13MouseMovedRawENS7_12MouseEnteredENS7_9MouseLeftENS7_21JoystickButtonPressedENS7_22JoystickButtonReleasedENS7_13JoystickMovedENS7_17JoystickConnectedENS7_20JoystickDisconnectedENS7_10TouchBeganENS7_10TouchMovedENS7_10TouchEndedENS7_13SensorChangedEEEELm13EEEODaOT_NS_16in_place_index_tIXT0_EEE, symObjAddr: 0x12B94, symBinAddr: 0x100015E30, symSize: 0x24 }
  - { offsetInCU: 0x46731, offset: 0x46731, size: 0x8, addend: 0x0, symName: __ZNSt3__116__variant_detail8__access7__union9__get_altB8ue170006IRKNS0_7__unionILNS0_6_TraitE0ELm9EJN2sf5Event19MouseButtonReleasedENS7_10MouseMovedENS7_13MouseMovedRawENS7_12MouseEnteredENS7_9MouseLeftENS7_21JoystickButtonPressedENS7_22JoystickButtonReleasedENS7_13JoystickMovedENS7_17JoystickConnectedENS7_20JoystickDisconnectedENS7_10TouchBeganENS7_10TouchMovedENS7_10TouchEndedENS7_13SensorChangedEEEELm12EEEODaOT_NS_16in_place_index_tIXT0_EEE, symObjAddr: 0x12BB8, symBinAddr: 0x100015E54, symSize: 0x24 }
  - { offsetInCU: 0x46774, offset: 0x46774, size: 0x8, addend: 0x0, symName: __ZNSt3__116__variant_detail8__access7__union9__get_altB8ue170006IRKNS0_7__unionILNS0_6_TraitE0ELm10EJN2sf5Event10MouseMovedENS7_13MouseMovedRawENS7_12MouseEnteredENS7_9MouseLeftENS7_21JoystickButtonPressedENS7_22JoystickButtonReleasedENS7_13JoystickMovedENS7_17JoystickConnectedENS7_20JoystickDisconnectedENS7_10TouchBeganENS7_10TouchMovedENS7_10TouchEndedENS7_13SensorChangedEEEELm11EEEODaOT_NS_16in_place_index_tIXT0_EEE, symObjAddr: 0x12BDC, symBinAddr: 0x100015E78, symSize: 0x24 }
  - { offsetInCU: 0x467B7, offset: 0x467B7, size: 0x8, addend: 0x0, symName: __ZNSt3__116__variant_detail8__access7__union9__get_altB8ue170006IRKNS0_7__unionILNS0_6_TraitE0ELm11EJN2sf5Event13MouseMovedRawENS7_12MouseEnteredENS7_9MouseLeftENS7_21JoystickButtonPressedENS7_22JoystickButtonReleasedENS7_13JoystickMovedENS7_17JoystickConnectedENS7_20JoystickDisconnectedENS7_10TouchBeganENS7_10TouchMovedENS7_10TouchEndedENS7_13SensorChangedEEEELm10EEEODaOT_NS_16in_place_index_tIXT0_EEE, symObjAddr: 0x12C00, symBinAddr: 0x100015E9C, symSize: 0x24 }
  - { offsetInCU: 0x467FA, offset: 0x467FA, size: 0x8, addend: 0x0, symName: __ZNSt3__116__variant_detail8__access7__union9__get_altB8ue170006IRKNS0_7__unionILNS0_6_TraitE0ELm12EJN2sf5Event12MouseEnteredENS7_9MouseLeftENS7_21JoystickButtonPressedENS7_22JoystickButtonReleasedENS7_13JoystickMovedENS7_17JoystickConnectedENS7_20JoystickDisconnectedENS7_10TouchBeganENS7_10TouchMovedENS7_10TouchEndedENS7_13SensorChangedEEEELm9EEEODaOT_NS_16in_place_index_tIXT0_EEE, symObjAddr: 0x12C24, symBinAddr: 0x100015EC0, symSize: 0x24 }
  - { offsetInCU: 0x4683D, offset: 0x4683D, size: 0x8, addend: 0x0, symName: __ZNSt3__116__variant_detail8__access7__union9__get_altB8ue170006IRKNS0_7__unionILNS0_6_TraitE0ELm13EJN2sf5Event9MouseLeftENS7_21JoystickButtonPressedENS7_22JoystickButtonReleasedENS7_13JoystickMovedENS7_17JoystickConnectedENS7_20JoystickDisconnectedENS7_10TouchBeganENS7_10TouchMovedENS7_10TouchEndedENS7_13SensorChangedEEEELm8EEEODaOT_NS_16in_place_index_tIXT0_EEE, symObjAddr: 0x12C48, symBinAddr: 0x100015EE4, symSize: 0x24 }
  - { offsetInCU: 0x46880, offset: 0x46880, size: 0x8, addend: 0x0, symName: __ZNSt3__116__variant_detail8__access7__union9__get_altB8ue170006IRKNS0_7__unionILNS0_6_TraitE0ELm14EJN2sf5Event21JoystickButtonPressedENS7_22JoystickButtonReleasedENS7_13JoystickMovedENS7_17JoystickConnectedENS7_20JoystickDisconnectedENS7_10TouchBeganENS7_10TouchMovedENS7_10TouchEndedENS7_13SensorChangedEEEELm7EEEODaOT_NS_16in_place_index_tIXT0_EEE, symObjAddr: 0x12C6C, symBinAddr: 0x100015F08, symSize: 0x24 }
  - { offsetInCU: 0x468C3, offset: 0x468C3, size: 0x8, addend: 0x0, symName: __ZNSt3__116__variant_detail8__access7__union9__get_altB8ue170006IRKNS0_7__unionILNS0_6_TraitE0ELm15EJN2sf5Event22JoystickButtonReleasedENS7_13JoystickMovedENS7_17JoystickConnectedENS7_20JoystickDisconnectedENS7_10TouchBeganENS7_10TouchMovedENS7_10TouchEndedENS7_13SensorChangedEEEELm6EEEODaOT_NS_16in_place_index_tIXT0_EEE, symObjAddr: 0x12C90, symBinAddr: 0x100015F2C, symSize: 0x24 }
  - { offsetInCU: 0x46906, offset: 0x46906, size: 0x8, addend: 0x0, symName: __ZNSt3__116__variant_detail8__access7__union9__get_altB8ue170006IRKNS0_7__unionILNS0_6_TraitE0ELm16EJN2sf5Event13JoystickMovedENS7_17JoystickConnectedENS7_20JoystickDisconnectedENS7_10TouchBeganENS7_10TouchMovedENS7_10TouchEndedENS7_13SensorChangedEEEELm5EEEODaOT_NS_16in_place_index_tIXT0_EEE, symObjAddr: 0x12CB4, symBinAddr: 0x100015F50, symSize: 0x24 }
  - { offsetInCU: 0x46949, offset: 0x46949, size: 0x8, addend: 0x0, symName: __ZNSt3__116__variant_detail8__access7__union9__get_altB8ue170006IRKNS0_7__unionILNS0_6_TraitE0ELm17EJN2sf5Event17JoystickConnectedENS7_20JoystickDisconnectedENS7_10TouchBeganENS7_10TouchMovedENS7_10TouchEndedENS7_13SensorChangedEEEELm4EEEODaOT_NS_16in_place_index_tIXT0_EEE, symObjAddr: 0x12CD8, symBinAddr: 0x100015F74, symSize: 0x24 }
  - { offsetInCU: 0x4698C, offset: 0x4698C, size: 0x8, addend: 0x0, symName: __ZNSt3__116__variant_detail8__access7__union9__get_altB8ue170006IRKNS0_7__unionILNS0_6_TraitE0ELm18EJN2sf5Event20JoystickDisconnectedENS7_10TouchBeganENS7_10TouchMovedENS7_10TouchEndedENS7_13SensorChangedEEEELm3EEEODaOT_NS_16in_place_index_tIXT0_EEE, symObjAddr: 0x12CFC, symBinAddr: 0x100015F98, symSize: 0x24 }
  - { offsetInCU: 0x469CF, offset: 0x469CF, size: 0x8, addend: 0x0, symName: __ZNSt3__116__variant_detail8__access7__union9__get_altB8ue170006IRKNS0_7__unionILNS0_6_TraitE0ELm19EJN2sf5Event10TouchBeganENS7_10TouchMovedENS7_10TouchEndedENS7_13SensorChangedEEEELm2EEEODaOT_NS_16in_place_index_tIXT0_EEE, symObjAddr: 0x12D20, symBinAddr: 0x100015FBC, symSize: 0x24 }
  - { offsetInCU: 0x46A12, offset: 0x46A12, size: 0x8, addend: 0x0, symName: __ZNSt3__116__variant_detail8__access7__union9__get_altB8ue170006IRKNS0_7__unionILNS0_6_TraitE0ELm20EJN2sf5Event10TouchMovedENS7_10TouchEndedENS7_13SensorChangedEEEELm1EEEODaOT_NS_16in_place_index_tIXT0_EEE, symObjAddr: 0x12D44, symBinAddr: 0x100015FE0, symSize: 0x24 }
  - { offsetInCU: 0x46A55, offset: 0x46A55, size: 0x8, addend: 0x0, symName: __ZNSt3__116__variant_detail8__access7__union9__get_altB8ue170006IRKNS0_7__unionILNS0_6_TraitE0ELm21EJN2sf5Event10TouchEndedENS7_13SensorChangedEEEEEEODaOT_NS_16in_place_index_tILm0EEE, symObjAddr: 0x12D68, symBinAddr: 0x100016004, symSize: 0x14 }
  - { offsetInCU: 0x46A99, offset: 0x46A99, size: 0x8, addend: 0x0, symName: __ZNSt3__116__variant_detail8__access6__base9__get_altB8ue170006ILm22ERKNS0_6__baseILNS0_6_TraitE0EJN2sf5Event6ClosedENS7_7ResizedENS7_9FocusLostENS7_11FocusGainedENS7_11TextEnteredENS7_10KeyPressedENS7_11KeyReleasedENS7_18MouseWheelScrolledENS7_18MouseButtonPressedENS7_19MouseButtonReleasedENS7_10MouseMovedENS7_13MouseMovedRawENS7_12MouseEnteredENS7_9MouseLeftENS7_21JoystickButtonPressedENS7_22JoystickButtonReleasedENS7_13JoystickMovedENS7_17JoystickConnectedENS7_20JoystickDisconnectedENS7_10TouchBeganENS7_10TouchMovedENS7_10TouchEndedENS7_13SensorChangedEEEEEEODaOT0_, symObjAddr: 0x12DA8, symBinAddr: 0x100016044, symSize: 0x24 }
  - { offsetInCU: 0x46AD0, offset: 0x46AD0, size: 0x8, addend: 0x0, symName: '__ZNKSt3__116__variant_detail12__visitation9__variant15__value_visitorIRN2sf4priv11OverloadSetIJZ6drivervE3$_0ZNS4_10WindowBase12handleEventsIJRKS7_EEEvDpOT_EUlRKNS5_23DelayOverloadResolutionEE_EEEEclB8ue170006IJRKNS0_5__altILm22ENS4_5Event13SensorChangedEEEEEEDcSE_', symObjAddr: 0x12DCC, symBinAddr: 0x100016068, symSize: 0x3C }
  - { offsetInCU: 0x46B1B, offset: 0x46B1B, size: 0x8, addend: 0x0, symName: '__ZNSt3__116__variant_detail12__visitation9__variant36__std_visit_exhaustive_visitor_checkB8ue170006IRN2sf4priv11OverloadSetIJZ6drivervE3$_0ZNS4_10WindowBase12handleEventsIJRKS7_EEEvDpOT_EUlRKNS5_23DelayOverloadResolutionEE_EEEJRKNS4_5Event13SensorChangedEEEEvv', symObjAddr: 0x12E08, symBinAddr: 0x1000160A4, symSize: 0x4 }
  - { offsetInCU: 0x46B44, offset: 0x46B44, size: 0x8, addend: 0x0, symName: __ZN2sf4priv23DelayOverloadResolutionC1INS_5Event13SensorChangedEEERKT_, symObjAddr: 0x12E50, symBinAddr: 0x1000160EC, symSize: 0x34 }
  - { offsetInCU: 0x46B82, offset: 0x46B82, size: 0x8, addend: 0x0, symName: __ZN2sf4priv23DelayOverloadResolutionC2INS_5Event13SensorChangedEEERKT_, symObjAddr: 0x12E84, symBinAddr: 0x100016120, symSize: 0x18 }
  - { offsetInCU: 0x46BC0, offset: 0x46BC0, size: 0x8, addend: 0x0, symName: __ZNSt3__116__variant_detail8__access7__union9__get_altB8ue170006IRKNS0_7__unionILNS0_6_TraitE0ELm0EJN2sf5Event6ClosedENS7_7ResizedENS7_9FocusLostENS7_11FocusGainedENS7_11TextEnteredENS7_10KeyPressedENS7_11KeyReleasedENS7_18MouseWheelScrolledENS7_18MouseButtonPressedENS7_19MouseButtonReleasedENS7_10MouseMovedENS7_13MouseMovedRawENS7_12MouseEnteredENS7_9MouseLeftENS7_21JoystickButtonPressedENS7_22JoystickButtonReleasedENS7_13JoystickMovedENS7_17JoystickConnectedENS7_20JoystickDisconnectedENS7_10TouchBeganENS7_10TouchMovedENS7_10TouchEndedENS7_13SensorChangedEEEELm22EEEODaOT_NS_16in_place_index_tIXT0_EEE, symObjAddr: 0x12E9C, symBinAddr: 0x100016138, symSize: 0x24 }
  - { offsetInCU: 0x46C03, offset: 0x46C03, size: 0x8, addend: 0x0, symName: __ZNSt3__116__variant_detail8__access7__union9__get_altB8ue170006IRKNS0_7__unionILNS0_6_TraitE0ELm1EJN2sf5Event7ResizedENS7_9FocusLostENS7_11FocusGainedENS7_11TextEnteredENS7_10KeyPressedENS7_11KeyReleasedENS7_18MouseWheelScrolledENS7_18MouseButtonPressedENS7_19MouseButtonReleasedENS7_10MouseMovedENS7_13MouseMovedRawENS7_12MouseEnteredENS7_9MouseLeftENS7_21JoystickButtonPressedENS7_22JoystickButtonReleasedENS7_13JoystickMovedENS7_17JoystickConnectedENS7_20JoystickDisconnectedENS7_10TouchBeganENS7_10TouchMovedENS7_10TouchEndedENS7_13SensorChangedEEEELm21EEEODaOT_NS_16in_place_index_tIXT0_EEE, symObjAddr: 0x12EC0, symBinAddr: 0x10001615C, symSize: 0x24 }
  - { offsetInCU: 0x46C46, offset: 0x46C46, size: 0x8, addend: 0x0, symName: __ZNSt3__116__variant_detail8__access7__union9__get_altB8ue170006IRKNS0_7__unionILNS0_6_TraitE0ELm2EJN2sf5Event9FocusLostENS7_11FocusGainedENS7_11TextEnteredENS7_10KeyPressedENS7_11KeyReleasedENS7_18MouseWheelScrolledENS7_18MouseButtonPressedENS7_19MouseButtonReleasedENS7_10MouseMovedENS7_13MouseMovedRawENS7_12MouseEnteredENS7_9MouseLeftENS7_21JoystickButtonPressedENS7_22JoystickButtonReleasedENS7_13JoystickMovedENS7_17JoystickConnectedENS7_20JoystickDisconnectedENS7_10TouchBeganENS7_10TouchMovedENS7_10TouchEndedENS7_13SensorChangedEEEELm20EEEODaOT_NS_16in_place_index_tIXT0_EEE, symObjAddr: 0x12EE4, symBinAddr: 0x100016180, symSize: 0x24 }
  - { offsetInCU: 0x46C89, offset: 0x46C89, size: 0x8, addend: 0x0, symName: __ZNSt3__116__variant_detail8__access7__union9__get_altB8ue170006IRKNS0_7__unionILNS0_6_TraitE0ELm3EJN2sf5Event11FocusGainedENS7_11TextEnteredENS7_10KeyPressedENS7_11KeyReleasedENS7_18MouseWheelScrolledENS7_18MouseButtonPressedENS7_19MouseButtonReleasedENS7_10MouseMovedENS7_13MouseMovedRawENS7_12MouseEnteredENS7_9MouseLeftENS7_21JoystickButtonPressedENS7_22JoystickButtonReleasedENS7_13JoystickMovedENS7_17JoystickConnectedENS7_20JoystickDisconnectedENS7_10TouchBeganENS7_10TouchMovedENS7_10TouchEndedENS7_13SensorChangedEEEELm19EEEODaOT_NS_16in_place_index_tIXT0_EEE, symObjAddr: 0x12F08, symBinAddr: 0x1000161A4, symSize: 0x24 }
  - { offsetInCU: 0x46CCC, offset: 0x46CCC, size: 0x8, addend: 0x0, symName: __ZNSt3__116__variant_detail8__access7__union9__get_altB8ue170006IRKNS0_7__unionILNS0_6_TraitE0ELm4EJN2sf5Event11TextEnteredENS7_10KeyPressedENS7_11KeyReleasedENS7_18MouseWheelScrolledENS7_18MouseButtonPressedENS7_19MouseButtonReleasedENS7_10MouseMovedENS7_13MouseMovedRawENS7_12MouseEnteredENS7_9MouseLeftENS7_21JoystickButtonPressedENS7_22JoystickButtonReleasedENS7_13JoystickMovedENS7_17JoystickConnectedENS7_20JoystickDisconnectedENS7_10TouchBeganENS7_10TouchMovedENS7_10TouchEndedENS7_13SensorChangedEEEELm18EEEODaOT_NS_16in_place_index_tIXT0_EEE, symObjAddr: 0x12F2C, symBinAddr: 0x1000161C8, symSize: 0x24 }
  - { offsetInCU: 0x46D0F, offset: 0x46D0F, size: 0x8, addend: 0x0, symName: __ZNSt3__116__variant_detail8__access7__union9__get_altB8ue170006IRKNS0_7__unionILNS0_6_TraitE0ELm5EJN2sf5Event10KeyPressedENS7_11KeyReleasedENS7_18MouseWheelScrolledENS7_18MouseButtonPressedENS7_19MouseButtonReleasedENS7_10MouseMovedENS7_13MouseMovedRawENS7_12MouseEnteredENS7_9MouseLeftENS7_21JoystickButtonPressedENS7_22JoystickButtonReleasedENS7_13JoystickMovedENS7_17JoystickConnectedENS7_20JoystickDisconnectedENS7_10TouchBeganENS7_10TouchMovedENS7_10TouchEndedENS7_13SensorChangedEEEELm17EEEODaOT_NS_16in_place_index_tIXT0_EEE, symObjAddr: 0x12F50, symBinAddr: 0x1000161EC, symSize: 0x24 }
  - { offsetInCU: 0x46D52, offset: 0x46D52, size: 0x8, addend: 0x0, symName: __ZNSt3__116__variant_detail8__access7__union9__get_altB8ue170006IRKNS0_7__unionILNS0_6_TraitE0ELm6EJN2sf5Event11KeyReleasedENS7_18MouseWheelScrolledENS7_18MouseButtonPressedENS7_19MouseButtonReleasedENS7_10MouseMovedENS7_13MouseMovedRawENS7_12MouseEnteredENS7_9MouseLeftENS7_21JoystickButtonPressedENS7_22JoystickButtonReleasedENS7_13JoystickMovedENS7_17JoystickConnectedENS7_20JoystickDisconnectedENS7_10TouchBeganENS7_10TouchMovedENS7_10TouchEndedENS7_13SensorChangedEEEELm16EEEODaOT_NS_16in_place_index_tIXT0_EEE, symObjAddr: 0x12F74, symBinAddr: 0x100016210, symSize: 0x24 }
  - { offsetInCU: 0x46D95, offset: 0x46D95, size: 0x8, addend: 0x0, symName: __ZNSt3__116__variant_detail8__access7__union9__get_altB8ue170006IRKNS0_7__unionILNS0_6_TraitE0ELm7EJN2sf5Event18MouseWheelScrolledENS7_18MouseButtonPressedENS7_19MouseButtonReleasedENS7_10MouseMovedENS7_13MouseMovedRawENS7_12MouseEnteredENS7_9MouseLeftENS7_21JoystickButtonPressedENS7_22JoystickButtonReleasedENS7_13JoystickMovedENS7_17JoystickConnectedENS7_20JoystickDisconnectedENS7_10TouchBeganENS7_10TouchMovedENS7_10TouchEndedENS7_13SensorChangedEEEELm15EEEODaOT_NS_16in_place_index_tIXT0_EEE, symObjAddr: 0x12F98, symBinAddr: 0x100016234, symSize: 0x24 }
  - { offsetInCU: 0x46DD8, offset: 0x46DD8, size: 0x8, addend: 0x0, symName: __ZNSt3__116__variant_detail8__access7__union9__get_altB8ue170006IRKNS0_7__unionILNS0_6_TraitE0ELm8EJN2sf5Event18MouseButtonPressedENS7_19MouseButtonReleasedENS7_10MouseMovedENS7_13MouseMovedRawENS7_12MouseEnteredENS7_9MouseLeftENS7_21JoystickButtonPressedENS7_22JoystickButtonReleasedENS7_13JoystickMovedENS7_17JoystickConnectedENS7_20JoystickDisconnectedENS7_10TouchBeganENS7_10TouchMovedENS7_10TouchEndedENS7_13SensorChangedEEEELm14EEEODaOT_NS_16in_place_index_tIXT0_EEE, symObjAddr: 0x12FBC, symBinAddr: 0x100016258, symSize: 0x24 }
  - { offsetInCU: 0x46E1B, offset: 0x46E1B, size: 0x8, addend: 0x0, symName: __ZNSt3__116__variant_detail8__access7__union9__get_altB8ue170006IRKNS0_7__unionILNS0_6_TraitE0ELm9EJN2sf5Event19MouseButtonReleasedENS7_10MouseMovedENS7_13MouseMovedRawENS7_12MouseEnteredENS7_9MouseLeftENS7_21JoystickButtonPressedENS7_22JoystickButtonReleasedENS7_13JoystickMovedENS7_17JoystickConnectedENS7_20JoystickDisconnectedENS7_10TouchBeganENS7_10TouchMovedENS7_10TouchEndedENS7_13SensorChangedEEEELm13EEEODaOT_NS_16in_place_index_tIXT0_EEE, symObjAddr: 0x12FE0, symBinAddr: 0x10001627C, symSize: 0x24 }
  - { offsetInCU: 0x46E5E, offset: 0x46E5E, size: 0x8, addend: 0x0, symName: __ZNSt3__116__variant_detail8__access7__union9__get_altB8ue170006IRKNS0_7__unionILNS0_6_TraitE0ELm10EJN2sf5Event10MouseMovedENS7_13MouseMovedRawENS7_12MouseEnteredENS7_9MouseLeftENS7_21JoystickButtonPressedENS7_22JoystickButtonReleasedENS7_13JoystickMovedENS7_17JoystickConnectedENS7_20JoystickDisconnectedENS7_10TouchBeganENS7_10TouchMovedENS7_10TouchEndedENS7_13SensorChangedEEEELm12EEEODaOT_NS_16in_place_index_tIXT0_EEE, symObjAddr: 0x13004, symBinAddr: 0x1000162A0, symSize: 0x24 }
  - { offsetInCU: 0x46EA1, offset: 0x46EA1, size: 0x8, addend: 0x0, symName: __ZNSt3__116__variant_detail8__access7__union9__get_altB8ue170006IRKNS0_7__unionILNS0_6_TraitE0ELm11EJN2sf5Event13MouseMovedRawENS7_12MouseEnteredENS7_9MouseLeftENS7_21JoystickButtonPressedENS7_22JoystickButtonReleasedENS7_13JoystickMovedENS7_17JoystickConnectedENS7_20JoystickDisconnectedENS7_10TouchBeganENS7_10TouchMovedENS7_10TouchEndedENS7_13SensorChangedEEEELm11EEEODaOT_NS_16in_place_index_tIXT0_EEE, symObjAddr: 0x13028, symBinAddr: 0x1000162C4, symSize: 0x24 }
  - { offsetInCU: 0x46EE4, offset: 0x46EE4, size: 0x8, addend: 0x0, symName: __ZNSt3__116__variant_detail8__access7__union9__get_altB8ue170006IRKNS0_7__unionILNS0_6_TraitE0ELm12EJN2sf5Event12MouseEnteredENS7_9MouseLeftENS7_21JoystickButtonPressedENS7_22JoystickButtonReleasedENS7_13JoystickMovedENS7_17JoystickConnectedENS7_20JoystickDisconnectedENS7_10TouchBeganENS7_10TouchMovedENS7_10TouchEndedENS7_13SensorChangedEEEELm10EEEODaOT_NS_16in_place_index_tIXT0_EEE, symObjAddr: 0x1304C, symBinAddr: 0x1000162E8, symSize: 0x24 }
  - { offsetInCU: 0x46F27, offset: 0x46F27, size: 0x8, addend: 0x0, symName: __ZNSt3__116__variant_detail8__access7__union9__get_altB8ue170006IRKNS0_7__unionILNS0_6_TraitE0ELm13EJN2sf5Event9MouseLeftENS7_21JoystickButtonPressedENS7_22JoystickButtonReleasedENS7_13JoystickMovedENS7_17JoystickConnectedENS7_20JoystickDisconnectedENS7_10TouchBeganENS7_10TouchMovedENS7_10TouchEndedENS7_13SensorChangedEEEELm9EEEODaOT_NS_16in_place_index_tIXT0_EEE, symObjAddr: 0x13070, symBinAddr: 0x10001630C, symSize: 0x24 }
  - { offsetInCU: 0x46F6A, offset: 0x46F6A, size: 0x8, addend: 0x0, symName: __ZNSt3__116__variant_detail8__access7__union9__get_altB8ue170006IRKNS0_7__unionILNS0_6_TraitE0ELm14EJN2sf5Event21JoystickButtonPressedENS7_22JoystickButtonReleasedENS7_13JoystickMovedENS7_17JoystickConnectedENS7_20JoystickDisconnectedENS7_10TouchBeganENS7_10TouchMovedENS7_10TouchEndedENS7_13SensorChangedEEEELm8EEEODaOT_NS_16in_place_index_tIXT0_EEE, symObjAddr: 0x13094, symBinAddr: 0x100016330, symSize: 0x24 }
  - { offsetInCU: 0x46FAD, offset: 0x46FAD, size: 0x8, addend: 0x0, symName: __ZNSt3__116__variant_detail8__access7__union9__get_altB8ue170006IRKNS0_7__unionILNS0_6_TraitE0ELm15EJN2sf5Event22JoystickButtonReleasedENS7_13JoystickMovedENS7_17JoystickConnectedENS7_20JoystickDisconnectedENS7_10TouchBeganENS7_10TouchMovedENS7_10TouchEndedENS7_13SensorChangedEEEELm7EEEODaOT_NS_16in_place_index_tIXT0_EEE, symObjAddr: 0x130B8, symBinAddr: 0x100016354, symSize: 0x24 }
  - { offsetInCU: 0x46FF0, offset: 0x46FF0, size: 0x8, addend: 0x0, symName: __ZNSt3__116__variant_detail8__access7__union9__get_altB8ue170006IRKNS0_7__unionILNS0_6_TraitE0ELm16EJN2sf5Event13JoystickMovedENS7_17JoystickConnectedENS7_20JoystickDisconnectedENS7_10TouchBeganENS7_10TouchMovedENS7_10TouchEndedENS7_13SensorChangedEEEELm6EEEODaOT_NS_16in_place_index_tIXT0_EEE, symObjAddr: 0x130DC, symBinAddr: 0x100016378, symSize: 0x24 }
  - { offsetInCU: 0x47033, offset: 0x47033, size: 0x8, addend: 0x0, symName: __ZNSt3__116__variant_detail8__access7__union9__get_altB8ue170006IRKNS0_7__unionILNS0_6_TraitE0ELm17EJN2sf5Event17JoystickConnectedENS7_20JoystickDisconnectedENS7_10TouchBeganENS7_10TouchMovedENS7_10TouchEndedENS7_13SensorChangedEEEELm5EEEODaOT_NS_16in_place_index_tIXT0_EEE, symObjAddr: 0x13100, symBinAddr: 0x10001639C, symSize: 0x24 }
  - { offsetInCU: 0x47076, offset: 0x47076, size: 0x8, addend: 0x0, symName: __ZNSt3__116__variant_detail8__access7__union9__get_altB8ue170006IRKNS0_7__unionILNS0_6_TraitE0ELm18EJN2sf5Event20JoystickDisconnectedENS7_10TouchBeganENS7_10TouchMovedENS7_10TouchEndedENS7_13SensorChangedEEEELm4EEEODaOT_NS_16in_place_index_tIXT0_EEE, symObjAddr: 0x13124, symBinAddr: 0x1000163C0, symSize: 0x24 }
  - { offsetInCU: 0x470B9, offset: 0x470B9, size: 0x8, addend: 0x0, symName: __ZNSt3__116__variant_detail8__access7__union9__get_altB8ue170006IRKNS0_7__unionILNS0_6_TraitE0ELm19EJN2sf5Event10TouchBeganENS7_10TouchMovedENS7_10TouchEndedENS7_13SensorChangedEEEELm3EEEODaOT_NS_16in_place_index_tIXT0_EEE, symObjAddr: 0x13148, symBinAddr: 0x1000163E4, symSize: 0x24 }
  - { offsetInCU: 0x470FC, offset: 0x470FC, size: 0x8, addend: 0x0, symName: __ZNSt3__116__variant_detail8__access7__union9__get_altB8ue170006IRKNS0_7__unionILNS0_6_TraitE0ELm20EJN2sf5Event10TouchMovedENS7_10TouchEndedENS7_13SensorChangedEEEELm2EEEODaOT_NS_16in_place_index_tIXT0_EEE, symObjAddr: 0x1316C, symBinAddr: 0x100016408, symSize: 0x24 }
  - { offsetInCU: 0x4713F, offset: 0x4713F, size: 0x8, addend: 0x0, symName: __ZNSt3__116__variant_detail8__access7__union9__get_altB8ue170006IRKNS0_7__unionILNS0_6_TraitE0ELm21EJN2sf5Event10TouchEndedENS7_13SensorChangedEEEELm1EEEODaOT_NS_16in_place_index_tIXT0_EEE, symObjAddr: 0x13190, symBinAddr: 0x10001642C, symSize: 0x24 }
  - { offsetInCU: 0x47182, offset: 0x47182, size: 0x8, addend: 0x0, symName: __ZNSt3__116__variant_detail8__access7__union9__get_altB8ue170006IRKNS0_7__unionILNS0_6_TraitE0ELm22EJN2sf5Event13SensorChangedEEEEEEODaOT_NS_16in_place_index_tILm0EEE, symObjAddr: 0x131B4, symBinAddr: 0x100016450, symSize: 0x14 }
  - { offsetInCU: 0x471BB, offset: 0x471BB, size: 0x8, addend: 0x0, symName: '__ZNSt3__116__variant_detail12__visitation6__base4__atB8ue170006IPFvONS1_9__variant15__value_visitorIRN2sf4priv11OverloadSetIJZ6drivervE3$_0ZNS6_10WindowBase12handleEventsIJRKS9_EEEvDpOT_EUlRKNS7_23DelayOverloadResolutionEE_EEEEERKNS0_6__baseILNS0_6_TraitE0EJNS6_5Event6ClosedENSR_7ResizedENSR_9FocusLostENSR_11FocusGainedENSR_11TextEnteredENSR_10KeyPressedENSR_11KeyReleasedENSR_18MouseWheelScrolledENSR_18MouseButtonPressedENSR_19MouseButtonReleasedENSR_10MouseMovedENSR_13MouseMovedRawENSR_12MouseEnteredENSR_9MouseLeftENSR_21JoystickButtonPressedENSR_22JoystickButtonReleasedENSR_13JoystickMovedENSR_17JoystickConnectedENSR_20JoystickDisconnectedENSR_10TouchBeganENSR_10TouchMovedENSR_10TouchEndedENSR_13SensorChangedEEEEEEERKT_S1M_', symObjAddr: 0x131C8, symBinAddr: 0x100016464, symSize: 0x14 }
  - { offsetInCU: 0x471E8, offset: 0x471E8, size: 0x8, addend: 0x0, symName: '__ZNKSt3__18__farrayIPFvONS_16__variant_detail12__visitation9__variant15__value_visitorIRN2sf4priv11OverloadSetIJZ6drivervE3$_0ZNS5_10WindowBase12handleEventsIJRKS8_EEEvDpOT_EUlRKNS6_23DelayOverloadResolutionEE_EEEEERKNS1_6__baseILNS1_6_TraitE0EJNS5_5Event6ClosedENSQ_7ResizedENSQ_9FocusLostENSQ_11FocusGainedENSQ_11TextEnteredENSQ_10KeyPressedENSQ_11KeyReleasedENSQ_18MouseWheelScrolledENSQ_18MouseButtonPressedENSQ_19MouseButtonReleasedENSQ_10MouseMovedENSQ_13MouseMovedRawENSQ_12MouseEnteredENSQ_9MouseLeftENSQ_21JoystickButtonPressedENSQ_22JoystickButtonReleasedENSQ_13JoystickMovedENSQ_17JoystickConnectedENSQ_20JoystickDisconnectedENSQ_10TouchBeganENSQ_10TouchMovedENSQ_10TouchEndedENSQ_13SensorChangedEEEEELm23EEixB8ue170006Em', symObjAddr: 0x131DC, symBinAddr: 0x100016478, symSize: 0x20 }
  - { offsetInCU: 0x4721D, offset: 0x4721D, size: 0x8, addend: 0x0, symName: __ZNSt3__16vectorI15AssignmentShapeNS_9allocatorIS1_EEE11__make_iterB8ue170006EPS1_, symObjAddr: 0x131FC, symBinAddr: 0x100016498, symSize: 0x30 }
  - { offsetInCU: 0x47252, offset: 0x47252, size: 0x8, addend: 0x0, symName: __ZNSt3__111__wrap_iterIP15AssignmentShapeEC1B8ue170006ES2_, symObjAddr: 0x1322C, symBinAddr: 0x1000164C8, symSize: 0x34 }
  - { offsetInCU: 0x4728B, offset: 0x4728B, size: 0x8, addend: 0x0, symName: __ZNSt3__111__wrap_iterIP15AssignmentShapeEC2B8ue170006ES2_, symObjAddr: 0x13260, symBinAddr: 0x1000164FC, symSize: 0x20 }
...
